SF:/Users/kuangtalin/.cargo/registry/src/index.crates.io-1949cf8c6b5b557f/ahash-0.8.12/src/convert.rs
FN:56,_RINvNvXNtCsjRf07LucFe5_5ahash7convertShNtB5_13ReadFromSlice13read_last_u328as_arrayhECselVtgDpzSu1_4cdDB
FN:56,_RINvNvXNtCsjRf07LucFe5_5ahash7convertShNtB5_13ReadFromSlice13read_last_u648as_arrayhECselVtgDpzSu1_4cdDB
FN:56,_RINvNvXNtCsjRf07LucFe5_5ahash7convertShNtB5_13ReadFromSlice14read_last_u1288as_arrayhECselVtgDpzSu1_4cdDB
FN:56,_RINvNvXNtCsjRf07LucFe5_5ahash7convertShNtB5_13ReadFromSlice8read_u168as_arrayhECselVtgDpzSu1_4cdDB
FN:56,_RINvNvXNtCsjRf07LucFe5_5ahash7convertShNtB5_13ReadFromSlice8read_u328as_arrayhECselVtgDpzSu1_4cdDB
FN:56,_RINvNvXNtCsjRf07LucFe5_5ahash7convertShNtB5_13ReadFromSlice8read_u648as_arrayhECselVtgDpzSu1_4cdDB
FN:56,_RINvNvXNtCsjRf07LucFe5_5ahash7convertShNtB5_13ReadFromSlice9read_u1288as_arrayhECselVtgDpzSu1_4cdDB
FN:123,_RNvXNtCsjRf07LucFe5_5ahash7convertShNtB2_13ReadFromSlice13read_last_u32
FN:129,_RNvXNtCsjRf07LucFe5_5ahash7convertShNtB2_13ReadFromSlice13read_last_u64
FN:135,_RNvXNtCsjRf07LucFe5_5ahash7convertShNtB2_13ReadFromSlice14read_last_u128
FN:81,_RNvXNtCsjRf07LucFe5_5ahash7convertShNtB2_13ReadFromSlice8read_u16
FN:87,_RNvXNtCsjRf07LucFe5_5ahash7convertShNtB2_13ReadFromSlice8read_u32
FN:93,_RNvXNtCsjRf07LucFe5_5ahash7convertShNtB2_13ReadFromSlice8read_u64
FN:99,_RNvXNtCsjRf07LucFe5_5ahash7convertShNtB2_13ReadFromSlice9read_u128
FN:9,_RNvXs5_NtCsjRf07LucFe5_5ahash7convertoINtB5_7ConvertAyj2_E7convert
FN:15,_RNvXs6_NtCsjRf07LucFe5_5ahash7convertAyj2_INtB5_7ConvertoE7convert
FN:32,_RNvXs8_NtCsjRf07LucFe5_5ahash7convertAhj10_INtB5_7ConvertoE7convert
FN:32,_RNvXsc_NtCsjRf07LucFe5_5ahash7convertAhj8_INtB5_7ConvertyE7convert
FN:32,_RNvXse_NtCsjRf07LucFe5_5ahash7convertAhj4_INtB5_7ConvertmE7convert
FN:32,_RNvXsg_NtCsjRf07LucFe5_5ahash7convertAhj2_INtB5_7ConverttE7convert
FN:15,_RNvXsi_NtCsjRf07LucFe5_5ahash7convertAhj40_INtB5_7ConvertAAyj4_j2_E7convert
FN:56,_RINvNvXNtCsjRf07LucFe5_5ahash7convertShNtB5_13ReadFromSlice11read_u128x28as_arraypEB7_
FN:56,_RINvNvXNtCsjRf07LucFe5_5ahash7convertShNtB5_13ReadFromSlice11read_u128x48as_arraypEB7_
FN:56,_RINvNvXNtCsjRf07LucFe5_5ahash7convertShNtB5_13ReadFromSlice13read_last_u168as_arraypEB7_
FN:56,_RINvNvXNtCsjRf07LucFe5_5ahash7convertShNtB5_13ReadFromSlice13read_last_u328as_arraypEB7_
FN:56,_RINvNvXNtCsjRf07LucFe5_5ahash7convertShNtB5_13ReadFromSlice13read_last_u648as_arraypEB7_
FN:56,_RINvNvXNtCsjRf07LucFe5_5ahash7convertShNtB5_13ReadFromSlice14read_last_u1288as_arraypEB7_
FN:56,_RINvNvXNtCsjRf07LucFe5_5ahash7convertShNtB5_13ReadFromSlice16read_last_u128x28as_arraypEB7_
FN:56,_RINvNvXNtCsjRf07LucFe5_5ahash7convertShNtB5_13ReadFromSlice16read_last_u128x48as_arraypEB7_
FN:56,_RINvNvXNtCsjRf07LucFe5_5ahash7convertShNtB5_13ReadFromSlice8read_u168as_arraypEB7_
FN:56,_RINvNvXNtCsjRf07LucFe5_5ahash7convertShNtB5_13ReadFromSlice8read_u328as_arraypEB7_
FN:56,_RINvNvXNtCsjRf07LucFe5_5ahash7convertShNtB5_13ReadFromSlice8read_u648as_arraypEB7_
FN:56,_RINvNvXNtCsjRf07LucFe5_5ahash7convertShNtB5_13ReadFromSlice9read_u1288as_arraypEB7_
FN:105,_RNvXNtCsjRf07LucFe5_5ahash7convertShNtB2_13ReadFromSlice11read_u128x2
FN:111,_RNvXNtCsjRf07LucFe5_5ahash7convertShNtB2_13ReadFromSlice11read_u128x4
FN:117,_RNvXNtCsjRf07LucFe5_5ahash7convertShNtB2_13ReadFromSlice13read_last_u16
FN:141,_RNvXNtCsjRf07LucFe5_5ahash7convertShNtB2_13ReadFromSlice16read_last_u128x2
FN:147,_RNvXNtCsjRf07LucFe5_5ahash7convertShNtB2_13ReadFromSlice16read_last_u128x4
FN:15,_RNvXs0_NtCsjRf07LucFe5_5ahash7convertAhj40_INtB5_7ConvertAoj4_E7convert
FN:9,_RNvXs1_NtCsjRf07LucFe5_5ahash7convertAoj2_INtB5_7ConvertAyj4_E7convert
FN:15,_RNvXs2_NtCsjRf07LucFe5_5ahash7convertAyj4_INtB5_7ConvertAoj2_E7convert
FN:9,_RNvXs3_NtCsjRf07LucFe5_5ahash7convertAoj2_INtB5_7ConvertAhj20_E7convert
FN:15,_RNvXs4_NtCsjRf07LucFe5_5ahash7convertAhj20_INtB5_7ConvertAoj2_E7convert
FN:26,_RNvXs7_NtCsjRf07LucFe5_5ahash7convertoINtB5_7ConvertAhj10_E7convert
FN:9,_RNvXs9_NtCsjRf07LucFe5_5ahash7convertAyj2_INtB5_7ConvertAmj4_E7convert
FN:9,_RNvXs_NtCsjRf07LucFe5_5ahash7convertAoj4_INtB4_7ConvertAhj40_E7convert
FN:15,_RNvXsa_NtCsjRf07LucFe5_5ahash7convertAmj4_INtB5_7ConvertAyj2_E7convert
FN:26,_RNvXsb_NtCsjRf07LucFe5_5ahash7convertyINtB5_7ConvertAhj8_E7convert
FN:26,_RNvXsd_NtCsjRf07LucFe5_5ahash7convertmINtB5_7ConvertAhj4_E7convert
FN:26,_RNvXsf_NtCsjRf07LucFe5_5ahash7converttINtB5_7ConvertAhj2_E7convert
FN:9,_RNvXsh_NtCsjRf07LucFe5_5ahash7convertAAyj4_j2_INtB5_7ConvertAhj40_E7convert
FNDA:0,_RINvNvXNtCsjRf07LucFe5_5ahash7convertShNtB5_13ReadFromSlice13read_last_u328as_arrayhECselVtgDpzSu1_4cdDB
FNDA:0,_RINvNvXNtCsjRf07LucFe5_5ahash7convertShNtB5_13ReadFromSlice13read_last_u648as_arrayhECselVtgDpzSu1_4cdDB
FNDA:0,_RINvNvXNtCsjRf07LucFe5_5ahash7convertShNtB5_13ReadFromSlice14read_last_u1288as_arrayhECselVtgDpzSu1_4cdDB
FNDA:0,_RINvNvXNtCsjRf07LucFe5_5ahash7convertShNtB5_13ReadFromSlice8read_u168as_arrayhECselVtgDpzSu1_4cdDB
FNDA:0,_RINvNvXNtCsjRf07LucFe5_5ahash7convertShNtB5_13ReadFromSlice8read_u328as_arrayhECselVtgDpzSu1_4cdDB
FNDA:0,_RINvNvXNtCsjRf07LucFe5_5ahash7convertShNtB5_13ReadFromSlice8read_u648as_arrayhECselVtgDpzSu1_4cdDB
FNDA:0,_RINvNvXNtCsjRf07LucFe5_5ahash7convertShNtB5_13ReadFromSlice9read_u1288as_arrayhECselVtgDpzSu1_4cdDB
FNDA:0,_RNvXNtCsjRf07LucFe5_5ahash7convertShNtB2_13ReadFromSlice13read_last_u32
FNDA:0,_RNvXNtCsjRf07LucFe5_5ahash7convertShNtB2_13ReadFromSlice13read_last_u64
FNDA:0,_RNvXNtCsjRf07LucFe5_5ahash7convertShNtB2_13ReadFromSlice14read_last_u128
FNDA:0,_RNvXNtCsjRf07LucFe5_5ahash7convertShNtB2_13ReadFromSlice8read_u16
FNDA:0,_RNvXNtCsjRf07LucFe5_5ahash7convertShNtB2_13ReadFromSlice8read_u32
FNDA:0,_RNvXNtCsjRf07LucFe5_5ahash7convertShNtB2_13ReadFromSlice8read_u64
FNDA:0,_RNvXNtCsjRf07LucFe5_5ahash7convertShNtB2_13ReadFromSlice9read_u128
FNDA:0,_RNvXs5_NtCsjRf07LucFe5_5ahash7convertoINtB5_7ConvertAyj2_E7convert
FNDA:0,_RNvXs6_NtCsjRf07LucFe5_5ahash7convertAyj2_INtB5_7ConvertoE7convert
FNDA:0,_RNvXs8_NtCsjRf07LucFe5_5ahash7convertAhj10_INtB5_7ConvertoE7convert
FNDA:0,_RNvXsc_NtCsjRf07LucFe5_5ahash7convertAhj8_INtB5_7ConvertyE7convert
FNDA:0,_RNvXse_NtCsjRf07LucFe5_5ahash7convertAhj4_INtB5_7ConvertmE7convert
FNDA:0,_RNvXsg_NtCsjRf07LucFe5_5ahash7convertAhj2_INtB5_7ConverttE7convert
FNDA:0,_RNvXsi_NtCsjRf07LucFe5_5ahash7convertAhj40_INtB5_7ConvertAAyj4_j2_E7convert
FNDA:0,_RINvNvXNtCsjRf07LucFe5_5ahash7convertShNtB5_13ReadFromSlice11read_u128x28as_arraypEB7_
FNDA:0,_RINvNvXNtCsjRf07LucFe5_5ahash7convertShNtB5_13ReadFromSlice11read_u128x48as_arraypEB7_
FNDA:0,_RINvNvXNtCsjRf07LucFe5_5ahash7convertShNtB5_13ReadFromSlice13read_last_u168as_arraypEB7_
FNDA:0,_RINvNvXNtCsjRf07LucFe5_5ahash7convertShNtB5_13ReadFromSlice13read_last_u328as_arraypEB7_
FNDA:0,_RINvNvXNtCsjRf07LucFe5_5ahash7convertShNtB5_13ReadFromSlice13read_last_u648as_arraypEB7_
FNDA:0,_RINvNvXNtCsjRf07LucFe5_5ahash7convertShNtB5_13ReadFromSlice14read_last_u1288as_arraypEB7_
FNDA:0,_RINvNvXNtCsjRf07LucFe5_5ahash7convertShNtB5_13ReadFromSlice16read_last_u128x28as_arraypEB7_
FNDA:0,_RINvNvXNtCsjRf07LucFe5_5ahash7convertShNtB5_13ReadFromSlice16read_last_u128x48as_arraypEB7_
FNDA:0,_RINvNvXNtCsjRf07LucFe5_5ahash7convertShNtB5_13ReadFromSlice8read_u168as_arraypEB7_
FNDA:0,_RINvNvXNtCsjRf07LucFe5_5ahash7convertShNtB5_13ReadFromSlice8read_u328as_arraypEB7_
FNDA:0,_RINvNvXNtCsjRf07LucFe5_5ahash7convertShNtB5_13ReadFromSlice8read_u648as_arraypEB7_
FNDA:0,_RINvNvXNtCsjRf07LucFe5_5ahash7convertShNtB5_13ReadFromSlice9read_u1288as_arraypEB7_
FNDA:0,_RNvXNtCsjRf07LucFe5_5ahash7convertShNtB2_13ReadFromSlice11read_u128x2
FNDA:0,_RNvXNtCsjRf07LucFe5_5ahash7convertShNtB2_13ReadFromSlice11read_u128x4
FNDA:0,_RNvXNtCsjRf07LucFe5_5ahash7convertShNtB2_13ReadFromSlice13read_last_u16
FNDA:0,_RNvXNtCsjRf07LucFe5_5ahash7convertShNtB2_13ReadFromSlice16read_last_u128x2
FNDA:0,_RNvXNtCsjRf07LucFe5_5ahash7convertShNtB2_13ReadFromSlice16read_last_u128x4
FNDA:0,_RNvXs0_NtCsjRf07LucFe5_5ahash7convertAhj40_INtB5_7ConvertAoj4_E7convert
FNDA:0,_RNvXs1_NtCsjRf07LucFe5_5ahash7convertAoj2_INtB5_7ConvertAyj4_E7convert
FNDA:0,_RNvXs2_NtCsjRf07LucFe5_5ahash7convertAyj4_INtB5_7ConvertAoj2_E7convert
FNDA:0,_RNvXs3_NtCsjRf07LucFe5_5ahash7convertAoj2_INtB5_7ConvertAhj20_E7convert
FNDA:0,_RNvXs4_NtCsjRf07LucFe5_5ahash7convertAhj20_INtB5_7ConvertAoj2_E7convert
FNDA:0,_RNvXs7_NtCsjRf07LucFe5_5ahash7convertoINtB5_7ConvertAhj10_E7convert
FNDA:0,_RNvXs9_NtCsjRf07LucFe5_5ahash7convertAyj2_INtB5_7ConvertAmj4_E7convert
FNDA:0,_RNvXs_NtCsjRf07LucFe5_5ahash7convertAoj4_INtB4_7ConvertAhj40_E7convert
FNDA:0,_RNvXsa_NtCsjRf07LucFe5_5ahash7convertAmj4_INtB5_7ConvertAyj2_E7convert
FNDA:0,_RNvXsb_NtCsjRf07LucFe5_5ahash7convertyINtB5_7ConvertAhj8_E7convert
FNDA:0,_RNvXsd_NtCsjRf07LucFe5_5ahash7convertmINtB5_7ConvertAhj4_E7convert
FNDA:0,_RNvXsf_NtCsjRf07LucFe5_5ahash7converttINtB5_7ConvertAhj2_E7convert
FNDA:0,_RNvXsh_NtCsjRf07LucFe5_5ahash7convertAAyj4_j2_INtB5_7ConvertAhj40_E7convert
FNF:17
FNH:0
DA:9,0
DA:10,0
DA:11,0
DA:15,0
DA:16,0
DA:17,0
DA:26,0
DA:27,0
DA:28,0
DA:32,0
DA:33,0
DA:34,0
DA:56,0
DA:57,0
DA:58,0
DA:81,0
DA:82,0
DA:83,0
DA:84,0
DA:87,0
DA:88,0
DA:89,0
DA:90,0
DA:93,0
DA:94,0
DA:95,0
DA:96,0
DA:99,0
DA:100,0
DA:101,0
DA:102,0
DA:105,0
DA:106,0
DA:107,0
DA:108,0
DA:111,0
DA:112,0
DA:113,0
DA:114,0
DA:117,0
DA:118,0
DA:119,0
DA:120,0
DA:123,0
DA:124,0
DA:125,0
DA:126,0
DA:129,0
DA:130,0
DA:131,0
DA:132,0
DA:135,0
DA:136,0
DA:137,0
DA:138,0
DA:141,0
DA:142,0
DA:143,0
DA:144,0
DA:147,0
DA:148,0
DA:149,0
DA:150,0
BRF:0
BRH:0
LF:63
LH:0
end_of_record
SF:/Users/kuangtalin/.cargo/registry/src/index.crates.io-1949cf8c6b5b557f/ahash-0.8.12/src/fallback_hash.rs
FN:111,_RNvMNtCsjRf07LucFe5_5ahash13fallback_hashNtB2_7AHasher12large_update
FN:57,_RNvMNtCsjRf07LucFe5_5ahash13fallback_hashNtB2_7AHasher17from_random_stateCselVtgDpzSu1_4cdDB
FN:95,_RNvMNtCsjRf07LucFe5_5ahash13fallback_hashNtB2_7AHasher6update
FN:159,_RNvXs_NtCsjRf07LucFe5_5ahash13fallback_hashNtB4_7AHasherNtNtCskumHb0IaX0X_4core4hash6Hasher11write_usizeCselVtgDpzSu1_4cdDB
FN:171,_RNvXs_NtCsjRf07LucFe5_5ahash13fallback_hashNtB4_7AHasherNtNtCskumHb0IaX0X_4core4hash6Hasher5writeCselVtgDpzSu1_4cdDB
FN:196,_RNvXs_NtCsjRf07LucFe5_5ahash13fallback_hashNtB4_7AHasherNtNtCskumHb0IaX0X_4core4hash6Hasher6finishCselVtgDpzSu1_4cdDB
FN:129,_RNvXs_NtCsjRf07LucFe5_5ahash13fallback_hashNtB4_7AHasherNtNtCskumHb0IaX0X_4core4hash6Hasher8write_u8CselVtgDpzSu1_4cdDB
FN:139,_RNvXs_NtCsjRf07LucFe5_5ahash13fallback_hashNtB4_7AHasherNtNtCskumHb0IaX0X_4core4hash6Hasher9write_u32CselVtgDpzSu1_4cdDB
FN:144,_RNvXs_NtCsjRf07LucFe5_5ahash13fallback_hashNtB4_7AHasherNtNtCskumHb0IaX0X_4core4hash6Hasher9write_u64CselVtgDpzSu1_4cdDB
FN:57,_RNvMNtCsjRf07LucFe5_5ahash13fallback_hashNtB2_7AHasher17from_random_stateB4_
FN:159,_RNvXs_NtCsjRf07LucFe5_5ahash13fallback_hashNtB4_7AHasherNtNtCskumHb0IaX0X_4core4hash6Hasher11write_usizeB6_
FN:196,_RNvXs_NtCsjRf07LucFe5_5ahash13fallback_hashNtB4_7AHasherNtNtCskumHb0IaX0X_4core4hash6Hasher6finishB6_
FN:144,_RNvXs_NtCsjRf07LucFe5_5ahash13fallback_hashNtB4_7AHasherNtNtCskumHb0IaX0X_4core4hash6Hasher9write_u64B6_
FN:33,_RNvMNtCsjRf07LucFe5_5ahash13fallback_hashNtB2_7AHasher13new_with_keysB4_
FN:45,_RNvMNtCsjRf07LucFe5_5ahash13fallback_hashNtB2_7AHasher14test_with_keys
FN:149,_RNvXs_NtCsjRf07LucFe5_5ahash13fallback_hashNtB4_7AHasherNtNtCskumHb0IaX0X_4core4hash6Hasher10write_u128B6_
FN:171,_RNvXs_NtCsjRf07LucFe5_5ahash13fallback_hashNtB4_7AHasherNtNtCskumHb0IaX0X_4core4hash6Hasher5writeB6_
FN:129,_RNvXs_NtCsjRf07LucFe5_5ahash13fallback_hashNtB4_7AHasherNtNtCskumHb0IaX0X_4core4hash6Hasher8write_u8B6_
FN:134,_RNvXs_NtCsjRf07LucFe5_5ahash13fallback_hashNtB4_7AHasherNtNtCskumHb0IaX0X_4core4hash6Hasher9write_u16B6_
FN:139,_RNvXs_NtCsjRf07LucFe5_5ahash13fallback_hashNtB4_7AHasherNtNtCskumHb0IaX0X_4core4hash6Hasher9write_u32B6_
FNDA:0,_RNvMNtCsjRf07LucFe5_5ahash13fallback_hashNtB2_7AHasher12large_update
FNDA:0,_RNvMNtCsjRf07LucFe5_5ahash13fallback_hashNtB2_7AHasher17from_random_stateCselVtgDpzSu1_4cdDB
FNDA:0,_RNvMNtCsjRf07LucFe5_5ahash13fallback_hashNtB2_7AHasher6update
FNDA:0,_RNvXs_NtCsjRf07LucFe5_5ahash13fallback_hashNtB4_7AHasherNtNtCskumHb0IaX0X_4core4hash6Hasher11write_usizeCselVtgDpzSu1_4cdDB
FNDA:0,_RNvXs_NtCsjRf07LucFe5_5ahash13fallback_hashNtB4_7AHasherNtNtCskumHb0IaX0X_4core4hash6Hasher5writeCselVtgDpzSu1_4cdDB
FNDA:0,_RNvXs_NtCsjRf07LucFe5_5ahash13fallback_hashNtB4_7AHasherNtNtCskumHb0IaX0X_4core4hash6Hasher6finishCselVtgDpzSu1_4cdDB
FNDA:0,_RNvXs_NtCsjRf07LucFe5_5ahash13fallback_hashNtB4_7AHasherNtNtCskumHb0IaX0X_4core4hash6Hasher8write_u8CselVtgDpzSu1_4cdDB
FNDA:0,_RNvXs_NtCsjRf07LucFe5_5ahash13fallback_hashNtB4_7AHasherNtNtCskumHb0IaX0X_4core4hash6Hasher9write_u32CselVtgDpzSu1_4cdDB
FNDA:0,_RNvXs_NtCsjRf07LucFe5_5ahash13fallback_hashNtB4_7AHasherNtNtCskumHb0IaX0X_4core4hash6Hasher9write_u64CselVtgDpzSu1_4cdDB
FNDA:0,_RNvMNtCsjRf07LucFe5_5ahash13fallback_hashNtB2_7AHasher17from_random_stateB4_
FNDA:0,_RNvXs_NtCsjRf07LucFe5_5ahash13fallback_hashNtB4_7AHasherNtNtCskumHb0IaX0X_4core4hash6Hasher11write_usizeB6_
FNDA:0,_RNvXs_NtCsjRf07LucFe5_5ahash13fallback_hashNtB4_7AHasherNtNtCskumHb0IaX0X_4core4hash6Hasher6finishB6_
FNDA:0,_RNvXs_NtCsjRf07LucFe5_5ahash13fallback_hashNtB4_7AHasherNtNtCskumHb0IaX0X_4core4hash6Hasher9write_u64B6_
FNDA:0,_RNvMNtCsjRf07LucFe5_5ahash13fallback_hashNtB2_7AHasher13new_with_keysB4_
FNDA:0,_RNvMNtCsjRf07LucFe5_5ahash13fallback_hashNtB2_7AHasher14test_with_keys
FNDA:0,_RNvXs_NtCsjRf07LucFe5_5ahash13fallback_hashNtB4_7AHasherNtNtCskumHb0IaX0X_4core4hash6Hasher10write_u128B6_
FNDA:0,_RNvXs_NtCsjRf07LucFe5_5ahash13fallback_hashNtB4_7AHasherNtNtCskumHb0IaX0X_4core4hash6Hasher5writeB6_
FNDA:0,_RNvXs_NtCsjRf07LucFe5_5ahash13fallback_hashNtB4_7AHasherNtNtCskumHb0IaX0X_4core4hash6Hasher8write_u8B6_
FNDA:0,_RNvXs_NtCsjRf07LucFe5_5ahash13fallback_hashNtB4_7AHasherNtNtCskumHb0IaX0X_4core4hash6Hasher9write_u16B6_
FNDA:0,_RNvXs_NtCsjRf07LucFe5_5ahash13fallback_hashNtB4_7AHasherNtNtCskumHb0IaX0X_4core4hash6Hasher9write_u32B6_
FNF:13
FNH:0
DA:33,0
DA:34,0
DA:35,0
DA:36,0
DA:37,0
DA:38,0
DA:39,0
DA:40,0
DA:41,0
DA:42,0
DA:45,0
DA:46,0
DA:47,0
DA:48,0
DA:49,0
DA:50,0
DA:51,0
DA:52,0
DA:53,0
DA:57,0
DA:58,0
DA:59,0
DA:60,0
DA:61,0
DA:62,0
DA:63,0
DA:95,0
DA:96,0
DA:97,0
DA:111,0
DA:112,0
DA:113,0
DA:114,0
DA:115,0
DA:129,0
DA:130,0
DA:131,0
DA:134,0
DA:135,0
DA:136,0
DA:139,0
DA:140,0
DA:141,0
DA:144,0
DA:145,0
DA:146,0
DA:149,0
DA:150,0
DA:151,0
DA:159,0
DA:160,0
DA:161,0
DA:171,0
DA:172,0
DA:173,0
DA:175,0
DA:177,0
DA:178,0
DA:179,0
DA:180,0
DA:181,0
DA:182,0
DA:183,0
DA:184,0
DA:185,0
DA:186,0
DA:187,0
DA:188,0
DA:189,0
DA:190,0
DA:191,0
DA:192,0
DA:193,0
DA:196,0
DA:197,0
DA:198,0
DA:199,0
BRF:0
BRH:0
LF:77
LH:0
end_of_record
SF:/Users/kuangtalin/.cargo/registry/src/index.crates.io-1949cf8c6b5b557f/ahash-0.8.12/src/hash_map.rs
FN:127,_RINvMs3_NtCsjRf07LucFe5_5ahash8hash_mapINtB6_8AHashMappppE13get_key_valuepEB8_
FN:102,_RINvMs3_NtCsjRf07LucFe5_5ahash8hash_mapINtB6_8AHashMappppE3getpEB8_
FN:269,_RINvMs3_NtCsjRf07LucFe5_5ahash8hash_mapINtB6_8AHashMappppE6removepEB8_
FN:154,_RINvMs3_NtCsjRf07LucFe5_5ahash8hash_mapINtB6_8AHashMappppE7get_mutpEB8_
FN:353,_RINvXININtCsjRf07LucFe5_5ahash8hash_mapsb_0ppEINtB6_8AHashMapppEINtNtNtNtCskumHb0IaX0X_4core4iter6traits7collect12FromIteratorTppEE9from_iterpEB8_
FN:390,_RINvXININtCsjRf07LucFe5_5ahash8hash_mapsf_0pppEINtB6_8AHashMappppEINtNtNtNtCskumHb0IaX0X_4core4iter6traits7collect6ExtendTppEE6extendpEB8_
FN:402,_RINvXININtCsjRf07LucFe5_5ahash8hash_mapsg_0pppEINtB6_8AHashMappppEINtNtNtNtCskumHb0IaX0X_4core4iter6traits7collect6ExtendTRpRpEE6extendpEB8_
FN:62,_RNvMs1_NtCsjRf07LucFe5_5ahash8hash_mapINtB5_8AHashMapppE13with_capacityB7_
FN:56,_RNvMs1_NtCsjRf07LucFe5_5ahash8hash_mapINtB5_8AHashMapppE3newB7_
FN:71,_RNvMs2_NtCsjRf07LucFe5_5ahash8hash_mapINtB5_8AHashMappppE11with_hasherB7_
FN:75,_RNvMs2_NtCsjRf07LucFe5_5ahash8hash_mapINtB5_8AHashMappppE24with_capacity_and_hasherB7_
FN:247,_RNvMs3_NtCsjRf07LucFe5_5ahash8hash_mapINtB5_8AHashMappppE11into_valuesB7_
FN:185,_RNvMs3_NtCsjRf07LucFe5_5ahash8hash_mapINtB5_8AHashMappppE6insertB7_
FN:216,_RNvMs3_NtCsjRf07LucFe5_5ahash8hash_mapINtB5_8AHashMappppE9into_keysB7_
FN:24,_RNvXININtCsjRf07LucFe5_5ahash8hash_map0ppEINtB5_8AHashMapppEINtNtCskumHb0IaX0X_4core7convert4FromINtNtNtNtCsfiKLhsWjRsE_3std11collections4hash3map7HashMapppNtNtB7_12random_state11RandomStateEE4fromB7_
FN:48,_RNvXININtCsjRf07LucFe5_5ahash8hash_maps0_0ppEINtB5_8AHashMapppEINtNtCskumHb0IaX0X_4core7convert4IntoINtNtNtNtCsfiKLhsWjRsE_3std11collections4hash3map7HashMapppNtNtB7_12random_state11RandomStateEE4intoB7_
FN:280,_RNvXININtCsjRf07LucFe5_5ahash8hash_maps4_0pppEINtB5_8AHashMappppENtNtNtCskumHb0IaX0X_4core3ops5deref5Deref5derefB7_
FN:286,_RNvXININtCsjRf07LucFe5_5ahash8hash_maps5_0pppEINtB5_8AHashMappppENtNtNtCskumHb0IaX0X_4core3ops5deref8DerefMut9deref_mutB7_
FN:304,_RNvXININtCsjRf07LucFe5_5ahash8hash_maps7_0pppEINtB5_8AHashMappppENtNtCskumHb0IaX0X_4core3cmp9PartialEq2eqB7_
FN:331,_RNvXININtCsjRf07LucFe5_5ahash8hash_maps9_0ppppEINtB5_8AHashMappppEINtNtNtCskumHb0IaX0X_4core3ops5index5IndexRpE5indexB7_
FN:42,_RNvXININtCsjRf07LucFe5_5ahash8hash_maps_0ppKpEINtB5_8AHashMapppEINtNtCskumHb0IaX0X_4core7convert4FromATppEpE4fromB7_
FN:342,_RNvXININtCsjRf07LucFe5_5ahash8hash_mapsa_0pppEINtB5_8AHashMappppENtNtCskumHb0IaX0X_4core3fmt5Debug3fmtB7_
FN:363,_RNvXININtCsjRf07LucFe5_5ahash8hash_mapsc_0pppERINtB5_8AHashMappppENtNtNtNtCskumHb0IaX0X_4core4iter6traits7collect12IntoIterator9into_iterB7_
FN:371,_RNvXININtCsjRf07LucFe5_5ahash8hash_mapsd_0pppEQINtB5_8AHashMappppENtNtNtNtCskumHb0IaX0X_4core4iter6traits7collect12IntoIterator9into_iterB7_
FN:379,_RNvXININtCsjRf07LucFe5_5ahash8hash_mapse_0pppEINtB5_8AHashMappppENtNtNtNtCskumHb0IaX0X_4core4iter6traits7collect12IntoIterator9into_iterB7_
FN:413,_RNvXININtCsjRf07LucFe5_5ahash8hash_mapsh_0ppEINtB5_8AHashMapppENtNtCskumHb0IaX0X_4core7default7Default7defaultB7_
FNDA:0,_RINvMs3_NtCsjRf07LucFe5_5ahash8hash_mapINtB6_8AHashMappppE13get_key_valuepEB8_
FNDA:0,_RINvMs3_NtCsjRf07LucFe5_5ahash8hash_mapINtB6_8AHashMappppE3getpEB8_
FNDA:0,_RINvMs3_NtCsjRf07LucFe5_5ahash8hash_mapINtB6_8AHashMappppE6removepEB8_
FNDA:0,_RINvMs3_NtCsjRf07LucFe5_5ahash8hash_mapINtB6_8AHashMappppE7get_mutpEB8_
FNDA:0,_RINvXININtCsjRf07LucFe5_5ahash8hash_mapsb_0ppEINtB6_8AHashMapppEINtNtNtNtCskumHb0IaX0X_4core4iter6traits7collect12FromIteratorTppEE9from_iterpEB8_
FNDA:0,_RINvXININtCsjRf07LucFe5_5ahash8hash_mapsf_0pppEINtB6_8AHashMappppEINtNtNtNtCskumHb0IaX0X_4core4iter6traits7collect6ExtendTppEE6extendpEB8_
FNDA:0,_RINvXININtCsjRf07LucFe5_5ahash8hash_mapsg_0pppEINtB6_8AHashMappppEINtNtNtNtCskumHb0IaX0X_4core4iter6traits7collect6ExtendTRpRpEE6extendpEB8_
FNDA:0,_RNvMs1_NtCsjRf07LucFe5_5ahash8hash_mapINtB5_8AHashMapppE13with_capacityB7_
FNDA:0,_RNvMs1_NtCsjRf07LucFe5_5ahash8hash_mapINtB5_8AHashMapppE3newB7_
FNDA:0,_RNvMs2_NtCsjRf07LucFe5_5ahash8hash_mapINtB5_8AHashMappppE11with_hasherB7_
FNDA:0,_RNvMs2_NtCsjRf07LucFe5_5ahash8hash_mapINtB5_8AHashMappppE24with_capacity_and_hasherB7_
FNDA:0,_RNvMs3_NtCsjRf07LucFe5_5ahash8hash_mapINtB5_8AHashMappppE11into_valuesB7_
FNDA:0,_RNvMs3_NtCsjRf07LucFe5_5ahash8hash_mapINtB5_8AHashMappppE6insertB7_
FNDA:0,_RNvMs3_NtCsjRf07LucFe5_5ahash8hash_mapINtB5_8AHashMappppE9into_keysB7_
FNDA:0,_RNvXININtCsjRf07LucFe5_5ahash8hash_map0ppEINtB5_8AHashMapppEINtNtCskumHb0IaX0X_4core7convert4FromINtNtNtNtCsfiKLhsWjRsE_3std11collections4hash3map7HashMapppNtNtB7_12random_state11RandomStateEE4fromB7_
FNDA:0,_RNvXININtCsjRf07LucFe5_5ahash8hash_maps0_0ppEINtB5_8AHashMapppEINtNtCskumHb0IaX0X_4core7convert4IntoINtNtNtNtCsfiKLhsWjRsE_3std11collections4hash3map7HashMapppNtNtB7_12random_state11RandomStateEE4intoB7_
FNDA:0,_RNvXININtCsjRf07LucFe5_5ahash8hash_maps4_0pppEINtB5_8AHashMappppENtNtNtCskumHb0IaX0X_4core3ops5deref5Deref5derefB7_
FNDA:0,_RNvXININtCsjRf07LucFe5_5ahash8hash_maps5_0pppEINtB5_8AHashMappppENtNtNtCskumHb0IaX0X_4core3ops5deref8DerefMut9deref_mutB7_
FNDA:0,_RNvXININtCsjRf07LucFe5_5ahash8hash_maps7_0pppEINtB5_8AHashMappppENtNtCskumHb0IaX0X_4core3cmp9PartialEq2eqB7_
FNDA:0,_RNvXININtCsjRf07LucFe5_5ahash8hash_maps9_0ppppEINtB5_8AHashMappppEINtNtNtCskumHb0IaX0X_4core3ops5index5IndexRpE5indexB7_
FNDA:0,_RNvXININtCsjRf07LucFe5_5ahash8hash_maps_0ppKpEINtB5_8AHashMapppEINtNtCskumHb0IaX0X_4core7convert4FromATppEpE4fromB7_
FNDA:0,_RNvXININtCsjRf07LucFe5_5ahash8hash_mapsa_0pppEINtB5_8AHashMappppENtNtCskumHb0IaX0X_4core3fmt5Debug3fmtB7_
FNDA:0,_RNvXININtCsjRf07LucFe5_5ahash8hash_mapsc_0pppERINtB5_8AHashMappppENtNtNtNtCskumHb0IaX0X_4core4iter6traits7collect12IntoIterator9into_iterB7_
FNDA:0,_RNvXININtCsjRf07LucFe5_5ahash8hash_mapsd_0pppEQINtB5_8AHashMappppENtNtNtNtCskumHb0IaX0X_4core4iter6traits7collect12IntoIterator9into_iterB7_
FNDA:0,_RNvXININtCsjRf07LucFe5_5ahash8hash_mapse_0pppEINtB5_8AHashMappppENtNtNtNtCskumHb0IaX0X_4core4iter6traits7collect12IntoIterator9into_iterB7_
FNDA:0,_RNvXININtCsjRf07LucFe5_5ahash8hash_mapsh_0ppEINtB5_8AHashMapppENtNtCskumHb0IaX0X_4core7default7Default7defaultB7_
FNF:26
FNH:0
DA:24,0
DA:25,0
DA:26,0
DA:42,0
DA:43,0
DA:44,0
DA:48,0
DA:49,0
DA:50,0
DA:56,0
DA:57,0
DA:58,0
DA:62,0
DA:63,0
DA:64,0
DA:71,0
DA:72,0
DA:73,0
DA:75,0
DA:76,0
DA:77,0
DA:102,0
DA:103,0
DA:104,0
DA:105,0
DA:107,0
DA:108,0
DA:127,0
DA:128,0
DA:129,0
DA:130,0
DA:132,0
DA:133,0
DA:154,0
DA:155,0
DA:156,0
DA:157,0
DA:159,0
DA:160,0
DA:185,0
DA:186,0
DA:187,0
DA:216,0
DA:217,0
DA:218,0
DA:247,0
DA:248,0
DA:249,0
DA:269,0
DA:270,0
DA:271,0
DA:272,0
DA:274,0
DA:275,0
DA:280,0
DA:281,0
DA:282,0
DA:286,0
DA:287,0
DA:288,0
DA:304,0
DA:305,0
DA:306,0
DA:331,0
DA:332,0
DA:333,0
DA:342,0
DA:343,0
DA:344,0
DA:353,0
DA:354,0
DA:355,0
DA:356,0
DA:357,0
DA:363,0
DA:364,0
DA:365,0
DA:371,0
DA:372,0
DA:373,0
DA:379,0
DA:380,0
DA:381,0
DA:390,0
DA:391,0
DA:392,0
DA:402,0
DA:403,0
DA:404,0
DA:413,0
DA:414,0
DA:415,0
BRF:0
BRH:0
LF:92
LH:0
end_of_record
SF:/Users/kuangtalin/.cargo/registry/src/index.crates.io-1949cf8c6b5b557f/ahash-0.8.12/src/hash_set.rs
FN:251,_RINvXININtCsjRf07LucFe5_5ahash8hash_setsc_0pEINtB6_8AHashSetpEINtNtNtNtCskumHb0IaX0X_4core4iter6traits7collect12FromIteratorpE9from_iterpEB8_
FN:280,_RINvXININtCsjRf07LucFe5_5ahash8hash_setsf_0ppEINtB6_8AHashSetppEINtNtNtNtCskumHb0IaX0X_4core4iter6traits7collect6ExtendpE6extendpEB8_
FN:291,_RINvXININtCsjRf07LucFe5_5ahash8hash_setsg_0ppEINtB6_8AHashSetppEINtNtNtNtCskumHb0IaX0X_4core4iter6traits7collect6ExtendRpE6extendpEB8_
FN:58,_RNvMs1_NtCsjRf07LucFe5_5ahash8hash_setINtB5_8AHashSetpE13with_capacityB7_
FN:52,_RNvMs1_NtCsjRf07LucFe5_5ahash8hash_setINtB5_8AHashSetpE3newB7_
FN:67,_RNvMs2_NtCsjRf07LucFe5_5ahash8hash_setINtB5_8AHashSetppE11with_hasherB7_
FN:71,_RNvMs2_NtCsjRf07LucFe5_5ahash8hash_setINtB5_8AHashSetppE24with_capacity_and_hasherB7_
FN:20,_RNvXININtCsjRf07LucFe5_5ahash8hash_set0pEINtB5_8AHashSetpEINtNtCskumHb0IaX0X_4core7convert4FromINtNtNtNtCsfiKLhsWjRsE_3std11collections4hash3set7HashSetpNtNtB7_12random_state11RandomStateEE4fromB7_
FN:44,_RNvXININtCsjRf07LucFe5_5ahash8hash_sets0_0pEINtB5_8AHashSetpEINtNtCskumHb0IaX0X_4core7convert4IntoINtNtNtNtCsfiKLhsWjRsE_3std11collections4hash3set7HashSetpNtNtB7_12random_state11RandomStateEE4intoB7_
FN:78,_RNvXININtCsjRf07LucFe5_5ahash8hash_sets3_0ppEINtB5_8AHashSetppENtNtNtCskumHb0IaX0X_4core3ops5deref5Deref5derefB7_
FN:84,_RNvXININtCsjRf07LucFe5_5ahash8hash_sets4_0ppEINtB5_8AHashSetppENtNtNtCskumHb0IaX0X_4core3ops5deref8DerefMut9deref_mutB7_
FN:94,_RNvXININtCsjRf07LucFe5_5ahash8hash_sets5_0ppEINtB5_8AHashSetppENtNtCskumHb0IaX0X_4core3cmp9PartialEq2eqB7_
FN:133,_RNvXININtCsjRf07LucFe5_5ahash8hash_sets7_0ppERINtB5_8AHashSetppENtNtNtCskumHb0IaX0X_4core3ops3bit5BitOr5bitorB7_
FN:165,_RNvXININtCsjRf07LucFe5_5ahash8hash_sets8_0ppERINtB5_8AHashSetppENtNtNtCskumHb0IaX0X_4core3ops3bit6BitAnd6bitandB7_
FN:197,_RNvXININtCsjRf07LucFe5_5ahash8hash_sets9_0ppERINtB5_8AHashSetppENtNtNtCskumHb0IaX0X_4core3ops3bit6BitXor6bitxorB7_
FN:38,_RNvXININtCsjRf07LucFe5_5ahash8hash_sets_0pKpEINtB5_8AHashSetpEINtNtCskumHb0IaX0X_4core7convert4FromAppE4fromB7_
FN:229,_RNvXININtCsjRf07LucFe5_5ahash8hash_setsa_0ppERINtB5_8AHashSetppENtNtNtCskumHb0IaX0X_4core3ops5arith3Sub3subB7_
FN:239,_RNvXININtCsjRf07LucFe5_5ahash8hash_setsb_0ppEINtB5_8AHashSetppENtNtCskumHb0IaX0X_4core3fmt5Debug3fmtB7_
FN:261,_RNvXININtCsjRf07LucFe5_5ahash8hash_setsd_0ppERINtB5_8AHashSetppENtNtNtNtCskumHb0IaX0X_4core4iter6traits7collect12IntoIterator9into_iterB7_
FN:269,_RNvXININtCsjRf07LucFe5_5ahash8hash_setse_0ppEINtB5_8AHashSetppENtNtNtNtCskumHb0IaX0X_4core4iter6traits7collect12IntoIterator9into_iterB7_
FN:303,_RNvXININtCsjRf07LucFe5_5ahash8hash_setsh_0pEINtB5_8AHashSetpENtNtCskumHb0IaX0X_4core7default7Default7defaultB7_
FNDA:0,_RINvXININtCsjRf07LucFe5_5ahash8hash_setsc_0pEINtB6_8AHashSetpEINtNtNtNtCskumHb0IaX0X_4core4iter6traits7collect12FromIteratorpE9from_iterpEB8_
FNDA:0,_RINvXININtCsjRf07LucFe5_5ahash8hash_setsf_0ppEINtB6_8AHashSetppEINtNtNtNtCskumHb0IaX0X_4core4iter6traits7collect6ExtendpE6extendpEB8_
FNDA:0,_RINvXININtCsjRf07LucFe5_5ahash8hash_setsg_0ppEINtB6_8AHashSetppEINtNtNtNtCskumHb0IaX0X_4core4iter6traits7collect6ExtendRpE6extendpEB8_
FNDA:0,_RNvMs1_NtCsjRf07LucFe5_5ahash8hash_setINtB5_8AHashSetpE13with_capacityB7_
FNDA:0,_RNvMs1_NtCsjRf07LucFe5_5ahash8hash_setINtB5_8AHashSetpE3newB7_
FNDA:0,_RNvMs2_NtCsjRf07LucFe5_5ahash8hash_setINtB5_8AHashSetppE11with_hasherB7_
FNDA:0,_RNvMs2_NtCsjRf07LucFe5_5ahash8hash_setINtB5_8AHashSetppE24with_capacity_and_hasherB7_
FNDA:0,_RNvXININtCsjRf07LucFe5_5ahash8hash_set0pEINtB5_8AHashSetpEINtNtCskumHb0IaX0X_4core7convert4FromINtNtNtNtCsfiKLhsWjRsE_3std11collections4hash3set7HashSetpNtNtB7_12random_state11RandomStateEE4fromB7_
FNDA:0,_RNvXININtCsjRf07LucFe5_5ahash8hash_sets0_0pEINtB5_8AHashSetpEINtNtCskumHb0IaX0X_4core7convert4IntoINtNtNtNtCsfiKLhsWjRsE_3std11collections4hash3set7HashSetpNtNtB7_12random_state11RandomStateEE4intoB7_
FNDA:0,_RNvXININtCsjRf07LucFe5_5ahash8hash_sets3_0ppEINtB5_8AHashSetppENtNtNtCskumHb0IaX0X_4core3ops5deref5Deref5derefB7_
FNDA:0,_RNvXININtCsjRf07LucFe5_5ahash8hash_sets4_0ppEINtB5_8AHashSetppENtNtNtCskumHb0IaX0X_4core3ops5deref8DerefMut9deref_mutB7_
FNDA:0,_RNvXININtCsjRf07LucFe5_5ahash8hash_sets5_0ppEINtB5_8AHashSetppENtNtCskumHb0IaX0X_4core3cmp9PartialEq2eqB7_
FNDA:0,_RNvXININtCsjRf07LucFe5_5ahash8hash_sets7_0ppERINtB5_8AHashSetppENtNtNtCskumHb0IaX0X_4core3ops3bit5BitOr5bitorB7_
FNDA:0,_RNvXININtCsjRf07LucFe5_5ahash8hash_sets8_0ppERINtB5_8AHashSetppENtNtNtCskumHb0IaX0X_4core3ops3bit6BitAnd6bitandB7_
FNDA:0,_RNvXININtCsjRf07LucFe5_5ahash8hash_sets9_0ppERINtB5_8AHashSetppENtNtNtCskumHb0IaX0X_4core3ops3bit6BitXor6bitxorB7_
FNDA:0,_RNvXININtCsjRf07LucFe5_5ahash8hash_sets_0pKpEINtB5_8AHashSetpEINtNtCskumHb0IaX0X_4core7convert4FromAppE4fromB7_
FNDA:0,_RNvXININtCsjRf07LucFe5_5ahash8hash_setsa_0ppERINtB5_8AHashSetppENtNtNtCskumHb0IaX0X_4core3ops5arith3Sub3subB7_
FNDA:0,_RNvXININtCsjRf07LucFe5_5ahash8hash_setsb_0ppEINtB5_8AHashSetppENtNtCskumHb0IaX0X_4core3fmt5Debug3fmtB7_
FNDA:0,_RNvXININtCsjRf07LucFe5_5ahash8hash_setsd_0ppERINtB5_8AHashSetppENtNtNtNtCskumHb0IaX0X_4core4iter6traits7collect12IntoIterator9into_iterB7_
FNDA:0,_RNvXININtCsjRf07LucFe5_5ahash8hash_setse_0ppEINtB5_8AHashSetppENtNtNtNtCskumHb0IaX0X_4core4iter6traits7collect12IntoIterator9into_iterB7_
FNDA:0,_RNvXININtCsjRf07LucFe5_5ahash8hash_setsh_0pEINtB5_8AHashSetpENtNtCskumHb0IaX0X_4core7default7Default7defaultB7_
FNF:21
FNH:0
DA:20,0
DA:21,0
DA:22,0
DA:38,0
DA:39,0
DA:40,0
DA:44,0
DA:45,0
DA:46,0
DA:52,0
DA:53,0
DA:54,0
DA:58,0
DA:59,0
DA:60,0
DA:67,0
DA:68,0
DA:69,0
DA:71,0
DA:72,0
DA:73,0
DA:78,0
DA:79,0
DA:80,0
DA:84,0
DA:85,0
DA:86,0
DA:94,0
DA:95,0
DA:96,0
DA:133,0
DA:134,0
DA:135,0
DA:165,0
DA:166,0
DA:167,0
DA:197,0
DA:198,0
DA:199,0
DA:229,0
DA:230,0
DA:231,0
DA:239,0
DA:240,0
DA:241,0
DA:251,0
DA:252,0
DA:253,0
DA:254,0
DA:255,0
DA:261,0
DA:262,0
DA:263,0
DA:269,0
DA:270,0
DA:271,0
DA:280,0
DA:281,0
DA:282,0
DA:291,0
DA:292,0
DA:293,0
DA:303,0
DA:304,0
DA:305,0
BRF:0
BRH:0
LF:65
LH:0
end_of_record
SF:/Users/kuangtalin/.cargo/registry/src/index.crates.io-1949cf8c6b5b557f/ahash-0.8.12/src/lib.rs
FN:179,_RNvXINICsjRf07LucFe5_5ahash0pppEINtNtNtNtCsfiKLhsWjRsE_3std11collections4hash3map7HashMappppENtB5_10HashMapExt13with_capacityB5_
FN:175,_RNvXINICsjRf07LucFe5_5ahash0pppEINtNtNtNtCsfiKLhsWjRsE_3std11collections4hash3map7HashMappppENtB5_10HashMapExt3newB5_
FN:193,_RNvXINICsjRf07LucFe5_5ahashs_0ppEINtNtNtNtCsfiKLhsWjRsE_3std11collections4hash3set7HashSetppENtB5_10HashSetExt13with_capacityB5_
FN:189,_RNvXINICsjRf07LucFe5_5ahashs_0ppEINtNtNtNtCsfiKLhsWjRsE_3std11collections4hash3set7HashSetppENtB5_10HashSetExt3newB5_
FN:244,_RNvXs0_CsjRf07LucFe5_5ahashNtNtB5_13fallback_hash7AHasherNtNtCskumHb0IaX0X_4core7default7Default7defaultB5_
FNDA:0,_RNvXINICsjRf07LucFe5_5ahash0pppEINtNtNtNtCsfiKLhsWjRsE_3std11collections4hash3map7HashMappppENtB5_10HashMapExt13with_capacityB5_
FNDA:0,_RNvXINICsjRf07LucFe5_5ahash0pppEINtNtNtNtCsfiKLhsWjRsE_3std11collections4hash3map7HashMappppENtB5_10HashMapExt3newB5_
FNDA:0,_RNvXINICsjRf07LucFe5_5ahashs_0ppEINtNtNtNtCsfiKLhsWjRsE_3std11collections4hash3set7HashSetppENtB5_10HashSetExt13with_capacityB5_
FNDA:0,_RNvXINICsjRf07LucFe5_5ahashs_0ppEINtNtNtNtCsfiKLhsWjRsE_3std11collections4hash3set7HashSetppENtB5_10HashSetExt3newB5_
FNDA:0,_RNvXs0_CsjRf07LucFe5_5ahashNtNtB5_13fallback_hash7AHasherNtNtCskumHb0IaX0X_4core7default7Default7defaultB5_
FNF:5
FNH:0
DA:175,0
DA:176,0
DA:177,0
DA:179,0
DA:180,0
DA:181,0
DA:189,0
DA:190,0
DA:191,0
DA:193,0
DA:194,0
DA:195,0
DA:244,0
DA:245,0
DA:246,0
BRF:0
BRH:0
LF:15
LH:0
end_of_record
SF:/Users/kuangtalin/.cargo/registry/src/index.crates.io-1949cf8c6b5b557f/ahash-0.8.12/src/operations.rs
FN:33,_RNvNtCsjRf07LucFe5_5ahash10operations10read_small
FN:17,_RNvNtCsjRf07LucFe5_5ahash10operations15folded_multiply
FN:96,_RNvNtCsjRf07LucFe5_5ahash10operations10add_by_64s
FN:162,_RNvNtCsjRf07LucFe5_5ahash10operations13add_in_length
FN:70,_RNvNtCsjRf07LucFe5_5ahash10operations15add_and_shuffle
FN:77,_RNvNtCsjRf07LucFe5_5ahash10operations15shuffle_and_add
FN:53,_RNvNtCsjRf07LucFe5_5ahash10operations7shuffle
FNDA:0,_RNvNtCsjRf07LucFe5_5ahash10operations10read_small
FNDA:0,_RNvNtCsjRf07LucFe5_5ahash10operations15folded_multiply
FNDA:0,_RNvNtCsjRf07LucFe5_5ahash10operations10add_by_64s
FNDA:0,_RNvNtCsjRf07LucFe5_5ahash10operations13add_in_length
FNDA:0,_RNvNtCsjRf07LucFe5_5ahash10operations15add_and_shuffle
FNDA:0,_RNvNtCsjRf07LucFe5_5ahash10operations15shuffle_and_add
FNDA:0,_RNvNtCsjRf07LucFe5_5ahash10operations7shuffle
FNF:7
FNH:0
DA:17,0
DA:18,0
DA:19,0
DA:20,0
DA:33,0
DA:34,0
DA:35,0
DA:36,0
DA:38,0
DA:41,0
DA:44,0
DA:45,0
DA:47,0
DA:50,0
DA:53,0
DA:64,0
DA:66,0
DA:70,0
DA:71,0
DA:72,0
DA:73,0
DA:77,0
DA:78,0
DA:79,0
DA:80,0
DA:96,0
DA:97,0
DA:98,0
DA:162,0
DA:177,0
DA:178,0
DA:179,0
DA:180,0
DA:181,0
DA:182,0
BRF:0
BRH:0
LF:35
LH:0
end_of_record
SF:/Users/kuangtalin/.cargo/registry/src/index.crates.io-1949cf8c6b5b557f/ahash-0.8.12/src/random_state.rs
FN:352,_RINvMs1_NtCsjRf07LucFe5_5ahash12random_stateNtB6_11RandomState8hash_oneRTmjEECselVtgDpzSu1_4cdDB
FN:352,_RINvMs1_NtCsjRf07LucFe5_5ahash12random_stateNtB6_11RandomState8hash_oneRjECselVtgDpzSu1_4cdDB
FN:75,_RNCNvNtCsjRf07LucFe5_5ahash12random_state15get_fixed_seeds0CselVtgDpzSu1_4cdDB
FN:192,_RNCNvNtCsjRf07LucFe5_5ahash12random_state7get_src0CselVtgDpzSu1_4cdDB
FN:303,_RNvMs1_NtCsjRf07LucFe5_5ahash12random_stateNtB5_11RandomState10with_seedsCselVtgDpzSu1_4cdDB
FN:234,_RNvMs1_NtCsjRf07LucFe5_5ahash12random_stateNtB5_11RandomState3newCselVtgDpzSu1_4cdDB
FN:70,_RNvNtCsjRf07LucFe5_5ahash12random_state15get_fixed_seedsCselVtgDpzSu1_4cdDB
FN:191,_RNvNtCsjRf07LucFe5_5ahash12random_state7get_srcCselVtgDpzSu1_4cdDB
FN:413,_RNvXs3_NtCsjRf07LucFe5_5ahash12random_stateNtB5_11RandomStateNtNtCskumHb0IaX0X_4core4hash11BuildHasher12build_hasherCselVtgDpzSu1_4cdDB
FN:260,_RNCNvMs1_NtCsjRf07LucFe5_5ahash12random_stateNtB7_11RandomState9from_keys0B9_
FN:136,_RNvMNtCsjRf07LucFe5_5ahash12random_stateNtB2_19DefaultRandomSource3new
FN:256,_RNvMs1_NtCsjRf07LucFe5_5ahash12random_stateNtB5_11RandomState9from_keys
FN:223,_RNvXs0_NtCsjRf07LucFe5_5ahash12random_stateNtB5_11RandomStateNtNtCskumHb0IaX0X_4core3fmt5Debug3fmt
FN:161,_RNvXs_NtCsjRf07LucFe5_5ahash12random_stateNtB4_19DefaultRandomSourceNtB4_12RandomSource15gen_hasher_seed
FN:352,_RINvMs1_NtCsjRf07LucFe5_5ahash12random_stateNtB6_11RandomState8hash_onepEB8_
FN:186,_RINvNtCsjRf07LucFe5_5ahash12random_state17set_random_sourcepEB4_
FN:187,_RNCINvNtCsjRf07LucFe5_5ahash12random_state17set_random_sourcepE0B6_
FN:75,_RNCNvNtCsjRf07LucFe5_5ahash12random_state15get_fixed_seeds0B5_
FN:192,_RNCNvNtCsjRf07LucFe5_5ahash12random_state7get_src0B5_
FN:303,_RNvMs1_NtCsjRf07LucFe5_5ahash12random_stateNtB5_11RandomState10with_seedsB7_
FN:250,_RNvMs1_NtCsjRf07LucFe5_5ahash12random_stateNtB5_11RandomState13generate_withB7_
FN:276,_RNvMs1_NtCsjRf07LucFe5_5ahash12random_stateNtB5_11RandomState15with_fixed_keysB7_
FN:234,_RNvMs1_NtCsjRf07LucFe5_5ahash12random_stateNtB5_11RandomState3newB7_
FN:289,_RNvMs1_NtCsjRf07LucFe5_5ahash12random_stateNtB5_11RandomState9with_seedB7_
FN:70,_RNvNtCsjRf07LucFe5_5ahash12random_state15get_fixed_seedsB3_
FN:191,_RNvNtCsjRf07LucFe5_5ahash12random_state7get_srcB3_
FN:373,_RNvXs2_NtCsjRf07LucFe5_5ahash12random_stateNtB5_11RandomStateNtNtCskumHb0IaX0X_4core7default7Default7defaultB7_
FN:413,_RNvXs3_NtCsjRf07LucFe5_5ahash12random_stateNtB5_11RandomStateNtNtCskumHb0IaX0X_4core4hash11BuildHasher12build_hasherB7_
FNDA:0,_RINvMs1_NtCsjRf07LucFe5_5ahash12random_stateNtB6_11RandomState8hash_oneRTmjEECselVtgDpzSu1_4cdDB
FNDA:0,_RINvMs1_NtCsjRf07LucFe5_5ahash12random_stateNtB6_11RandomState8hash_oneRjECselVtgDpzSu1_4cdDB
FNDA:0,_RNCNvNtCsjRf07LucFe5_5ahash12random_state15get_fixed_seeds0CselVtgDpzSu1_4cdDB
FNDA:0,_RNCNvNtCsjRf07LucFe5_5ahash12random_state7get_src0CselVtgDpzSu1_4cdDB
FNDA:0,_RNvMs1_NtCsjRf07LucFe5_5ahash12random_stateNtB5_11RandomState10with_seedsCselVtgDpzSu1_4cdDB
FNDA:0,_RNvMs1_NtCsjRf07LucFe5_5ahash12random_stateNtB5_11RandomState3newCselVtgDpzSu1_4cdDB
FNDA:0,_RNvNtCsjRf07LucFe5_5ahash12random_state15get_fixed_seedsCselVtgDpzSu1_4cdDB
FNDA:0,_RNvNtCsjRf07LucFe5_5ahash12random_state7get_srcCselVtgDpzSu1_4cdDB
FNDA:0,_RNvXs3_NtCsjRf07LucFe5_5ahash12random_stateNtB5_11RandomStateNtNtCskumHb0IaX0X_4core4hash11BuildHasher12build_hasherCselVtgDpzSu1_4cdDB
FNDA:0,_RNCNvMs1_NtCsjRf07LucFe5_5ahash12random_stateNtB7_11RandomState9from_keys0B9_
FNDA:0,_RNvMNtCsjRf07LucFe5_5ahash12random_stateNtB2_19DefaultRandomSource3new
FNDA:0,_RNvMs1_NtCsjRf07LucFe5_5ahash12random_stateNtB5_11RandomState9from_keys
FNDA:0,_RNvXs0_NtCsjRf07LucFe5_5ahash12random_stateNtB5_11RandomStateNtNtCskumHb0IaX0X_4core3fmt5Debug3fmt
FNDA:0,_RNvXs_NtCsjRf07LucFe5_5ahash12random_stateNtB4_19DefaultRandomSourceNtB4_12RandomSource15gen_hasher_seed
FNDA:0,_RINvMs1_NtCsjRf07LucFe5_5ahash12random_stateNtB6_11RandomState8hash_onepEB8_
FNDA:0,_RINvNtCsjRf07LucFe5_5ahash12random_state17set_random_sourcepEB4_
FNDA:0,_RNCINvNtCsjRf07LucFe5_5ahash12random_state17set_random_sourcepE0B6_
FNDA:0,_RNCNvNtCsjRf07LucFe5_5ahash12random_state15get_fixed_seeds0B5_
FNDA:0,_RNCNvNtCsjRf07LucFe5_5ahash12random_state7get_src0B5_
FNDA:0,_RNvMs1_NtCsjRf07LucFe5_5ahash12random_stateNtB5_11RandomState10with_seedsB7_
FNDA:0,_RNvMs1_NtCsjRf07LucFe5_5ahash12random_stateNtB5_11RandomState13generate_withB7_
FNDA:0,_RNvMs1_NtCsjRf07LucFe5_5ahash12random_stateNtB5_11RandomState15with_fixed_keysB7_
FNDA:0,_RNvMs1_NtCsjRf07LucFe5_5ahash12random_stateNtB5_11RandomState3newB7_
FNDA:0,_RNvMs1_NtCsjRf07LucFe5_5ahash12random_stateNtB5_11RandomState9with_seedB7_
FNDA:0,_RNvNtCsjRf07LucFe5_5ahash12random_state15get_fixed_seedsB3_
FNDA:0,_RNvNtCsjRf07LucFe5_5ahash12random_state7get_srcB3_
FNDA:0,_RNvXs2_NtCsjRf07LucFe5_5ahash12random_stateNtB5_11RandomStateNtNtCskumHb0IaX0X_4core7default7Default7defaultB7_
FNDA:0,_RNvXs3_NtCsjRf07LucFe5_5ahash12random_stateNtB5_11RandomStateNtNtCskumHb0IaX0X_4core4hash11BuildHasher12build_hasherB7_
FNF:19
FNH:0
DA:70,0
DA:75,0
DA:76,0
DA:77,0
DA:78,0
DA:79,0
DA:80,0
DA:136,0
DA:137,0
DA:138,0
DA:139,0
DA:140,0
DA:161,0
DA:162,0
DA:163,0
DA:164,0
DA:186,0
DA:187,0
DA:188,0
DA:191,0
DA:192,0
DA:193,0
DA:223,0
DA:224,0
DA:225,0
DA:234,0
DA:235,0
DA:236,0
DA:237,0
DA:238,0
DA:250,0
DA:251,0
DA:252,0
DA:253,0
DA:254,0
DA:256,0
DA:257,0
DA:258,0
DA:259,0
DA:260,0
DA:261,0
DA:262,0
DA:263,0
DA:264,0
DA:265,0
DA:266,0
DA:267,0
DA:268,0
DA:269,0
DA:270,0
DA:271,0
DA:272,0
DA:276,0
DA:277,0
DA:278,0
DA:279,0
DA:289,0
DA:290,0
DA:291,0
DA:292,0
DA:303,0
DA:304,0
DA:305,0
DA:306,0
DA:307,0
DA:308,0
DA:309,0
DA:310,0
DA:352,0
DA:353,0
DA:354,0
DA:357,0
DA:358,0
DA:373,0
DA:374,0
DA:375,0
DA:413,0
DA:414,0
DA:415,0
BRF:0
BRH:0
LF:83
LH:0
end_of_record
SF:/Users/kuangtalin/.cargo/registry/src/index.crates.io-1949cf8c6b5b557f/ahash-0.8.12/src/specialize.rs
FN:29,_RINvXNtCsjRf07LucFe5_5ahash10specializeRTmjENtB3_10CallHasher8get_hashBB_ECselVtgDpzSu1_4cdDB
FN:29,_RINvXNtCsjRf07LucFe5_5ahash10specializeRjNtB3_10CallHasher8get_hashBB_ECselVtgDpzSu1_4cdDB
FN:29,_RINvXININtCsjRf07LucFe5_5ahash10specialize0pEpNtB6_10CallHasher8get_hashpEB8_
FNDA:0,_RINvXNtCsjRf07LucFe5_5ahash10specializeRTmjENtB3_10CallHasher8get_hashBB_ECselVtgDpzSu1_4cdDB
FNDA:0,_RINvXNtCsjRf07LucFe5_5ahash10specializeRjNtB3_10CallHasher8get_hashBB_ECselVtgDpzSu1_4cdDB
FNDA:0,_RINvXININtCsjRf07LucFe5_5ahash10specialize0pEpNtB6_10CallHasher8get_hashpEB8_
FNF:1
FNH:0
DA:29,0
DA:30,0
DA:31,0
DA:32,0
DA:33,0
BRF:0
BRH:0
LF:5
LH:0
end_of_record
SF:/Users/kuangtalin/.cargo/registry/src/index.crates.io-1949cf8c6b5b557f/block-buffer-0.10.4/src/lib.rs
FN:138,_RINvMs3_Cse52W77SgbTc_12block_bufferINtB6_11BlockBufferINtNtCsdOIG378uWuC_7typenum4uint4UIntIBS_IBS_IBS_IBS_IBS_IBS_IBS_NtBU_5UTermNtNtBW_3bit2B1ENtB27_2B0EB2k_EB2k_EB2k_EB2k_EB2k_EB2k_ENtB6_5EagerE13digest_blocksNCNvXs5_NtNtCs8hrGzK1ZDm1_6digest8core_api7wrapperINtB3x_11CoreWrapperINtNtB3z_11ct_variable21CtVariableCoreWrapperNtNtCs2jU7EytItPK_4sha28core_api13Sha512VarCoreB1s_NtB5k_9OidSha512EENtB3B_6Update6update0ECs7KSaGTpB2VC_13ed25519_dalek
FN:290,_RINvMs4_Cse52W77SgbTc_12block_bufferINtB6_11BlockBufferINtNtCsdOIG378uWuC_7typenum4uint4UIntIBS_IBS_IBS_IBS_IBS_IBS_IBS_NtBU_5UTermNtNtBW_3bit2B1ENtB27_2B0EB2k_EB2k_EB2k_EB2k_EB2k_EB2k_ENtB6_5EagerE10digest_padNCNvXsb_NtCs2jU7EytItPK_4sha28core_apiNtB3u_13Sha512VarCoreNtNtCs8hrGzK1ZDm1_6digest8core_api18VariableOutputCore22finalize_variable_core0ECs7KSaGTpB2VC_13ed25519_dalek
FN:335,_RINvMs4_Cse52W77SgbTc_12block_bufferINtB6_11BlockBufferINtNtCsdOIG378uWuC_7typenum4uint4UIntIBS_IBS_IBS_IBS_IBS_IBS_IBS_NtBU_5UTermNtNtBW_3bit2B1ENtB27_2B0EB2k_EB2k_EB2k_EB2k_EB2k_EB2k_ENtB6_5EagerE17len128_padding_beNCNvXsb_NtCs2jU7EytItPK_4sha28core_apiNtB3B_13Sha512VarCoreNtNtCs8hrGzK1ZDm1_6digest8core_api18VariableOutputCore22finalize_variable_core0ECs7KSaGTpB2VC_13ed25519_dalek
FN:237,_RNvMs3_Cse52W77SgbTc_12block_bufferINtB5_11BlockBufferINtNtCsdOIG378uWuC_7typenum4uint4UIntIBR_IBR_IBR_IBR_IBR_IBR_IBR_NtBT_5UTermNtNtBV_3bit2B1ENtB26_2B0EB2j_EB2j_EB2j_EB2j_EB2j_EB2j_ENtB5_5EagerE17set_pos_uncheckedCs7KSaGTpB2VC_13ed25519_dalek
FN:226,_RNvMs3_Cse52W77SgbTc_12block_bufferINtB5_11BlockBufferINtNtCsdOIG378uWuC_7typenum4uint4UIntIBR_IBR_IBR_IBR_IBR_IBR_IBR_NtBT_5UTermNtNtBV_3bit2B1ENtB26_2B0EB2j_EB2j_EB2j_EB2j_EB2j_EB2j_ENtB5_5EagerE4sizeCs7KSaGTpB2VC_13ed25519_dalek
FN:195,_RNvMs3_Cse52W77SgbTc_12block_bufferINtB5_11BlockBufferINtNtCsdOIG378uWuC_7typenum4uint4UIntIBR_IBR_IBR_IBR_IBR_IBR_IBR_NtBT_5UTermNtNtBV_3bit2B1ENtB26_2B0EB2j_EB2j_EB2j_EB2j_EB2j_EB2j_ENtB5_5EagerE7get_posCs7KSaGTpB2VC_13ed25519_dalek
FN:72,_RNvXs1_Cse52W77SgbTc_12block_bufferINtB5_11BlockBufferINtNtCsdOIG378uWuC_7typenum4uint4UIntIBR_IBR_IBR_IBR_IBR_IBR_IBR_NtBT_5UTermNtNtBV_3bit2B1ENtB26_2B0EB2j_EB2j_EB2j_EB2j_EB2j_EB2j_ENtB5_5EagerENtNtCskumHb0IaX0X_4core7default7Default7defaultCs7KSaGTpB2VC_13ed25519_dalek
FNDA:0,_RINvMs3_Cse52W77SgbTc_12block_bufferINtB6_11BlockBufferINtNtCsdOIG378uWuC_7typenum4uint4UIntIBS_IBS_IBS_IBS_IBS_IBS_IBS_NtBU_5UTermNtNtBW_3bit2B1ENtB27_2B0EB2k_EB2k_EB2k_EB2k_EB2k_EB2k_ENtB6_5EagerE13digest_blocksNCNvXs5_NtNtCs8hrGzK1ZDm1_6digest8core_api7wrapperINtB3x_11CoreWrapperINtNtB3z_11ct_variable21CtVariableCoreWrapperNtNtCs2jU7EytItPK_4sha28core_api13Sha512VarCoreB1s_NtB5k_9OidSha512EENtB3B_6Update6update0ECs7KSaGTpB2VC_13ed25519_dalek
FNDA:0,_RINvMs4_Cse52W77SgbTc_12block_bufferINtB6_11BlockBufferINtNtCsdOIG378uWuC_7typenum4uint4UIntIBS_IBS_IBS_IBS_IBS_IBS_IBS_NtBU_5UTermNtNtBW_3bit2B1ENtB27_2B0EB2k_EB2k_EB2k_EB2k_EB2k_EB2k_ENtB6_5EagerE10digest_padNCNvXsb_NtCs2jU7EytItPK_4sha28core_apiNtB3u_13Sha512VarCoreNtNtCs8hrGzK1ZDm1_6digest8core_api18VariableOutputCore22finalize_variable_core0ECs7KSaGTpB2VC_13ed25519_dalek
FNDA:0,_RINvMs4_Cse52W77SgbTc_12block_bufferINtB6_11BlockBufferINtNtCsdOIG378uWuC_7typenum4uint4UIntIBS_IBS_IBS_IBS_IBS_IBS_IBS_NtBU_5UTermNtNtBW_3bit2B1ENtB27_2B0EB2k_EB2k_EB2k_EB2k_EB2k_EB2k_ENtB6_5EagerE17len128_padding_beNCNvXsb_NtCs2jU7EytItPK_4sha28core_apiNtB3B_13Sha512VarCoreNtNtCs8hrGzK1ZDm1_6digest8core_api18VariableOutputCore22finalize_variable_core0ECs7KSaGTpB2VC_13ed25519_dalek
FNDA:0,_RNvMs3_Cse52W77SgbTc_12block_bufferINtB5_11BlockBufferINtNtCsdOIG378uWuC_7typenum4uint4UIntIBR_IBR_IBR_IBR_IBR_IBR_IBR_NtBT_5UTermNtNtBV_3bit2B1ENtB26_2B0EB2j_EB2j_EB2j_EB2j_EB2j_EB2j_ENtB5_5EagerE17set_pos_uncheckedCs7KSaGTpB2VC_13ed25519_dalek
FNDA:0,_RNvMs3_Cse52W77SgbTc_12block_bufferINtB5_11BlockBufferINtNtCsdOIG378uWuC_7typenum4uint4UIntIBR_IBR_IBR_IBR_IBR_IBR_IBR_NtBT_5UTermNtNtBV_3bit2B1ENtB26_2B0EB2j_EB2j_EB2j_EB2j_EB2j_EB2j_ENtB5_5EagerE4sizeCs7KSaGTpB2VC_13ed25519_dalek
FNDA:0,_RNvMs3_Cse52W77SgbTc_12block_bufferINtB5_11BlockBufferINtNtCsdOIG378uWuC_7typenum4uint4UIntIBR_IBR_IBR_IBR_IBR_IBR_IBR_NtBT_5UTermNtNtBV_3bit2B1ENtB26_2B0EB2j_EB2j_EB2j_EB2j_EB2j_EB2j_ENtB5_5EagerE7get_posCs7KSaGTpB2VC_13ed25519_dalek
FNDA:0,_RNvXs1_Cse52W77SgbTc_12block_bufferINtB5_11BlockBufferINtNtCsdOIG378uWuC_7typenum4uint4UIntIBR_IBR_IBR_IBR_IBR_IBR_IBR_NtBT_5UTermNtNtBV_3bit2B1ENtB26_2B0EB2j_EB2j_EB2j_EB2j_EB2j_EB2j_ENtB5_5EagerENtNtCskumHb0IaX0X_4core7default7Default7defaultCs7KSaGTpB2VC_13ed25519_dalek
FNF:7
FNH:0
DA:72,0
DA:73,0
DA:74,0
DA:75,0
DA:76,0
DA:77,0
DA:78,0
DA:79,0
DA:80,0
DA:81,0
DA:138,0
DA:139,0
DA:140,0
DA:141,0
DA:142,0
DA:143,0
DA:146,0
DA:147,0
DA:155,0
DA:157,0
DA:158,0
DA:159,0
DA:160,0
DA:161,0
DA:162,0
DA:163,0
DA:164,0
DA:165,0
DA:166,0
DA:168,0
DA:169,0
DA:170,0
DA:171,0
DA:173,0
DA:174,0
DA:175,0
DA:176,0
DA:195,0
DA:196,0
DA:197,0
DA:198,0
DA:201,0
DA:203,0
DA:204,0
DA:205,0
DA:226,0
DA:227,0
DA:228,0
DA:237,0
DA:238,0
DA:239,0
DA:240,0
DA:290,0
DA:291,0
DA:292,0
DA:293,0
DA:294,0
DA:295,0
DA:296,0
DA:297,0
DA:298,0
DA:299,0
DA:300,0
DA:301,0
DA:302,0
DA:303,0
DA:305,0
DA:306,0
DA:307,0
DA:308,0
DA:309,0
DA:310,0
DA:311,0
DA:312,0
DA:313,0
DA:314,0
DA:315,0
DA:316,0
DA:335,0
DA:336,0
DA:337,0
BRF:0
BRH:0
LF:81
LH:0
end_of_record
SF:/Users/kuangtalin/.cargo/registry/src/index.crates.io-1949cf8c6b5b557f/block-buffer-0.10.4/src/sealed.rs
FN:21,_RINvXNtCse52W77SgbTc_12block_buffer6sealedNtB5_5EagerNtB3_6Sealed12split_blocksINtNtCsdOIG378uWuC_7typenum4uint4UIntIB1g_IB1g_IB1g_IB1g_IB1g_IB1g_IB1g_NtB1i_5UTermNtNtB1k_3bit2B1ENtB2D_2B0EB2R_EB2R_EB2R_EB2R_EB2R_EB2R_EECs7KSaGTpB2VC_13ed25519_dalek
FN:16,_RNvXNtCse52W77SgbTc_12block_buffer6sealedNtB4_5EagerNtB2_6Sealed9invariant
FNDA:0,_RINvXNtCse52W77SgbTc_12block_buffer6sealedNtB5_5EagerNtB3_6Sealed12split_blocksINtNtCsdOIG378uWuC_7typenum4uint4UIntIB1g_IB1g_IB1g_IB1g_IB1g_IB1g_IB1g_NtB1i_5UTermNtNtB1k_3bit2B1ENtB2D_2B0EB2R_EB2R_EB2R_EB2R_EB2R_EB2R_EECs7KSaGTpB2VC_13ed25519_dalek
FNDA:0,_RNvXNtCse52W77SgbTc_12block_buffer6sealedNtB4_5EagerNtB2_6Sealed9invariant
FNF:2
FNH:0
DA:16,0
DA:17,0
DA:18,0
DA:21,0
DA:22,0
DA:23,0
DA:24,0
DA:28,0
DA:29,0
DA:30,0
DA:31,0
DA:32,0
DA:33,0
DA:35,0
BRF:0
BRH:0
LF:14
LH:0
end_of_record
SF:/Users/kuangtalin/.cargo/registry/src/index.crates.io-1949cf8c6b5b557f/bytecheck-0.8.2/src/lib.rs
FN:739,_RNvXNvXsd_CsgBsN1nKhdxv_9bytecheckeINtB8_10CheckBytespE11check_bytesNtB2_9Utf8ErrorNtNtCskumHb0IaX0X_4core3fmt7Display3fmt
FN:506,_RNvXs3_CsgBsN1nKhdxv_9bytecheckNtB5_14BoolCheckErrorNtNtCskumHb0IaX0X_4core3fmt7Display3fmt
FN:586,_RNvXs8_CsgBsN1nKhdxv_9bytecheckNtB5_17TupleIndexContextNtNtCskumHb0IaX0X_4core3fmt7Display3fmt
FN:650,_RNvXs9_CsgBsN1nKhdxv_9bytecheckNtB5_17ArrayCheckContextNtNtCskumHb0IaX0X_4core3fmt7Display3fmt
FN:689,_RNvXsb_CsgBsN1nKhdxv_9bytecheckNtB5_17SliceCheckContextNtNtCskumHb0IaX0X_4core3fmt7Display3fmt
FN:801,_RNvXsf_CsgBsN1nKhdxv_9bytecheckNtB5_18StructCheckContextNtNtCskumHb0IaX0X_4core3fmt7Display3fmt
FN:823,_RNvXsg_CsgBsN1nKhdxv_9bytecheckNtB5_23TupleStructCheckContextNtNtCskumHb0IaX0X_4core3fmt7Display3fmt
FN:874,_RNvXsj_CsgBsN1nKhdxv_9bytecheckNtB5_28NamedEnumVariantCheckContextNtNtCskumHb0IaX0X_4core3fmt7Display3fmt
FN:899,_RNvXsk_CsgBsN1nKhdxv_9bytecheckNtB5_30UnnamedEnumVariantCheckContextNtNtCskumHb0IaX0X_4core3fmt7Display3fmt
FN:249,_RINvCsgBsN1nKhdxv_9bytecheck11check_bytesppEB2_
FN:338,_RINvCsgBsN1nKhdxv_9bytecheck24check_bytes_with_contextpppEB2_
FN:616,_RNCNvXINICsgBsN1nKhdxv_9bytechecks10_0pppppppppppppETppppppppppppEINtB7_10CheckBytespE11check_bytes0B7_
FN:616,_RNCNvXINICsgBsN1nKhdxv_9bytechecks10_0pppppppppppppETppppppppppppEINtB7_10CheckBytespE11check_bytess0_0B7_
FN:616,_RNCNvXINICsgBsN1nKhdxv_9bytechecks10_0pppppppppppppETppppppppppppEINtB7_10CheckBytespE11check_bytess1_0B7_
FN:616,_RNCNvXINICsgBsN1nKhdxv_9bytechecks10_0pppppppppppppETppppppppppppEINtB7_10CheckBytespE11check_bytess2_0B7_
FN:616,_RNCNvXINICsgBsN1nKhdxv_9bytechecks10_0pppppppppppppETppppppppppppEINtB7_10CheckBytespE11check_bytess3_0B7_
FN:616,_RNCNvXINICsgBsN1nKhdxv_9bytechecks10_0pppppppppppppETppppppppppppEINtB7_10CheckBytespE11check_bytess4_0B7_
FN:616,_RNCNvXINICsgBsN1nKhdxv_9bytechecks10_0pppppppppppppETppppppppppppEINtB7_10CheckBytespE11check_bytess5_0B7_
FN:616,_RNCNvXINICsgBsN1nKhdxv_9bytechecks10_0pppppppppppppETppppppppppppEINtB7_10CheckBytespE11check_bytess6_0B7_
FN:616,_RNCNvXINICsgBsN1nKhdxv_9bytechecks10_0pppppppppppppETppppppppppppEINtB7_10CheckBytespE11check_bytess7_0B7_
FN:616,_RNCNvXINICsgBsN1nKhdxv_9bytechecks10_0pppppppppppppETppppppppppppEINtB7_10CheckBytespE11check_bytess8_0B7_
FN:616,_RNCNvXINICsgBsN1nKhdxv_9bytechecks10_0pppppppppppppETppppppppppppEINtB7_10CheckBytespE11check_bytess9_0B7_
FN:616,_RNCNvXINICsgBsN1nKhdxv_9bytechecks10_0pppppppppppppETppppppppppppEINtB7_10CheckBytespE11check_bytess_0B7_
FN:616,_RNCNvXINICsgBsN1nKhdxv_9bytechecks11_0ppppppppppppppETpppppppppppppEINtB7_10CheckBytespE11check_bytes0B7_
FN:616,_RNCNvXINICsgBsN1nKhdxv_9bytechecks11_0ppppppppppppppETpppppppppppppEINtB7_10CheckBytespE11check_bytess0_0B7_
FN:616,_RNCNvXINICsgBsN1nKhdxv_9bytechecks11_0ppppppppppppppETpppppppppppppEINtB7_10CheckBytespE11check_bytess1_0B7_
FN:616,_RNCNvXINICsgBsN1nKhdxv_9bytechecks11_0ppppppppppppppETpppppppppppppEINtB7_10CheckBytespE11check_bytess2_0B7_
FN:616,_RNCNvXINICsgBsN1nKhdxv_9bytechecks11_0ppppppppppppppETpppppppppppppEINtB7_10CheckBytespE11check_bytess3_0B7_
FN:616,_RNCNvXINICsgBsN1nKhdxv_9bytechecks11_0ppppppppppppppETpppppppppppppEINtB7_10CheckBytespE11check_bytess4_0B7_
FN:616,_RNCNvXINICsgBsN1nKhdxv_9bytechecks11_0ppppppppppppppETpppppppppppppEINtB7_10CheckBytespE11check_bytess5_0B7_
FN:616,_RNCNvXINICsgBsN1nKhdxv_9bytechecks11_0ppppppppppppppETpppppppppppppEINtB7_10CheckBytespE11check_bytess6_0B7_
FN:616,_RNCNvXINICsgBsN1nKhdxv_9bytechecks11_0ppppppppppppppETpppppppppppppEINtB7_10CheckBytespE11check_bytess7_0B7_
FN:616,_RNCNvXINICsgBsN1nKhdxv_9bytechecks11_0ppppppppppppppETpppppppppppppEINtB7_10CheckBytespE11check_bytess8_0B7_
FN:616,_RNCNvXINICsgBsN1nKhdxv_9bytechecks11_0ppppppppppppppETpppppppppppppEINtB7_10CheckBytespE11check_bytess9_0B7_
FN:616,_RNCNvXINICsgBsN1nKhdxv_9bytechecks11_0ppppppppppppppETpppppppppppppEINtB7_10CheckBytespE11check_bytess_0B7_
FN:616,_RNCNvXINICsgBsN1nKhdxv_9bytechecks11_0ppppppppppppppETpppppppppppppEINtB7_10CheckBytespE11check_bytessa_0B7_
FN:616,_RNCNvXINICsgBsN1nKhdxv_9bytechecksP_0ppETpEINtB7_10CheckBytespE11check_bytes0B7_
FN:616,_RNCNvXINICsgBsN1nKhdxv_9bytechecksQ_0pppETppEINtB7_10CheckBytespE11check_bytes0B7_
FN:616,_RNCNvXINICsgBsN1nKhdxv_9bytechecksQ_0pppETppEINtB7_10CheckBytespE11check_bytess_0B7_
FN:616,_RNCNvXINICsgBsN1nKhdxv_9bytechecksR_0ppppETpppEINtB7_10CheckBytespE11check_bytes0B7_
FN:616,_RNCNvXINICsgBsN1nKhdxv_9bytechecksR_0ppppETpppEINtB7_10CheckBytespE11check_bytess0_0B7_
FN:616,_RNCNvXINICsgBsN1nKhdxv_9bytechecksR_0ppppETpppEINtB7_10CheckBytespE11check_bytess_0B7_
FN:616,_RNCNvXINICsgBsN1nKhdxv_9bytechecksS_0pppppETppppEINtB7_10CheckBytespE11check_bytes0B7_
FN:616,_RNCNvXINICsgBsN1nKhdxv_9bytechecksS_0pppppETppppEINtB7_10CheckBytespE11check_bytess0_0B7_
FN:616,_RNCNvXINICsgBsN1nKhdxv_9bytechecksS_0pppppETppppEINtB7_10CheckBytespE11check_bytess1_0B7_
FN:616,_RNCNvXINICsgBsN1nKhdxv_9bytechecksS_0pppppETppppEINtB7_10CheckBytespE11check_bytess_0B7_
FN:616,_RNCNvXINICsgBsN1nKhdxv_9bytechecksT_0ppppppETpppppEINtB7_10CheckBytespE11check_bytes0B7_
FN:616,_RNCNvXINICsgBsN1nKhdxv_9bytechecksT_0ppppppETpppppEINtB7_10CheckBytespE11check_bytess0_0B7_
FN:616,_RNCNvXINICsgBsN1nKhdxv_9bytechecksT_0ppppppETpppppEINtB7_10CheckBytespE11check_bytess1_0B7_
FN:616,_RNCNvXINICsgBsN1nKhdxv_9bytechecksT_0ppppppETpppppEINtB7_10CheckBytespE11check_bytess2_0B7_
FN:616,_RNCNvXINICsgBsN1nKhdxv_9bytechecksT_0ppppppETpppppEINtB7_10CheckBytespE11check_bytess_0B7_
FN:616,_RNCNvXINICsgBsN1nKhdxv_9bytechecksU_0pppppppETppppppEINtB7_10CheckBytespE11check_bytes0B7_
FN:616,_RNCNvXINICsgBsN1nKhdxv_9bytechecksU_0pppppppETppppppEINtB7_10CheckBytespE11check_bytess0_0B7_
FN:616,_RNCNvXINICsgBsN1nKhdxv_9bytechecksU_0pppppppETppppppEINtB7_10CheckBytespE11check_bytess1_0B7_
FN:616,_RNCNvXINICsgBsN1nKhdxv_9bytechecksU_0pppppppETppppppEINtB7_10CheckBytespE11check_bytess2_0B7_
FN:616,_RNCNvXINICsgBsN1nKhdxv_9bytechecksU_0pppppppETppppppEINtB7_10CheckBytespE11check_bytess3_0B7_
FN:616,_RNCNvXINICsgBsN1nKhdxv_9bytechecksU_0pppppppETppppppEINtB7_10CheckBytespE11check_bytess_0B7_
FN:616,_RNCNvXINICsgBsN1nKhdxv_9bytechecksV_0ppppppppETpppppppEINtB7_10CheckBytespE11check_bytes0B7_
FN:616,_RNCNvXINICsgBsN1nKhdxv_9bytechecksV_0ppppppppETpppppppEINtB7_10CheckBytespE11check_bytess0_0B7_
FN:616,_RNCNvXINICsgBsN1nKhdxv_9bytechecksV_0ppppppppETpppppppEINtB7_10CheckBytespE11check_bytess1_0B7_
FN:616,_RNCNvXINICsgBsN1nKhdxv_9bytechecksV_0ppppppppETpppppppEINtB7_10CheckBytespE11check_bytess2_0B7_
FN:616,_RNCNvXINICsgBsN1nKhdxv_9bytechecksV_0ppppppppETpppppppEINtB7_10CheckBytespE11check_bytess3_0B7_
FN:616,_RNCNvXINICsgBsN1nKhdxv_9bytechecksV_0ppppppppETpppppppEINtB7_10CheckBytespE11check_bytess4_0B7_
FN:616,_RNCNvXINICsgBsN1nKhdxv_9bytechecksV_0ppppppppETpppppppEINtB7_10CheckBytespE11check_bytess_0B7_
FN:616,_RNCNvXINICsgBsN1nKhdxv_9bytechecksW_0pppppppppETppppppppEINtB7_10CheckBytespE11check_bytes0B7_
FN:616,_RNCNvXINICsgBsN1nKhdxv_9bytechecksW_0pppppppppETppppppppEINtB7_10CheckBytespE11check_bytess0_0B7_
FN:616,_RNCNvXINICsgBsN1nKhdxv_9bytechecksW_0pppppppppETppppppppEINtB7_10CheckBytespE11check_bytess1_0B7_
FN:616,_RNCNvXINICsgBsN1nKhdxv_9bytechecksW_0pppppppppETppppppppEINtB7_10CheckBytespE11check_bytess2_0B7_
FN:616,_RNCNvXINICsgBsN1nKhdxv_9bytechecksW_0pppppppppETppppppppEINtB7_10CheckBytespE11check_bytess3_0B7_
FN:616,_RNCNvXINICsgBsN1nKhdxv_9bytechecksW_0pppppppppETppppppppEINtB7_10CheckBytespE11check_bytess4_0B7_
FN:616,_RNCNvXINICsgBsN1nKhdxv_9bytechecksW_0pppppppppETppppppppEINtB7_10CheckBytespE11check_bytess5_0B7_
FN:616,_RNCNvXINICsgBsN1nKhdxv_9bytechecksW_0pppppppppETppppppppEINtB7_10CheckBytespE11check_bytess_0B7_
FN:616,_RNCNvXINICsgBsN1nKhdxv_9bytechecksX_0ppppppppppETpppppppppEINtB7_10CheckBytespE11check_bytes0B7_
FN:616,_RNCNvXINICsgBsN1nKhdxv_9bytechecksX_0ppppppppppETpppppppppEINtB7_10CheckBytespE11check_bytess0_0B7_
FN:616,_RNCNvXINICsgBsN1nKhdxv_9bytechecksX_0ppppppppppETpppppppppEINtB7_10CheckBytespE11check_bytess1_0B7_
FN:616,_RNCNvXINICsgBsN1nKhdxv_9bytechecksX_0ppppppppppETpppppppppEINtB7_10CheckBytespE11check_bytess2_0B7_
FN:616,_RNCNvXINICsgBsN1nKhdxv_9bytechecksX_0ppppppppppETpppppppppEINtB7_10CheckBytespE11check_bytess3_0B7_
FN:616,_RNCNvXINICsgBsN1nKhdxv_9bytechecksX_0ppppppppppETpppppppppEINtB7_10CheckBytespE11check_bytess4_0B7_
FN:616,_RNCNvXINICsgBsN1nKhdxv_9bytechecksX_0ppppppppppETpppppppppEINtB7_10CheckBytespE11check_bytess5_0B7_
FN:616,_RNCNvXINICsgBsN1nKhdxv_9bytechecksX_0ppppppppppETpppppppppEINtB7_10CheckBytespE11check_bytess6_0B7_
FN:616,_RNCNvXINICsgBsN1nKhdxv_9bytechecksX_0ppppppppppETpppppppppEINtB7_10CheckBytespE11check_bytess_0B7_
FN:616,_RNCNvXINICsgBsN1nKhdxv_9bytechecksY_0pppppppppppETppppppppppEINtB7_10CheckBytespE11check_bytes0B7_
FN:616,_RNCNvXINICsgBsN1nKhdxv_9bytechecksY_0pppppppppppETppppppppppEINtB7_10CheckBytespE11check_bytess0_0B7_
FN:616,_RNCNvXINICsgBsN1nKhdxv_9bytechecksY_0pppppppppppETppppppppppEINtB7_10CheckBytespE11check_bytess1_0B7_
FN:616,_RNCNvXINICsgBsN1nKhdxv_9bytechecksY_0pppppppppppETppppppppppEINtB7_10CheckBytespE11check_bytess2_0B7_
FN:616,_RNCNvXINICsgBsN1nKhdxv_9bytechecksY_0pppppppppppETppppppppppEINtB7_10CheckBytespE11check_bytess3_0B7_
FN:616,_RNCNvXINICsgBsN1nKhdxv_9bytechecksY_0pppppppppppETppppppppppEINtB7_10CheckBytespE11check_bytess4_0B7_
FN:616,_RNCNvXINICsgBsN1nKhdxv_9bytechecksY_0pppppppppppETppppppppppEINtB7_10CheckBytespE11check_bytess5_0B7_
FN:616,_RNCNvXINICsgBsN1nKhdxv_9bytechecksY_0pppppppppppETppppppppppEINtB7_10CheckBytespE11check_bytess6_0B7_
FN:616,_RNCNvXINICsgBsN1nKhdxv_9bytechecksY_0pppppppppppETppppppppppEINtB7_10CheckBytespE11check_bytess7_0B7_
FN:616,_RNCNvXINICsgBsN1nKhdxv_9bytechecksY_0pppppppppppETppppppppppEINtB7_10CheckBytespE11check_bytess_0B7_
FN:616,_RNCNvXINICsgBsN1nKhdxv_9bytechecksZ_0ppppppppppppETpppppppppppEINtB7_10CheckBytespE11check_bytes0B7_
FN:616,_RNCNvXINICsgBsN1nKhdxv_9bytechecksZ_0ppppppppppppETpppppppppppEINtB7_10CheckBytespE11check_bytess0_0B7_
FN:616,_RNCNvXINICsgBsN1nKhdxv_9bytechecksZ_0ppppppppppppETpppppppppppEINtB7_10CheckBytespE11check_bytess1_0B7_
FN:616,_RNCNvXINICsgBsN1nKhdxv_9bytechecksZ_0ppppppppppppETpppppppppppEINtB7_10CheckBytespE11check_bytess2_0B7_
FN:616,_RNCNvXINICsgBsN1nKhdxv_9bytechecksZ_0ppppppppppppETpppppppppppEINtB7_10CheckBytespE11check_bytess3_0B7_
FN:616,_RNCNvXINICsgBsN1nKhdxv_9bytechecksZ_0ppppppppppppETpppppppppppEINtB7_10CheckBytespE11check_bytess4_0B7_
FN:616,_RNCNvXINICsgBsN1nKhdxv_9bytechecksZ_0ppppppppppppETpppppppppppEINtB7_10CheckBytespE11check_bytess5_0B7_
FN:616,_RNCNvXINICsgBsN1nKhdxv_9bytechecksZ_0ppppppppppppETpppppppppppEINtB7_10CheckBytespE11check_bytess6_0B7_
FN:616,_RNCNvXINICsgBsN1nKhdxv_9bytechecksZ_0ppppppppppppETpppppppppppEINtB7_10CheckBytespE11check_bytess7_0B7_
FN:616,_RNCNvXINICsgBsN1nKhdxv_9bytechecksZ_0ppppppppppppETpppppppppppEINtB7_10CheckBytespE11check_bytess8_0B7_
FN:616,_RNCNvXINICsgBsN1nKhdxv_9bytechecksZ_0ppppppppppppETpppppppppppEINtB7_10CheckBytespE11check_bytess_0B7_
FN:676,_RNCNvXINICsgBsN1nKhdxv_9bytechecksa_0pKppEAppINtB7_10CheckBytespE11check_bytes0B7_
FN:716,_RNCNvXINICsgBsN1nKhdxv_9bytechecksc_0ppESpINtB7_10CheckBytespE11check_bytes0B7_
FN:933,_RNCNvXINICsgBsN1nKhdxv_9bytechecksl_0ppEINtNtNtCskumHb0IaX0X_4core3ops5range5RangepEINtB7_10CheckBytespE11check_bytes0B7_
FN:942,_RNCNvXINICsgBsN1nKhdxv_9bytechecksl_0ppEINtNtNtCskumHb0IaX0X_4core3ops5range5RangepEINtB7_10CheckBytespE11check_bytess_0B7_
FN:971,_RNCNvXINICsgBsN1nKhdxv_9bytechecksm_0ppEINtNtNtCskumHb0IaX0X_4core3ops5range9RangeFrompEINtB7_10CheckBytespE11check_bytes0B7_
FN:1008,_RNCNvXINICsgBsN1nKhdxv_9bytecheckso_0ppEINtNtNtCskumHb0IaX0X_4core3ops5range7RangeTopEINtB7_10CheckBytespE11check_bytes0B7_
FN:1037,_RNCNvXINICsgBsN1nKhdxv_9bytechecksp_0ppEINtNtNtCskumHb0IaX0X_4core3ops5range16RangeToInclusivepEINtB7_10CheckBytespE11check_bytes0B7_
FN:391,_RNvXINICsgBsN1nKhdxv_9bytecheck0ppEINtNtCskumHb0IaX0X_4core6marker11PhantomDatapEINtB5_10CheckBytespE11check_bytesB5_
FN:415,_RNvXINICsgBsN1nKhdxv_9bytechecks0_0ppEINtNtNtCskumHb0IaX0X_4core3mem13manually_drop12ManuallyDroppEINtB5_10CheckBytespE11check_bytesB5_
FN:604,_RNvXINICsgBsN1nKhdxv_9bytechecks10_0pppppppppppppETppppppppppppEINtB5_10CheckBytespE11check_bytesB5_
FN:604,_RNvXINICsgBsN1nKhdxv_9bytechecks11_0ppppppppppppppETpppppppppppppEINtB5_10CheckBytespE11check_bytesB5_
FN:446,_RNvXINICsgBsN1nKhdxv_9bytechecks1_0ppEINtNtCskumHb0IaX0X_4core4cell10UnsafeCellpEINtB5_10CheckBytespE11check_bytesB5_
FN:1066,_RNvXINICsgBsN1nKhdxv_9bytechecks1a_0pEINtNtNtCskumHb0IaX0X_4core3num7nonzero7NonZeroaEINtB5_10CheckBytespE11check_bytesB5_
FN:1066,_RNvXINICsgBsN1nKhdxv_9bytechecks1b_0pEINtNtNtCskumHb0IaX0X_4core3num7nonzero7NonZerosEINtB5_10CheckBytespE11check_bytesB5_
FN:1066,_RNvXINICsgBsN1nKhdxv_9bytechecks1c_0pEINtNtNtCskumHb0IaX0X_4core3num7nonzero7NonZerolEINtB5_10CheckBytespE11check_bytesB5_
FN:1066,_RNvXINICsgBsN1nKhdxv_9bytechecks1d_0pEINtNtNtCskumHb0IaX0X_4core3num7nonzero7NonZeroxEINtB5_10CheckBytespE11check_bytesB5_
FN:1066,_RNvXINICsgBsN1nKhdxv_9bytechecks1e_0pEINtNtNtCskumHb0IaX0X_4core3num7nonzero7NonZeronEINtB5_10CheckBytespE11check_bytesB5_
FN:1066,_RNvXINICsgBsN1nKhdxv_9bytechecks1f_0pEINtNtNtCskumHb0IaX0X_4core3num7nonzero7NonZerohEINtB5_10CheckBytespE11check_bytesB5_
FN:1066,_RNvXINICsgBsN1nKhdxv_9bytechecks1g_0pEINtNtNtCskumHb0IaX0X_4core3num7nonzero7NonZerotEINtB5_10CheckBytespE11check_bytesB5_
FN:1066,_RNvXINICsgBsN1nKhdxv_9bytechecks1h_0pEINtNtNtCskumHb0IaX0X_4core3num7nonzero7NonZeromEINtB5_10CheckBytespE11check_bytesB5_
FN:1066,_RNvXINICsgBsN1nKhdxv_9bytechecks1i_0pEINtNtNtCskumHb0IaX0X_4core3num7nonzero7NonZeroyEINtB5_10CheckBytespE11check_bytesB5_
FN:1066,_RNvXINICsgBsN1nKhdxv_9bytechecks1j_0pEINtNtNtCskumHb0IaX0X_4core3num7nonzero7NonZerooEINtB5_10CheckBytespE11check_bytesB5_
FN:478,_RNvXINICsgBsN1nKhdxv_9bytechecks2_0ppEINtNtCskumHb0IaX0X_4core4cell4CellpEINtB5_10CheckBytespE11check_bytesB5_
FN:525,_RNvXINICsgBsN1nKhdxv_9bytechecks5_0pEbINtB5_10CheckBytespE11check_bytesB5_
FN:550,_RNvXINICsgBsN1nKhdxv_9bytechecks6_0pEINtNtNtCskumHb0IaX0X_4core4sync6atomic6AtomicbEINtB5_10CheckBytespE11check_bytesB5_
FN:569,_RNvXINICsgBsN1nKhdxv_9bytechecks7_0pEcINtB5_10CheckBytespE11check_bytesB5_
FN:355,_RNvXINICsgBsN1nKhdxv_9bytechecksA_0pEmINtB5_10CheckBytespE11check_bytesB5_
FN:355,_RNvXINICsgBsN1nKhdxv_9bytechecksB_0pEyINtB5_10CheckBytespE11check_bytesB5_
FN:355,_RNvXINICsgBsN1nKhdxv_9bytechecksC_0pEoINtB5_10CheckBytespE11check_bytesB5_
FN:355,_RNvXINICsgBsN1nKhdxv_9bytechecksD_0pEfINtB5_10CheckBytespE11check_bytesB5_
FN:355,_RNvXINICsgBsN1nKhdxv_9bytechecksE_0pEdINtB5_10CheckBytespE11check_bytesB5_
FN:355,_RNvXINICsgBsN1nKhdxv_9bytechecksF_0pEINtNtNtCskumHb0IaX0X_4core4sync6atomic6AtomicaEINtB5_10CheckBytespE11check_bytesB5_
FN:355,_RNvXINICsgBsN1nKhdxv_9bytechecksG_0pEINtNtNtCskumHb0IaX0X_4core4sync6atomic6AtomichEINtB5_10CheckBytespE11check_bytesB5_
FN:355,_RNvXINICsgBsN1nKhdxv_9bytechecksH_0pEINtNtNtCskumHb0IaX0X_4core4sync6atomic6AtomicsEINtB5_10CheckBytespE11check_bytesB5_
FN:355,_RNvXINICsgBsN1nKhdxv_9bytechecksI_0pEINtNtNtCskumHb0IaX0X_4core4sync6atomic6AtomictEINtB5_10CheckBytespE11check_bytesB5_
FN:355,_RNvXINICsgBsN1nKhdxv_9bytechecksJ_0pEINtNtNtCskumHb0IaX0X_4core4sync6atomic6AtomiclEINtB5_10CheckBytespE11check_bytesB5_
FN:355,_RNvXINICsgBsN1nKhdxv_9bytechecksK_0pEINtNtNtCskumHb0IaX0X_4core4sync6atomic6AtomicmEINtB5_10CheckBytespE11check_bytesB5_
FN:355,_RNvXINICsgBsN1nKhdxv_9bytechecksL_0pEINtNtNtCskumHb0IaX0X_4core4sync6atomic6AtomicxEINtB5_10CheckBytespE11check_bytesB5_
FN:355,_RNvXINICsgBsN1nKhdxv_9bytechecksM_0pEINtNtNtCskumHb0IaX0X_4core4sync6atomic6AtomicyEINtB5_10CheckBytespE11check_bytesB5_
FN:604,_RNvXINICsgBsN1nKhdxv_9bytechecksP_0ppETpEINtB5_10CheckBytespE11check_bytesB5_
FN:604,_RNvXINICsgBsN1nKhdxv_9bytechecksQ_0pppETppEINtB5_10CheckBytespE11check_bytesB5_
FN:604,_RNvXINICsgBsN1nKhdxv_9bytechecksR_0ppppETpppEINtB5_10CheckBytespE11check_bytesB5_
FN:604,_RNvXINICsgBsN1nKhdxv_9bytechecksS_0pppppETppppEINtB5_10CheckBytespE11check_bytesB5_
FN:604,_RNvXINICsgBsN1nKhdxv_9bytechecksT_0ppppppETpppppEINtB5_10CheckBytespE11check_bytesB5_
FN:604,_RNvXINICsgBsN1nKhdxv_9bytechecksU_0pppppppETppppppEINtB5_10CheckBytespE11check_bytesB5_
FN:604,_RNvXINICsgBsN1nKhdxv_9bytechecksV_0ppppppppETpppppppEINtB5_10CheckBytespE11check_bytesB5_
FN:604,_RNvXINICsgBsN1nKhdxv_9bytechecksW_0pppppppppETppppppppEINtB5_10CheckBytespE11check_bytesB5_
FN:604,_RNvXINICsgBsN1nKhdxv_9bytechecksX_0ppppppppppETpppppppppEINtB5_10CheckBytespE11check_bytesB5_
FN:604,_RNvXINICsgBsN1nKhdxv_9bytechecksY_0pppppppppppETppppppppppEINtB5_10CheckBytespE11check_bytesB5_
FN:604,_RNvXINICsgBsN1nKhdxv_9bytechecksZ_0ppppppppppppETpppppppppppEINtB5_10CheckBytespE11check_bytesB5_
FN:400,_RNvXINICsgBsN1nKhdxv_9bytechecks_0pENtNtCskumHb0IaX0X_4core6marker13PhantomPinnedINtB5_10CheckBytespE11check_bytesB5_
FN:665,_RNvXINICsgBsN1nKhdxv_9bytechecksa_0pKppEAppINtB5_10CheckBytespE11check_bytesB5_
FN:704,_RNvXINICsgBsN1nKhdxv_9bytechecksc_0ppESpINtB5_10CheckBytespE11check_bytesB5_
FN:731,_RNvXINICsgBsN1nKhdxv_9bytechecksd_0pEeINtB5_10CheckBytespE11check_bytesB5_
FN:772,_RNvXINICsgBsN1nKhdxv_9bytecheckse_0pENtNtNtCskumHb0IaX0X_4core3ffi5c_str4CStrINtB5_10CheckBytespE11check_bytesB5_
FN:845,_RNvXINICsgBsN1nKhdxv_9bytechecksh_0pEINtB5_28InvalidEnumDiscriminantErrorpENtNtCskumHb0IaX0X_4core3fmt7Display3fmtB5_
FN:920,_RNvXINICsgBsN1nKhdxv_9bytechecksl_0ppEINtNtNtCskumHb0IaX0X_4core3ops5range5RangepEINtB5_10CheckBytespE11check_bytesB5_
FN:958,_RNvXINICsgBsN1nKhdxv_9bytechecksm_0ppEINtNtNtCskumHb0IaX0X_4core3ops5range9RangeFrompEINtB5_10CheckBytespE11check_bytesB5_
FN:981,_RNvXINICsgBsN1nKhdxv_9bytechecksn_0pENtNtNtCskumHb0IaX0X_4core3ops5range9RangeFullINtB5_10CheckBytespE11check_bytesB5_
FN:995,_RNvXINICsgBsN1nKhdxv_9bytecheckso_0ppEINtNtNtCskumHb0IaX0X_4core3ops5range7RangeTopEINtB5_10CheckBytespE11check_bytesB5_
FN:1024,_RNvXINICsgBsN1nKhdxv_9bytechecksp_0ppEINtNtNtCskumHb0IaX0X_4core3ops5range16RangeToInclusivepEINtB5_10CheckBytespE11check_bytesB5_
FN:355,_RNvXINICsgBsN1nKhdxv_9bytecheckss_0pEuINtB5_10CheckBytespE11check_bytesB5_
FN:355,_RNvXINICsgBsN1nKhdxv_9bytecheckst_0pEaINtB5_10CheckBytespE11check_bytesB5_
FN:355,_RNvXINICsgBsN1nKhdxv_9bytechecksu_0pEsINtB5_10CheckBytespE11check_bytesB5_
FN:355,_RNvXINICsgBsN1nKhdxv_9bytechecksv_0pElINtB5_10CheckBytespE11check_bytesB5_
FN:355,_RNvXINICsgBsN1nKhdxv_9bytechecksw_0pExINtB5_10CheckBytespE11check_bytesB5_
FN:355,_RNvXINICsgBsN1nKhdxv_9bytechecksx_0pEnINtB5_10CheckBytespE11check_bytesB5_
FN:355,_RNvXINICsgBsN1nKhdxv_9bytechecksy_0pEhINtB5_10CheckBytespE11check_bytesB5_
FN:355,_RNvXINICsgBsN1nKhdxv_9bytechecksz_0pEtINtB5_10CheckBytespE11check_bytesB5_
FN:1049,_RNvXsq_CsgBsN1nKhdxv_9bytecheckNtB5_17NonZeroCheckErrorNtNtCskumHb0IaX0X_4core3fmt7Display3fmtB5_
FNDA:0,_RNvXNvXsd_CsgBsN1nKhdxv_9bytecheckeINtB8_10CheckBytespE11check_bytesNtB2_9Utf8ErrorNtNtCskumHb0IaX0X_4core3fmt7Display3fmt
FNDA:0,_RNvXs3_CsgBsN1nKhdxv_9bytecheckNtB5_14BoolCheckErrorNtNtCskumHb0IaX0X_4core3fmt7Display3fmt
FNDA:0,_RNvXs8_CsgBsN1nKhdxv_9bytecheckNtB5_17TupleIndexContextNtNtCskumHb0IaX0X_4core3fmt7Display3fmt
FNDA:0,_RNvXs9_CsgBsN1nKhdxv_9bytecheckNtB5_17ArrayCheckContextNtNtCskumHb0IaX0X_4core3fmt7Display3fmt
FNDA:0,_RNvXsb_CsgBsN1nKhdxv_9bytecheckNtB5_17SliceCheckContextNtNtCskumHb0IaX0X_4core3fmt7Display3fmt
FNDA:0,_RNvXsf_CsgBsN1nKhdxv_9bytecheckNtB5_18StructCheckContextNtNtCskumHb0IaX0X_4core3fmt7Display3fmt
FNDA:0,_RNvXsg_CsgBsN1nKhdxv_9bytecheckNtB5_23TupleStructCheckContextNtNtCskumHb0IaX0X_4core3fmt7Display3fmt
FNDA:0,_RNvXsj_CsgBsN1nKhdxv_9bytecheckNtB5_28NamedEnumVariantCheckContextNtNtCskumHb0IaX0X_4core3fmt7Display3fmt
FNDA:0,_RNvXsk_CsgBsN1nKhdxv_9bytecheckNtB5_30UnnamedEnumVariantCheckContextNtNtCskumHb0IaX0X_4core3fmt7Display3fmt
FNDA:0,_RINvCsgBsN1nKhdxv_9bytecheck11check_bytesppEB2_
FNDA:0,_RINvCsgBsN1nKhdxv_9bytecheck24check_bytes_with_contextpppEB2_
FNDA:0,_RNCNvXINICsgBsN1nKhdxv_9bytechecks10_0pppppppppppppETppppppppppppEINtB7_10CheckBytespE11check_bytes0B7_
FNDA:0,_RNCNvXINICsgBsN1nKhdxv_9bytechecks10_0pppppppppppppETppppppppppppEINtB7_10CheckBytespE11check_bytess0_0B7_
FNDA:0,_RNCNvXINICsgBsN1nKhdxv_9bytechecks10_0pppppppppppppETppppppppppppEINtB7_10CheckBytespE11check_bytess1_0B7_
FNDA:0,_RNCNvXINICsgBsN1nKhdxv_9bytechecks10_0pppppppppppppETppppppppppppEINtB7_10CheckBytespE11check_bytess2_0B7_
FNDA:0,_RNCNvXINICsgBsN1nKhdxv_9bytechecks10_0pppppppppppppETppppppppppppEINtB7_10CheckBytespE11check_bytess3_0B7_
FNDA:0,_RNCNvXINICsgBsN1nKhdxv_9bytechecks10_0pppppppppppppETppppppppppppEINtB7_10CheckBytespE11check_bytess4_0B7_
FNDA:0,_RNCNvXINICsgBsN1nKhdxv_9bytechecks10_0pppppppppppppETppppppppppppEINtB7_10CheckBytespE11check_bytess5_0B7_
FNDA:0,_RNCNvXINICsgBsN1nKhdxv_9bytechecks10_0pppppppppppppETppppppppppppEINtB7_10CheckBytespE11check_bytess6_0B7_
FNDA:0,_RNCNvXINICsgBsN1nKhdxv_9bytechecks10_0pppppppppppppETppppppppppppEINtB7_10CheckBytespE11check_bytess7_0B7_
FNDA:0,_RNCNvXINICsgBsN1nKhdxv_9bytechecks10_0pppppppppppppETppppppppppppEINtB7_10CheckBytespE11check_bytess8_0B7_
FNDA:0,_RNCNvXINICsgBsN1nKhdxv_9bytechecks10_0pppppppppppppETppppppppppppEINtB7_10CheckBytespE11check_bytess9_0B7_
FNDA:0,_RNCNvXINICsgBsN1nKhdxv_9bytechecks10_0pppppppppppppETppppppppppppEINtB7_10CheckBytespE11check_bytess_0B7_
FNDA:0,_RNCNvXINICsgBsN1nKhdxv_9bytechecks11_0ppppppppppppppETpppppppppppppEINtB7_10CheckBytespE11check_bytes0B7_
FNDA:0,_RNCNvXINICsgBsN1nKhdxv_9bytechecks11_0ppppppppppppppETpppppppppppppEINtB7_10CheckBytespE11check_bytess0_0B7_
FNDA:0,_RNCNvXINICsgBsN1nKhdxv_9bytechecks11_0ppppppppppppppETpppppppppppppEINtB7_10CheckBytespE11check_bytess1_0B7_
FNDA:0,_RNCNvXINICsgBsN1nKhdxv_9bytechecks11_0ppppppppppppppETpppppppppppppEINtB7_10CheckBytespE11check_bytess2_0B7_
FNDA:0,_RNCNvXINICsgBsN1nKhdxv_9bytechecks11_0ppppppppppppppETpppppppppppppEINtB7_10CheckBytespE11check_bytess3_0B7_
FNDA:0,_RNCNvXINICsgBsN1nKhdxv_9bytechecks11_0ppppppppppppppETpppppppppppppEINtB7_10CheckBytespE11check_bytess4_0B7_
FNDA:0,_RNCNvXINICsgBsN1nKhdxv_9bytechecks11_0ppppppppppppppETpppppppppppppEINtB7_10CheckBytespE11check_bytess5_0B7_
FNDA:0,_RNCNvXINICsgBsN1nKhdxv_9bytechecks11_0ppppppppppppppETpppppppppppppEINtB7_10CheckBytespE11check_bytess6_0B7_
FNDA:0,_RNCNvXINICsgBsN1nKhdxv_9bytechecks11_0ppppppppppppppETpppppppppppppEINtB7_10CheckBytespE11check_bytess7_0B7_
FNDA:0,_RNCNvXINICsgBsN1nKhdxv_9bytechecks11_0ppppppppppppppETpppppppppppppEINtB7_10CheckBytespE11check_bytess8_0B7_
FNDA:0,_RNCNvXINICsgBsN1nKhdxv_9bytechecks11_0ppppppppppppppETpppppppppppppEINtB7_10CheckBytespE11check_bytess9_0B7_
FNDA:0,_RNCNvXINICsgBsN1nKhdxv_9bytechecks11_0ppppppppppppppETpppppppppppppEINtB7_10CheckBytespE11check_bytess_0B7_
FNDA:0,_RNCNvXINICsgBsN1nKhdxv_9bytechecks11_0ppppppppppppppETpppppppppppppEINtB7_10CheckBytespE11check_bytessa_0B7_
FNDA:0,_RNCNvXINICsgBsN1nKhdxv_9bytechecksP_0ppETpEINtB7_10CheckBytespE11check_bytes0B7_
FNDA:0,_RNCNvXINICsgBsN1nKhdxv_9bytechecksQ_0pppETppEINtB7_10CheckBytespE11check_bytes0B7_
FNDA:0,_RNCNvXINICsgBsN1nKhdxv_9bytechecksQ_0pppETppEINtB7_10CheckBytespE11check_bytess_0B7_
FNDA:0,_RNCNvXINICsgBsN1nKhdxv_9bytechecksR_0ppppETpppEINtB7_10CheckBytespE11check_bytes0B7_
FNDA:0,_RNCNvXINICsgBsN1nKhdxv_9bytechecksR_0ppppETpppEINtB7_10CheckBytespE11check_bytess0_0B7_
FNDA:0,_RNCNvXINICsgBsN1nKhdxv_9bytechecksR_0ppppETpppEINtB7_10CheckBytespE11check_bytess_0B7_
FNDA:0,_RNCNvXINICsgBsN1nKhdxv_9bytechecksS_0pppppETppppEINtB7_10CheckBytespE11check_bytes0B7_
FNDA:0,_RNCNvXINICsgBsN1nKhdxv_9bytechecksS_0pppppETppppEINtB7_10CheckBytespE11check_bytess0_0B7_
FNDA:0,_RNCNvXINICsgBsN1nKhdxv_9bytechecksS_0pppppETppppEINtB7_10CheckBytespE11check_bytess1_0B7_
FNDA:0,_RNCNvXINICsgBsN1nKhdxv_9bytechecksS_0pppppETppppEINtB7_10CheckBytespE11check_bytess_0B7_
FNDA:0,_RNCNvXINICsgBsN1nKhdxv_9bytechecksT_0ppppppETpppppEINtB7_10CheckBytespE11check_bytes0B7_
FNDA:0,_RNCNvXINICsgBsN1nKhdxv_9bytechecksT_0ppppppETpppppEINtB7_10CheckBytespE11check_bytess0_0B7_
FNDA:0,_RNCNvXINICsgBsN1nKhdxv_9bytechecksT_0ppppppETpppppEINtB7_10CheckBytespE11check_bytess1_0B7_
FNDA:0,_RNCNvXINICsgBsN1nKhdxv_9bytechecksT_0ppppppETpppppEINtB7_10CheckBytespE11check_bytess2_0B7_
FNDA:0,_RNCNvXINICsgBsN1nKhdxv_9bytechecksT_0ppppppETpppppEINtB7_10CheckBytespE11check_bytess_0B7_
FNDA:0,_RNCNvXINICsgBsN1nKhdxv_9bytechecksU_0pppppppETppppppEINtB7_10CheckBytespE11check_bytes0B7_
FNDA:0,_RNCNvXINICsgBsN1nKhdxv_9bytechecksU_0pppppppETppppppEINtB7_10CheckBytespE11check_bytess0_0B7_
FNDA:0,_RNCNvXINICsgBsN1nKhdxv_9bytechecksU_0pppppppETppppppEINtB7_10CheckBytespE11check_bytess1_0B7_
FNDA:0,_RNCNvXINICsgBsN1nKhdxv_9bytechecksU_0pppppppETppppppEINtB7_10CheckBytespE11check_bytess2_0B7_
FNDA:0,_RNCNvXINICsgBsN1nKhdxv_9bytechecksU_0pppppppETppppppEINtB7_10CheckBytespE11check_bytess3_0B7_
FNDA:0,_RNCNvXINICsgBsN1nKhdxv_9bytechecksU_0pppppppETppppppEINtB7_10CheckBytespE11check_bytess_0B7_
FNDA:0,_RNCNvXINICsgBsN1nKhdxv_9bytechecksV_0ppppppppETpppppppEINtB7_10CheckBytespE11check_bytes0B7_
FNDA:0,_RNCNvXINICsgBsN1nKhdxv_9bytechecksV_0ppppppppETpppppppEINtB7_10CheckBytespE11check_bytess0_0B7_
FNDA:0,_RNCNvXINICsgBsN1nKhdxv_9bytechecksV_0ppppppppETpppppppEINtB7_10CheckBytespE11check_bytess1_0B7_
FNDA:0,_RNCNvXINICsgBsN1nKhdxv_9bytechecksV_0ppppppppETpppppppEINtB7_10CheckBytespE11check_bytess2_0B7_
FNDA:0,_RNCNvXINICsgBsN1nKhdxv_9bytechecksV_0ppppppppETpppppppEINtB7_10CheckBytespE11check_bytess3_0B7_
FNDA:0,_RNCNvXINICsgBsN1nKhdxv_9bytechecksV_0ppppppppETpppppppEINtB7_10CheckBytespE11check_bytess4_0B7_
FNDA:0,_RNCNvXINICsgBsN1nKhdxv_9bytechecksV_0ppppppppETpppppppEINtB7_10CheckBytespE11check_bytess_0B7_
FNDA:0,_RNCNvXINICsgBsN1nKhdxv_9bytechecksW_0pppppppppETppppppppEINtB7_10CheckBytespE11check_bytes0B7_
FNDA:0,_RNCNvXINICsgBsN1nKhdxv_9bytechecksW_0pppppppppETppppppppEINtB7_10CheckBytespE11check_bytess0_0B7_
FNDA:0,_RNCNvXINICsgBsN1nKhdxv_9bytechecksW_0pppppppppETppppppppEINtB7_10CheckBytespE11check_bytess1_0B7_
FNDA:0,_RNCNvXINICsgBsN1nKhdxv_9bytechecksW_0pppppppppETppppppppEINtB7_10CheckBytespE11check_bytess2_0B7_
FNDA:0,_RNCNvXINICsgBsN1nKhdxv_9bytechecksW_0pppppppppETppppppppEINtB7_10CheckBytespE11check_bytess3_0B7_
FNDA:0,_RNCNvXINICsgBsN1nKhdxv_9bytechecksW_0pppppppppETppppppppEINtB7_10CheckBytespE11check_bytess4_0B7_
FNDA:0,_RNCNvXINICsgBsN1nKhdxv_9bytechecksW_0pppppppppETppppppppEINtB7_10CheckBytespE11check_bytess5_0B7_
FNDA:0,_RNCNvXINICsgBsN1nKhdxv_9bytechecksW_0pppppppppETppppppppEINtB7_10CheckBytespE11check_bytess_0B7_
FNDA:0,_RNCNvXINICsgBsN1nKhdxv_9bytechecksX_0ppppppppppETpppppppppEINtB7_10CheckBytespE11check_bytes0B7_
FNDA:0,_RNCNvXINICsgBsN1nKhdxv_9bytechecksX_0ppppppppppETpppppppppEINtB7_10CheckBytespE11check_bytess0_0B7_
FNDA:0,_RNCNvXINICsgBsN1nKhdxv_9bytechecksX_0ppppppppppETpppppppppEINtB7_10CheckBytespE11check_bytess1_0B7_
FNDA:0,_RNCNvXINICsgBsN1nKhdxv_9bytechecksX_0ppppppppppETpppppppppEINtB7_10CheckBytespE11check_bytess2_0B7_
FNDA:0,_RNCNvXINICsgBsN1nKhdxv_9bytechecksX_0ppppppppppETpppppppppEINtB7_10CheckBytespE11check_bytess3_0B7_
FNDA:0,_RNCNvXINICsgBsN1nKhdxv_9bytechecksX_0ppppppppppETpppppppppEINtB7_10CheckBytespE11check_bytess4_0B7_
FNDA:0,_RNCNvXINICsgBsN1nKhdxv_9bytechecksX_0ppppppppppETpppppppppEINtB7_10CheckBytespE11check_bytess5_0B7_
FNDA:0,_RNCNvXINICsgBsN1nKhdxv_9bytechecksX_0ppppppppppETpppppppppEINtB7_10CheckBytespE11check_bytess6_0B7_
FNDA:0,_RNCNvXINICsgBsN1nKhdxv_9bytechecksX_0ppppppppppETpppppppppEINtB7_10CheckBytespE11check_bytess_0B7_
FNDA:0,_RNCNvXINICsgBsN1nKhdxv_9bytechecksY_0pppppppppppETppppppppppEINtB7_10CheckBytespE11check_bytes0B7_
FNDA:0,_RNCNvXINICsgBsN1nKhdxv_9bytechecksY_0pppppppppppETppppppppppEINtB7_10CheckBytespE11check_bytess0_0B7_
FNDA:0,_RNCNvXINICsgBsN1nKhdxv_9bytechecksY_0pppppppppppETppppppppppEINtB7_10CheckBytespE11check_bytess1_0B7_
FNDA:0,_RNCNvXINICsgBsN1nKhdxv_9bytechecksY_0pppppppppppETppppppppppEINtB7_10CheckBytespE11check_bytess2_0B7_
FNDA:0,_RNCNvXINICsgBsN1nKhdxv_9bytechecksY_0pppppppppppETppppppppppEINtB7_10CheckBytespE11check_bytess3_0B7_
FNDA:0,_RNCNvXINICsgBsN1nKhdxv_9bytechecksY_0pppppppppppETppppppppppEINtB7_10CheckBytespE11check_bytess4_0B7_
FNDA:0,_RNCNvXINICsgBsN1nKhdxv_9bytechecksY_0pppppppppppETppppppppppEINtB7_10CheckBytespE11check_bytess5_0B7_
FNDA:0,_RNCNvXINICsgBsN1nKhdxv_9bytechecksY_0pppppppppppETppppppppppEINtB7_10CheckBytespE11check_bytess6_0B7_
FNDA:0,_RNCNvXINICsgBsN1nKhdxv_9bytechecksY_0pppppppppppETppppppppppEINtB7_10CheckBytespE11check_bytess7_0B7_
FNDA:0,_RNCNvXINICsgBsN1nKhdxv_9bytechecksY_0pppppppppppETppppppppppEINtB7_10CheckBytespE11check_bytess_0B7_
FNDA:0,_RNCNvXINICsgBsN1nKhdxv_9bytechecksZ_0ppppppppppppETpppppppppppEINtB7_10CheckBytespE11check_bytes0B7_
FNDA:0,_RNCNvXINICsgBsN1nKhdxv_9bytechecksZ_0ppppppppppppETpppppppppppEINtB7_10CheckBytespE11check_bytess0_0B7_
FNDA:0,_RNCNvXINICsgBsN1nKhdxv_9bytechecksZ_0ppppppppppppETpppppppppppEINtB7_10CheckBytespE11check_bytess1_0B7_
FNDA:0,_RNCNvXINICsgBsN1nKhdxv_9bytechecksZ_0ppppppppppppETpppppppppppEINtB7_10CheckBytespE11check_bytess2_0B7_
FNDA:0,_RNCNvXINICsgBsN1nKhdxv_9bytechecksZ_0ppppppppppppETpppppppppppEINtB7_10CheckBytespE11check_bytess3_0B7_
FNDA:0,_RNCNvXINICsgBsN1nKhdxv_9bytechecksZ_0ppppppppppppETpppppppppppEINtB7_10CheckBytespE11check_bytess4_0B7_
FNDA:0,_RNCNvXINICsgBsN1nKhdxv_9bytechecksZ_0ppppppppppppETpppppppppppEINtB7_10CheckBytespE11check_bytess5_0B7_
FNDA:0,_RNCNvXINICsgBsN1nKhdxv_9bytechecksZ_0ppppppppppppETpppppppppppEINtB7_10CheckBytespE11check_bytess6_0B7_
FNDA:0,_RNCNvXINICsgBsN1nKhdxv_9bytechecksZ_0ppppppppppppETpppppppppppEINtB7_10CheckBytespE11check_bytess7_0B7_
FNDA:0,_RNCNvXINICsgBsN1nKhdxv_9bytechecksZ_0ppppppppppppETpppppppppppEINtB7_10CheckBytespE11check_bytess8_0B7_
FNDA:0,_RNCNvXINICsgBsN1nKhdxv_9bytechecksZ_0ppppppppppppETpppppppppppEINtB7_10CheckBytespE11check_bytess_0B7_
FNDA:0,_RNCNvXINICsgBsN1nKhdxv_9bytechecksa_0pKppEAppINtB7_10CheckBytespE11check_bytes0B7_
FNDA:0,_RNCNvXINICsgBsN1nKhdxv_9bytechecksc_0ppESpINtB7_10CheckBytespE11check_bytes0B7_
FNDA:0,_RNCNvXINICsgBsN1nKhdxv_9bytechecksl_0ppEINtNtNtCskumHb0IaX0X_4core3ops5range5RangepEINtB7_10CheckBytespE11check_bytes0B7_
FNDA:0,_RNCNvXINICsgBsN1nKhdxv_9bytechecksl_0ppEINtNtNtCskumHb0IaX0X_4core3ops5range5RangepEINtB7_10CheckBytespE11check_bytess_0B7_
FNDA:0,_RNCNvXINICsgBsN1nKhdxv_9bytechecksm_0ppEINtNtNtCskumHb0IaX0X_4core3ops5range9RangeFrompEINtB7_10CheckBytespE11check_bytes0B7_
FNDA:0,_RNCNvXINICsgBsN1nKhdxv_9bytecheckso_0ppEINtNtNtCskumHb0IaX0X_4core3ops5range7RangeTopEINtB7_10CheckBytespE11check_bytes0B7_
FNDA:0,_RNCNvXINICsgBsN1nKhdxv_9bytechecksp_0ppEINtNtNtCskumHb0IaX0X_4core3ops5range16RangeToInclusivepEINtB7_10CheckBytespE11check_bytes0B7_
FNDA:0,_RNvXINICsgBsN1nKhdxv_9bytecheck0ppEINtNtCskumHb0IaX0X_4core6marker11PhantomDatapEINtB5_10CheckBytespE11check_bytesB5_
FNDA:0,_RNvXINICsgBsN1nKhdxv_9bytechecks0_0ppEINtNtNtCskumHb0IaX0X_4core3mem13manually_drop12ManuallyDroppEINtB5_10CheckBytespE11check_bytesB5_
FNDA:0,_RNvXINICsgBsN1nKhdxv_9bytechecks10_0pppppppppppppETppppppppppppEINtB5_10CheckBytespE11check_bytesB5_
FNDA:0,_RNvXINICsgBsN1nKhdxv_9bytechecks11_0ppppppppppppppETpppppppppppppEINtB5_10CheckBytespE11check_bytesB5_
FNDA:0,_RNvXINICsgBsN1nKhdxv_9bytechecks1_0ppEINtNtCskumHb0IaX0X_4core4cell10UnsafeCellpEINtB5_10CheckBytespE11check_bytesB5_
FNDA:0,_RNvXINICsgBsN1nKhdxv_9bytechecks1a_0pEINtNtNtCskumHb0IaX0X_4core3num7nonzero7NonZeroaEINtB5_10CheckBytespE11check_bytesB5_
FNDA:0,_RNvXINICsgBsN1nKhdxv_9bytechecks1b_0pEINtNtNtCskumHb0IaX0X_4core3num7nonzero7NonZerosEINtB5_10CheckBytespE11check_bytesB5_
FNDA:0,_RNvXINICsgBsN1nKhdxv_9bytechecks1c_0pEINtNtNtCskumHb0IaX0X_4core3num7nonzero7NonZerolEINtB5_10CheckBytespE11check_bytesB5_
FNDA:0,_RNvXINICsgBsN1nKhdxv_9bytechecks1d_0pEINtNtNtCskumHb0IaX0X_4core3num7nonzero7NonZeroxEINtB5_10CheckBytespE11check_bytesB5_
FNDA:0,_RNvXINICsgBsN1nKhdxv_9bytechecks1e_0pEINtNtNtCskumHb0IaX0X_4core3num7nonzero7NonZeronEINtB5_10CheckBytespE11check_bytesB5_
FNDA:0,_RNvXINICsgBsN1nKhdxv_9bytechecks1f_0pEINtNtNtCskumHb0IaX0X_4core3num7nonzero7NonZerohEINtB5_10CheckBytespE11check_bytesB5_
FNDA:0,_RNvXINICsgBsN1nKhdxv_9bytechecks1g_0pEINtNtNtCskumHb0IaX0X_4core3num7nonzero7NonZerotEINtB5_10CheckBytespE11check_bytesB5_
FNDA:0,_RNvXINICsgBsN1nKhdxv_9bytechecks1h_0pEINtNtNtCskumHb0IaX0X_4core3num7nonzero7NonZeromEINtB5_10CheckBytespE11check_bytesB5_
FNDA:0,_RNvXINICsgBsN1nKhdxv_9bytechecks1i_0pEINtNtNtCskumHb0IaX0X_4core3num7nonzero7NonZeroyEINtB5_10CheckBytespE11check_bytesB5_
FNDA:0,_RNvXINICsgBsN1nKhdxv_9bytechecks1j_0pEINtNtNtCskumHb0IaX0X_4core3num7nonzero7NonZerooEINtB5_10CheckBytespE11check_bytesB5_
FNDA:0,_RNvXINICsgBsN1nKhdxv_9bytechecks2_0ppEINtNtCskumHb0IaX0X_4core4cell4CellpEINtB5_10CheckBytespE11check_bytesB5_
FNDA:0,_RNvXINICsgBsN1nKhdxv_9bytechecks5_0pEbINtB5_10CheckBytespE11check_bytesB5_
FNDA:0,_RNvXINICsgBsN1nKhdxv_9bytechecks6_0pEINtNtNtCskumHb0IaX0X_4core4sync6atomic6AtomicbEINtB5_10CheckBytespE11check_bytesB5_
FNDA:0,_RNvXINICsgBsN1nKhdxv_9bytechecks7_0pEcINtB5_10CheckBytespE11check_bytesB5_
FNDA:0,_RNvXINICsgBsN1nKhdxv_9bytechecksA_0pEmINtB5_10CheckBytespE11check_bytesB5_
FNDA:0,_RNvXINICsgBsN1nKhdxv_9bytechecksB_0pEyINtB5_10CheckBytespE11check_bytesB5_
FNDA:0,_RNvXINICsgBsN1nKhdxv_9bytechecksC_0pEoINtB5_10CheckBytespE11check_bytesB5_
FNDA:0,_RNvXINICsgBsN1nKhdxv_9bytechecksD_0pEfINtB5_10CheckBytespE11check_bytesB5_
FNDA:0,_RNvXINICsgBsN1nKhdxv_9bytechecksE_0pEdINtB5_10CheckBytespE11check_bytesB5_
FNDA:0,_RNvXINICsgBsN1nKhdxv_9bytechecksF_0pEINtNtNtCskumHb0IaX0X_4core4sync6atomic6AtomicaEINtB5_10CheckBytespE11check_bytesB5_
FNDA:0,_RNvXINICsgBsN1nKhdxv_9bytechecksG_0pEINtNtNtCskumHb0IaX0X_4core4sync6atomic6AtomichEINtB5_10CheckBytespE11check_bytesB5_
FNDA:0,_RNvXINICsgBsN1nKhdxv_9bytechecksH_0pEINtNtNtCskumHb0IaX0X_4core4sync6atomic6AtomicsEINtB5_10CheckBytespE11check_bytesB5_
FNDA:0,_RNvXINICsgBsN1nKhdxv_9bytechecksI_0pEINtNtNtCskumHb0IaX0X_4core4sync6atomic6AtomictEINtB5_10CheckBytespE11check_bytesB5_
FNDA:0,_RNvXINICsgBsN1nKhdxv_9bytechecksJ_0pEINtNtNtCskumHb0IaX0X_4core4sync6atomic6AtomiclEINtB5_10CheckBytespE11check_bytesB5_
FNDA:0,_RNvXINICsgBsN1nKhdxv_9bytechecksK_0pEINtNtNtCskumHb0IaX0X_4core4sync6atomic6AtomicmEINtB5_10CheckBytespE11check_bytesB5_
FNDA:0,_RNvXINICsgBsN1nKhdxv_9bytechecksL_0pEINtNtNtCskumHb0IaX0X_4core4sync6atomic6AtomicxEINtB5_10CheckBytespE11check_bytesB5_
FNDA:0,_RNvXINICsgBsN1nKhdxv_9bytechecksM_0pEINtNtNtCskumHb0IaX0X_4core4sync6atomic6AtomicyEINtB5_10CheckBytespE11check_bytesB5_
FNDA:0,_RNvXINICsgBsN1nKhdxv_9bytechecksP_0ppETpEINtB5_10CheckBytespE11check_bytesB5_
FNDA:0,_RNvXINICsgBsN1nKhdxv_9bytechecksQ_0pppETppEINtB5_10CheckBytespE11check_bytesB5_
FNDA:0,_RNvXINICsgBsN1nKhdxv_9bytechecksR_0ppppETpppEINtB5_10CheckBytespE11check_bytesB5_
FNDA:0,_RNvXINICsgBsN1nKhdxv_9bytechecksS_0pppppETppppEINtB5_10CheckBytespE11check_bytesB5_
FNDA:0,_RNvXINICsgBsN1nKhdxv_9bytechecksT_0ppppppETpppppEINtB5_10CheckBytespE11check_bytesB5_
FNDA:0,_RNvXINICsgBsN1nKhdxv_9bytechecksU_0pppppppETppppppEINtB5_10CheckBytespE11check_bytesB5_
FNDA:0,_RNvXINICsgBsN1nKhdxv_9bytechecksV_0ppppppppETpppppppEINtB5_10CheckBytespE11check_bytesB5_
FNDA:0,_RNvXINICsgBsN1nKhdxv_9bytechecksW_0pppppppppETppppppppEINtB5_10CheckBytespE11check_bytesB5_
FNDA:0,_RNvXINICsgBsN1nKhdxv_9bytechecksX_0ppppppppppETpppppppppEINtB5_10CheckBytespE11check_bytesB5_
FNDA:0,_RNvXINICsgBsN1nKhdxv_9bytechecksY_0pppppppppppETppppppppppEINtB5_10CheckBytespE11check_bytesB5_
FNDA:0,_RNvXINICsgBsN1nKhdxv_9bytechecksZ_0ppppppppppppETpppppppppppEINtB5_10CheckBytespE11check_bytesB5_
FNDA:0,_RNvXINICsgBsN1nKhdxv_9bytechecks_0pENtNtCskumHb0IaX0X_4core6marker13PhantomPinnedINtB5_10CheckBytespE11check_bytesB5_
FNDA:0,_RNvXINICsgBsN1nKhdxv_9bytechecksa_0pKppEAppINtB5_10CheckBytespE11check_bytesB5_
FNDA:0,_RNvXINICsgBsN1nKhdxv_9bytechecksc_0ppESpINtB5_10CheckBytespE11check_bytesB5_
FNDA:0,_RNvXINICsgBsN1nKhdxv_9bytechecksd_0pEeINtB5_10CheckBytespE11check_bytesB5_
FNDA:0,_RNvXINICsgBsN1nKhdxv_9bytecheckse_0pENtNtNtCskumHb0IaX0X_4core3ffi5c_str4CStrINtB5_10CheckBytespE11check_bytesB5_
FNDA:0,_RNvXINICsgBsN1nKhdxv_9bytechecksh_0pEINtB5_28InvalidEnumDiscriminantErrorpENtNtCskumHb0IaX0X_4core3fmt7Display3fmtB5_
FNDA:0,_RNvXINICsgBsN1nKhdxv_9bytechecksl_0ppEINtNtNtCskumHb0IaX0X_4core3ops5range5RangepEINtB5_10CheckBytespE11check_bytesB5_
FNDA:0,_RNvXINICsgBsN1nKhdxv_9bytechecksm_0ppEINtNtNtCskumHb0IaX0X_4core3ops5range9RangeFrompEINtB5_10CheckBytespE11check_bytesB5_
FNDA:0,_RNvXINICsgBsN1nKhdxv_9bytechecksn_0pENtNtNtCskumHb0IaX0X_4core3ops5range9RangeFullINtB5_10CheckBytespE11check_bytesB5_
FNDA:0,_RNvXINICsgBsN1nKhdxv_9bytecheckso_0ppEINtNtNtCskumHb0IaX0X_4core3ops5range7RangeTopEINtB5_10CheckBytespE11check_bytesB5_
FNDA:0,_RNvXINICsgBsN1nKhdxv_9bytechecksp_0ppEINtNtNtCskumHb0IaX0X_4core3ops5range16RangeToInclusivepEINtB5_10CheckBytespE11check_bytesB5_
FNDA:0,_RNvXINICsgBsN1nKhdxv_9bytecheckss_0pEuINtB5_10CheckBytespE11check_bytesB5_
FNDA:0,_RNvXINICsgBsN1nKhdxv_9bytecheckst_0pEaINtB5_10CheckBytespE11check_bytesB5_
FNDA:0,_RNvXINICsgBsN1nKhdxv_9bytechecksu_0pEsINtB5_10CheckBytespE11check_bytesB5_
FNDA:0,_RNvXINICsgBsN1nKhdxv_9bytechecksv_0pElINtB5_10CheckBytespE11check_bytesB5_
FNDA:0,_RNvXINICsgBsN1nKhdxv_9bytechecksw_0pExINtB5_10CheckBytespE11check_bytesB5_
FNDA:0,_RNvXINICsgBsN1nKhdxv_9bytechecksx_0pEnINtB5_10CheckBytespE11check_bytesB5_
FNDA:0,_RNvXINICsgBsN1nKhdxv_9bytechecksy_0pEhINtB5_10CheckBytespE11check_bytesB5_
FNDA:0,_RNvXINICsgBsN1nKhdxv_9bytechecksz_0pEtINtB5_10CheckBytespE11check_bytesB5_
FNDA:0,_RNvXsq_CsgBsN1nKhdxv_9bytecheckNtB5_17NonZeroCheckErrorNtNtCskumHb0IaX0X_4core3fmt7Display3fmtB5_
FNF:41
FNH:0
DA:249,0
DA:250,0
DA:251,0
DA:255,0
DA:256,0
DA:338,0
DA:339,0
DA:340,0
DA:341,0
DA:342,0
DA:343,0
DA:347,0
DA:348,0
DA:355,0
DA:356,0
DA:357,0
DA:358,0
DA:359,0
DA:360,0
DA:391,0
DA:392,0
DA:393,0
DA:400,0
DA:401,0
DA:402,0
DA:415,0
DA:416,0
DA:417,0
DA:418,0
DA:423,0
DA:424,0
DA:431,0
DA:432,0
DA:434,0
DA:446,0
DA:447,0
DA:448,0
DA:449,0
DA:454,0
DA:455,0
DA:462,0
DA:463,0
DA:465,0
DA:478,0
DA:479,0
DA:480,0
DA:481,0
DA:486,0
DA:487,0
DA:494,0
DA:495,0
DA:497,0
DA:506,0
DA:507,0
DA:508,0
DA:512,0
DA:525,0
DA:526,0
DA:527,0
DA:528,0
DA:533,0
DA:534,0
DA:535,0
DA:536,0
DA:538,0
DA:550,0
DA:551,0
DA:552,0
DA:553,0
DA:557,0
DA:558,0
DA:569,0
DA:574,0
DA:575,0
DA:576,0
DA:577,0
DA:586,0
DA:587,0
DA:588,0
DA:604,0
DA:605,0
DA:606,0
DA:607,0
DA:613,0
DA:614,0
DA:615,0
DA:616,0
DA:619,0
DA:620,0
DA:650,0
DA:651,0
DA:652,0
DA:665,0
DA:666,0
DA:667,0
DA:668,0
DA:669,0
DA:670,0
DA:675,0
DA:676,0
DA:679,0
DA:680,0
DA:689,0
DA:690,0
DA:691,0
DA:704,0
DA:705,0
DA:706,0
DA:707,0
DA:708,0
DA:709,0
DA:710,0
DA:715,0
DA:716,0
DA:719,0
DA:720,0
DA:731,0
DA:732,0
DA:733,0
DA:734,0
DA:739,0
DA:740,0
DA:741,0
DA:746,0
DA:751,0
DA:756,0
DA:757,0
DA:758,0
DA:760,0
DA:761,0
DA:772,0
DA:773,0
DA:774,0
DA:775,0
DA:776,0
DA:780,0
DA:781,0
DA:782,0
DA:783,0
DA:801,0
DA:802,0
DA:803,0
DA:807,0
DA:823,0
DA:824,0
DA:825,0
DA:829,0
DA:845,0
DA:846,0
DA:847,0
DA:851,0
DA:874,0
DA:875,0
DA:876,0
DA:880,0
DA:899,0
DA:900,0
DA:901,0
DA:905,0
DA:920,0
DA:921,0
DA:922,0
DA:923,0
DA:929,0
DA:933,0
DA:934,0
DA:938,0
DA:942,0
DA:943,0
DA:945,0
DA:946,0
DA:958,0
DA:959,0
DA:960,0
DA:961,0
DA:967,0
DA:971,0
DA:972,0
DA:974,0
DA:975,0
DA:981,0
DA:982,0
DA:983,0
DA:995,0
DA:996,0
DA:997,0
DA:998,0
DA:1004,0
DA:1008,0
DA:1009,0
DA:1011,0
DA:1012,0
DA:1024,0
DA:1025,0
DA:1026,0
DA:1027,0
DA:1033,0
DA:1037,0
DA:1038,0
DA:1040,0
DA:1041,0
DA:1049,0
DA:1050,0
DA:1051,0
DA:1066,0
DA:1067,0
DA:1068,0
DA:1069,0
DA:1074,0
DA:1075,0
DA:1077,0
DA:1079,0
BRF:0
BRH:0
LF:215
LH:0
end_of_record
SF:/Users/kuangtalin/.cargo/registry/src/index.crates.io-1949cf8c6b5b557f/byteorder-1.5.0/src/lib.rs
FN:2133,_RNvXs1_CsfvSrsARBIkZ_9byteorderNtB5_12LittleEndianNtB5_9ByteOrder8read_u32CsbqDAbiV90R9_6hash32
FNDA:0,_RNvXs1_CsfvSrsARBIkZ_9byteorderNtB5_12LittleEndianNtB5_9ByteOrder8read_u32CsbqDAbiV90R9_6hash32
FNF:1
FNH:0
DA:2133,0
DA:2134,0
DA:2135,0
BRF:0
BRH:0
LF:3
LH:0
end_of_record
SF:/Users/kuangtalin/.cargo/registry/src/index.crates.io-1949cf8c6b5b557f/curve25519-dalek-4.1.3/src/backend/mod.rs
FN:227,_RNvNtCs1FafBRGY5sc_16curve25519_dalek7backend17variable_base_mul
FN:55,_RNvNtCs1FafBRGY5sc_16curve25519_dalek7backend20get_selected_backendB3_
FN:241,_RNvNtCs1FafBRGY5sc_16curve25519_dalek7backend23vartime_double_base_mul
FNDA:0,_RNvNtCs1FafBRGY5sc_16curve25519_dalek7backend17variable_base_mul
FNDA:0,_RNvNtCs1FafBRGY5sc_16curve25519_dalek7backend20get_selected_backendB3_
FNDA:0,_RNvNtCs1FafBRGY5sc_16curve25519_dalek7backend23vartime_double_base_mul
FNF:3
FNH:0
DA:55,0
DA:74,0
DA:75,0
DA:227,0
DA:228,0
DA:235,0
DA:237,0
DA:241,0
DA:242,0
DA:249,0
DA:251,0
BRF:0
BRH:0
LF:11
LH:0
end_of_record
SF:/Users/kuangtalin/.cargo/registry/src/index.crates.io-1949cf8c6b5b557f/curve25519-dalek-4.1.3/src/backend/serial/curve_models/mod.rs
FN:338,_RNvMs6_NtNtNtCs1FafBRGY5sc_16curve25519_dalek7backend6serial12curve_modelsNtB5_15ProjectivePoint11as_extended
FN:365,_RNvMs7_NtNtNtCs1FafBRGY5sc_16curve25519_dalek7backend6serial12curve_modelsNtB5_14CompletedPoint11as_extended
FN:353,_RNvMs7_NtNtNtCs1FafBRGY5sc_16curve25519_dalek7backend6serial12curve_modelsNtB5_14CompletedPoint13as_projective
FN:381,_RNvMs8_NtNtNtCs1FafBRGY5sc_16curve25519_dalek7backend6serial12curve_modelsNtB5_15ProjectivePoint6double
FN:230,_RNvXNtNtNtCs1FafBRGY5sc_16curve25519_dalek7backend6serial12curve_modelsNtB2_15ProjectivePointNtNtB8_6traits8Identity8identity
FN:251,_RNvXs0_NtNtNtCs1FafBRGY5sc_16curve25519_dalek7backend6serial12curve_modelsNtB5_20ProjectiveNielsPointNtNtCskumHb0IaX0X_4core7default7Default7default
FN:257,_RNvXs1_NtNtNtCs1FafBRGY5sc_16curve25519_dalek7backend6serial12curve_modelsNtB5_16AffineNielsPointNtNtBb_6traits8Identity8identity
FN:267,_RNvXs2_NtNtNtCs1FafBRGY5sc_16curve25519_dalek7backend6serial12curve_modelsNtB5_16AffineNielsPointNtNtCskumHb0IaX0X_4core7default7Default7default
FN:277,_RNvXs3_NtNtNtCs1FafBRGY5sc_16curve25519_dalek7backend6serial12curve_modelsNtB5_15ProjectivePointNtNtBb_6traits13ValidityCheck8is_valid
FN:305,_RNvXs4_NtNtNtCs1FafBRGY5sc_16curve25519_dalek7backend6serial12curve_modelsNtB5_20ProjectiveNielsPointNtCseqNv8GKTA9D_6subtle23ConditionallySelectable18conditional_assign
FN:296,_RNvXs4_NtNtNtCs1FafBRGY5sc_16curve25519_dalek7backend6serial12curve_modelsNtB5_20ProjectiveNielsPointNtCseqNv8GKTA9D_6subtle23ConditionallySelectable18conditional_select
FN:322,_RNvXs5_NtNtNtCs1FafBRGY5sc_16curve25519_dalek7backend6serial12curve_modelsNtB5_16AffineNielsPointNtCseqNv8GKTA9D_6subtle23ConditionallySelectable18conditional_assign
FN:314,_RNvXs5_NtNtNtCs1FafBRGY5sc_16curve25519_dalek7backend6serial12curve_modelsNtB5_16AffineNielsPointNtCseqNv8GKTA9D_6subtle23ConditionallySelectable18conditional_select
FN:414,_RNvXs9_NtNtNtCs1FafBRGY5sc_16curve25519_dalek7backend6serial12curve_modelsRNtNtBb_7edwards12EdwardsPointINtNtNtCskumHb0IaX0X_4core3ops5arith3AddRNtB5_20ProjectiveNielsPointE3add
FN:240,_RNvXs_NtNtNtCs1FafBRGY5sc_16curve25519_dalek7backend6serial12curve_modelsNtB4_20ProjectiveNielsPointNtNtBa_6traits8Identity8identity
FN:436,_RNvXsa_NtNtNtCs1FafBRGY5sc_16curve25519_dalek7backend6serial12curve_modelsRNtNtBb_7edwards12EdwardsPointINtNtNtCskumHb0IaX0X_4core3ops5arith3SubRNtB5_20ProjectiveNielsPointE3sub
FN:458,_RNvXsb_NtNtNtCs1FafBRGY5sc_16curve25519_dalek7backend6serial12curve_modelsRNtNtBb_7edwards12EdwardsPointINtNtNtCskumHb0IaX0X_4core3ops5arith3AddRNtB5_16AffineNielsPointE3add
FN:479,_RNvXsc_NtNtNtCs1FafBRGY5sc_16curve25519_dalek7backend6serial12curve_modelsRNtNtBb_7edwards12EdwardsPointINtNtNtCskumHb0IaX0X_4core3ops5arith3SubRNtB5_16AffineNielsPointE3sub
FN:503,_RNvXsd_NtNtNtCs1FafBRGY5sc_16curve25519_dalek7backend6serial12curve_modelsRNtB5_20ProjectiveNielsPointNtNtNtCskumHb0IaX0X_4core3ops5arith3Neg3neg
FN:516,_RNvXse_NtNtNtCs1FafBRGY5sc_16curve25519_dalek7backend6serial12curve_modelsRNtB5_16AffineNielsPointNtNtNtCskumHb0IaX0X_4core3ops5arith3Neg3neg
FN:530,_RNvXsf_NtNtNtCs1FafBRGY5sc_16curve25519_dalek7backend6serial12curve_modelsNtB5_15ProjectivePointNtNtCskumHb0IaX0X_4core3fmt5Debug3fmt
FN:540,_RNvXsg_NtNtNtCs1FafBRGY5sc_16curve25519_dalek7backend6serial12curve_modelsNtB5_14CompletedPointNtNtCskumHb0IaX0X_4core3fmt5Debug3fmt
FN:550,_RNvXsh_NtNtNtCs1FafBRGY5sc_16curve25519_dalek7backend6serial12curve_modelsNtB5_16AffineNielsPointNtNtCskumHb0IaX0X_4core3fmt5Debug3fmt
FN:560,_RNvXsi_NtNtNtCs1FafBRGY5sc_16curve25519_dalek7backend6serial12curve_modelsNtB5_20ProjectiveNielsPointNtNtCskumHb0IaX0X_4core3fmt5Debug3fmt
FNDA:0,_RNvMs6_NtNtNtCs1FafBRGY5sc_16curve25519_dalek7backend6serial12curve_modelsNtB5_15ProjectivePoint11as_extended
FNDA:0,_RNvMs7_NtNtNtCs1FafBRGY5sc_16curve25519_dalek7backend6serial12curve_modelsNtB5_14CompletedPoint11as_extended
FNDA:0,_RNvMs7_NtNtNtCs1FafBRGY5sc_16curve25519_dalek7backend6serial12curve_modelsNtB5_14CompletedPoint13as_projective
FNDA:0,_RNvMs8_NtNtNtCs1FafBRGY5sc_16curve25519_dalek7backend6serial12curve_modelsNtB5_15ProjectivePoint6double
FNDA:0,_RNvXNtNtNtCs1FafBRGY5sc_16curve25519_dalek7backend6serial12curve_modelsNtB2_15ProjectivePointNtNtB8_6traits8Identity8identity
FNDA:0,_RNvXs0_NtNtNtCs1FafBRGY5sc_16curve25519_dalek7backend6serial12curve_modelsNtB5_20ProjectiveNielsPointNtNtCskumHb0IaX0X_4core7default7Default7default
FNDA:0,_RNvXs1_NtNtNtCs1FafBRGY5sc_16curve25519_dalek7backend6serial12curve_modelsNtB5_16AffineNielsPointNtNtBb_6traits8Identity8identity
FNDA:0,_RNvXs2_NtNtNtCs1FafBRGY5sc_16curve25519_dalek7backend6serial12curve_modelsNtB5_16AffineNielsPointNtNtCskumHb0IaX0X_4core7default7Default7default
FNDA:0,_RNvXs3_NtNtNtCs1FafBRGY5sc_16curve25519_dalek7backend6serial12curve_modelsNtB5_15ProjectivePointNtNtBb_6traits13ValidityCheck8is_valid
FNDA:0,_RNvXs4_NtNtNtCs1FafBRGY5sc_16curve25519_dalek7backend6serial12curve_modelsNtB5_20ProjectiveNielsPointNtCseqNv8GKTA9D_6subtle23ConditionallySelectable18conditional_assign
FNDA:0,_RNvXs4_NtNtNtCs1FafBRGY5sc_16curve25519_dalek7backend6serial12curve_modelsNtB5_20ProjectiveNielsPointNtCseqNv8GKTA9D_6subtle23ConditionallySelectable18conditional_select
FNDA:0,_RNvXs5_NtNtNtCs1FafBRGY5sc_16curve25519_dalek7backend6serial12curve_modelsNtB5_16AffineNielsPointNtCseqNv8GKTA9D_6subtle23ConditionallySelectable18conditional_assign
FNDA:0,_RNvXs5_NtNtNtCs1FafBRGY5sc_16curve25519_dalek7backend6serial12curve_modelsNtB5_16AffineNielsPointNtCseqNv8GKTA9D_6subtle23ConditionallySelectable18conditional_select
FNDA:0,_RNvXs9_NtNtNtCs1FafBRGY5sc_16curve25519_dalek7backend6serial12curve_modelsRNtNtBb_7edwards12EdwardsPointINtNtNtCskumHb0IaX0X_4core3ops5arith3AddRNtB5_20ProjectiveNielsPointE3add
FNDA:0,_RNvXs_NtNtNtCs1FafBRGY5sc_16curve25519_dalek7backend6serial12curve_modelsNtB4_20ProjectiveNielsPointNtNtBa_6traits8Identity8identity
FNDA:0,_RNvXsa_NtNtNtCs1FafBRGY5sc_16curve25519_dalek7backend6serial12curve_modelsRNtNtBb_7edwards12EdwardsPointINtNtNtCskumHb0IaX0X_4core3ops5arith3SubRNtB5_20ProjectiveNielsPointE3sub
FNDA:0,_RNvXsb_NtNtNtCs1FafBRGY5sc_16curve25519_dalek7backend6serial12curve_modelsRNtNtBb_7edwards12EdwardsPointINtNtNtCskumHb0IaX0X_4core3ops5arith3AddRNtB5_16AffineNielsPointE3add
FNDA:0,_RNvXsc_NtNtNtCs1FafBRGY5sc_16curve25519_dalek7backend6serial12curve_modelsRNtNtBb_7edwards12EdwardsPointINtNtNtCskumHb0IaX0X_4core3ops5arith3SubRNtB5_16AffineNielsPointE3sub
FNDA:0,_RNvXsd_NtNtNtCs1FafBRGY5sc_16curve25519_dalek7backend6serial12curve_modelsRNtB5_20ProjectiveNielsPointNtNtNtCskumHb0IaX0X_4core3ops5arith3Neg3neg
FNDA:0,_RNvXse_NtNtNtCs1FafBRGY5sc_16curve25519_dalek7backend6serial12curve_modelsRNtB5_16AffineNielsPointNtNtNtCskumHb0IaX0X_4core3ops5arith3Neg3neg
FNDA:0,_RNvXsf_NtNtNtCs1FafBRGY5sc_16curve25519_dalek7backend6serial12curve_modelsNtB5_15ProjectivePointNtNtCskumHb0IaX0X_4core3fmt5Debug3fmt
FNDA:0,_RNvXsg_NtNtNtCs1FafBRGY5sc_16curve25519_dalek7backend6serial12curve_modelsNtB5_14CompletedPointNtNtCskumHb0IaX0X_4core3fmt5Debug3fmt
FNDA:0,_RNvXsh_NtNtNtCs1FafBRGY5sc_16curve25519_dalek7backend6serial12curve_modelsNtB5_16AffineNielsPointNtNtCskumHb0IaX0X_4core3fmt5Debug3fmt
FNDA:0,_RNvXsi_NtNtNtCs1FafBRGY5sc_16curve25519_dalek7backend6serial12curve_modelsNtB5_20ProjectiveNielsPointNtNtCskumHb0IaX0X_4core3fmt5Debug3fmt
FNF:24
FNH:0
DA:230,0
DA:231,0
DA:232,0
DA:233,0
DA:234,0
DA:235,0
DA:236,0
DA:240,0
DA:241,0
DA:242,0
DA:243,0
DA:244,0
DA:245,0
DA:246,0
DA:247,0
DA:251,0
DA:252,0
DA:253,0
DA:257,0
DA:258,0
DA:259,0
DA:260,0
DA:261,0
DA:262,0
DA:263,0
DA:267,0
DA:268,0
DA:269,0
DA:277,0
DA:280,0
DA:281,0
DA:282,0
DA:283,0
DA:284,0
DA:285,0
DA:287,0
DA:288,0
DA:296,0
DA:297,0
DA:298,0
DA:299,0
DA:300,0
DA:301,0
DA:302,0
DA:303,0
DA:305,0
DA:306,0
DA:307,0
DA:308,0
DA:309,0
DA:310,0
DA:314,0
DA:315,0
DA:316,0
DA:317,0
DA:318,0
DA:319,0
DA:320,0
DA:322,0
DA:323,0
DA:324,0
DA:325,0
DA:326,0
DA:338,0
DA:339,0
DA:340,0
DA:341,0
DA:342,0
DA:343,0
DA:344,0
DA:345,0
DA:353,0
DA:354,0
DA:355,0
DA:356,0
DA:357,0
DA:358,0
DA:359,0
DA:365,0
DA:366,0
DA:367,0
DA:368,0
DA:369,0
DA:370,0
DA:371,0
DA:372,0
DA:381,0
DA:383,0
DA:384,0
DA:385,0
DA:386,0
DA:387,0
DA:388,0
DA:389,0
DA:391,0
DA:392,0
DA:393,0
DA:394,0
DA:395,0
DA:396,0
DA:397,0
DA:414,0
DA:415,0
DA:416,0
DA:417,0
DA:418,0
DA:419,0
DA:420,0
DA:421,0
DA:423,0
DA:424,0
DA:425,0
DA:426,0
DA:427,0
DA:428,0
DA:429,0
DA:436,0
DA:437,0
DA:438,0
DA:439,0
DA:440,0
DA:441,0
DA:442,0
DA:443,0
DA:445,0
DA:446,0
DA:447,0
DA:448,0
DA:449,0
DA:450,0
DA:451,0
DA:458,0
DA:459,0
DA:460,0
DA:461,0
DA:462,0
DA:463,0
DA:464,0
DA:466,0
DA:467,0
DA:468,0
DA:469,0
DA:470,0
DA:471,0
DA:472,0
DA:479,0
DA:480,0
DA:481,0
DA:482,0
DA:483,0
DA:484,0
DA:485,0
DA:487,0
DA:488,0
DA:489,0
DA:490,0
DA:491,0
DA:492,0
DA:493,0
DA:503,0
DA:504,0
DA:505,0
DA:506,0
DA:507,0
DA:508,0
DA:509,0
DA:510,0
DA:516,0
DA:517,0
DA:518,0
DA:519,0
DA:520,0
DA:521,0
DA:522,0
DA:530,0
DA:531,0
DA:532,0
DA:534,0
DA:536,0
DA:540,0
DA:541,0
DA:542,0
DA:544,0
DA:546,0
DA:550,0
DA:551,0
DA:552,0
DA:554,0
DA:556,0
DA:560,0
DA:561,0
DA:562,0
DA:563,0
BRF:0
BRH:0
LF:193
LH:0
end_of_record
SF:/Users/kuangtalin/.cargo/registry/src/index.crates.io-1949cf8c6b5b557f/curve25519-dalek-4.1.3/src/backend/serial/scalar_mul/variable_base.rs
FN:11,_RNvNtNtNtNtCs1FafBRGY5sc_16curve25519_dalek7backend6serial10scalar_mul13variable_base3mul
FNDA:0,_RNvNtNtNtNtCs1FafBRGY5sc_16curve25519_dalek7backend6serial10scalar_mul13variable_base3mul
FNF:1
FNH:0
DA:11,0
DA:13,0
DA:20,0
DA:31,0
DA:32,0
DA:34,0
DA:35,0
DA:36,0
DA:37,0
DA:38,0
DA:39,0
DA:40,0
DA:41,0
DA:42,0
DA:43,0
DA:44,0
DA:45,0
DA:46,0
DA:47,0
DA:48,0
BRF:0
BRH:0
LF:20
LH:0
end_of_record
SF:/Users/kuangtalin/.cargo/registry/src/index.crates.io-1949cf8c6b5b557f/curve25519-dalek-4.1.3/src/backend/serial/scalar_mul/vartime_double_base.rs
FN:23,_RNvNtNtNtNtCs1FafBRGY5sc_16curve25519_dalek7backend6serial10scalar_mul19vartime_double_base3mul
FNDA:0,_RNvNtNtNtNtCs1FafBRGY5sc_16curve25519_dalek7backend6serial10scalar_mul19vartime_double_base3mul
FNF:1
FNH:0
DA:23,0
DA:24,0
DA:29,0
DA:32,0
DA:33,0
DA:34,0
DA:35,0
DA:36,0
DA:37,0
DA:40,0
DA:44,0
DA:45,0
DA:47,0
DA:49,0
DA:51,0
DA:52,0
DA:53,0
DA:54,0
DA:57,0
DA:58,0
DA:59,0
DA:60,0
DA:63,0
DA:65,0
DA:66,0
DA:67,0
DA:68,0
DA:71,0
DA:72,0
BRF:0
BRH:0
LF:29
LH:0
end_of_record
SF:/Users/kuangtalin/.cargo/registry/src/index.crates.io-1949cf8c6b5b557f/curve25519-dalek-4.1.3/src/backend/serial/u64/field.rs
FN:339,_RNCNvMs7_NtNtNtNtCs1FafBRGY5sc_16curve25519_dalek7backend6serial3u645fieldNtB7_14FieldElement5110from_bytes0Bf_
FN:338,_RNvMs7_NtNtNtNtCs1FafBRGY5sc_16curve25519_dalek7backend6serial3u645fieldNtB5_14FieldElement5110from_bytes
FN:258,_RNvMs7_NtNtNtNtCs1FafBRGY5sc_16curve25519_dalek7backend6serial3u645fieldNtB5_14FieldElement5110from_limbs
FN:454,_RNvMs7_NtNtNtNtCs1FafBRGY5sc_16curve25519_dalek7backend6serial3u645fieldNtB5_14FieldElement515pow2k
FN:276,_RNvMs7_NtNtNtNtCs1FafBRGY5sc_16curve25519_dalek7backend6serial3u645fieldNtB5_14FieldElement516negate
FN:290,_RNvMs7_NtNtNtNtCs1FafBRGY5sc_16curve25519_dalek7backend6serial3u645fieldNtB5_14FieldElement516reduce
FN:562,_RNvMs7_NtNtNtNtCs1FafBRGY5sc_16curve25519_dalek7backend6serial3u645fieldNtB5_14FieldElement516square
FN:567,_RNvMs7_NtNtNtNtCs1FafBRGY5sc_16curve25519_dalek7backend6serial3u645fieldNtB5_14FieldElement517square2
FN:368,_RNvMs7_NtNtNtNtCs1FafBRGY5sc_16curve25519_dalek7backend6serial3u645fieldNtB5_14FieldElement518as_bytes
FN:460,_RNvNvMs7_NtNtNtNtCs1FafBRGY5sc_16curve25519_dalek7backend6serial3u645fieldNtB7_14FieldElement515pow2k1m
FN:119,_RNvNvXs4_NtNtNtNtCs1FafBRGY5sc_16curve25519_dalek7backend6serial3u645fieldRNtB7_14FieldElement51NtNtNtCskumHb0IaX0X_4core3ops5arith3Mul3mul1m
FN:46,_RNvXNtNtNtNtCs1FafBRGY5sc_16curve25519_dalek7backend6serial3u645fieldNtB2_14FieldElement51NtNtCskumHb0IaX0X_4core3fmt5Debug3fmt
FN:68,_RNvXs0_NtNtNtNtCs1FafBRGY5sc_16curve25519_dalek7backend6serial3u645fieldRNtB5_14FieldElement51NtNtNtCskumHb0IaX0X_4core3ops5arith3Add3add
FN:76,_RNvXs1_NtNtNtNtCs1FafBRGY5sc_16curve25519_dalek7backend6serial3u645fieldNtB5_14FieldElement51INtNtNtCskumHb0IaX0X_4core3ops5arith9SubAssignRB18_E10sub_assign
FN:84,_RNvXs2_NtNtNtNtCs1FafBRGY5sc_16curve25519_dalek7backend6serial3u645fieldRNtB5_14FieldElement51NtNtNtCskumHb0IaX0X_4core3ops5arith3Sub3sub
FN:105,_RNvXs3_NtNtNtNtCs1FafBRGY5sc_16curve25519_dalek7backend6serial3u645fieldNtB5_14FieldElement51INtNtNtCskumHb0IaX0X_4core3ops5arith9MulAssignRB18_E10mul_assign
FN:115,_RNvXs4_NtNtNtNtCs1FafBRGY5sc_16curve25519_dalek7backend6serial3u645fieldRNtB5_14FieldElement51NtNtNtCskumHb0IaX0X_4core3ops5arith3Mul3mul
FN:218,_RNvXs5_NtNtNtNtCs1FafBRGY5sc_16curve25519_dalek7backend6serial3u645fieldRNtB5_14FieldElement51NtNtNtCskumHb0IaX0X_4core3ops5arith3Neg3neg
FN:240,_RNvXs6_NtNtNtNtCs1FafBRGY5sc_16curve25519_dalek7backend6serial3u645fieldNtB5_14FieldElement51NtCseqNv8GKTA9D_6subtle23ConditionallySelectable16conditional_swap
FN:248,_RNvXs6_NtNtNtNtCs1FafBRGY5sc_16curve25519_dalek7backend6serial3u645fieldNtB5_14FieldElement51NtCseqNv8GKTA9D_6subtle23ConditionallySelectable18conditional_assign
FN:226,_RNvXs6_NtNtNtNtCs1FafBRGY5sc_16curve25519_dalek7backend6serial3u645fieldNtB5_14FieldElement51NtCseqNv8GKTA9D_6subtle23ConditionallySelectable18conditional_select
FN:59,_RNvXs_NtNtNtNtCs1FafBRGY5sc_16curve25519_dalek7backend6serial3u645fieldNtB4_14FieldElement51INtNtNtCskumHb0IaX0X_4core3ops5arith9AddAssignRB17_E10add_assign
FNDA:0,_RNCNvMs7_NtNtNtNtCs1FafBRGY5sc_16curve25519_dalek7backend6serial3u645fieldNtB7_14FieldElement5110from_bytes0Bf_
FNDA:0,_RNvMs7_NtNtNtNtCs1FafBRGY5sc_16curve25519_dalek7backend6serial3u645fieldNtB5_14FieldElement5110from_bytes
FNDA:0,_RNvMs7_NtNtNtNtCs1FafBRGY5sc_16curve25519_dalek7backend6serial3u645fieldNtB5_14FieldElement5110from_limbs
FNDA:0,_RNvMs7_NtNtNtNtCs1FafBRGY5sc_16curve25519_dalek7backend6serial3u645fieldNtB5_14FieldElement515pow2k
FNDA:0,_RNvMs7_NtNtNtNtCs1FafBRGY5sc_16curve25519_dalek7backend6serial3u645fieldNtB5_14FieldElement516negate
FNDA:0,_RNvMs7_NtNtNtNtCs1FafBRGY5sc_16curve25519_dalek7backend6serial3u645fieldNtB5_14FieldElement516reduce
FNDA:0,_RNvMs7_NtNtNtNtCs1FafBRGY5sc_16curve25519_dalek7backend6serial3u645fieldNtB5_14FieldElement516square
FNDA:0,_RNvMs7_NtNtNtNtCs1FafBRGY5sc_16curve25519_dalek7backend6serial3u645fieldNtB5_14FieldElement517square2
FNDA:0,_RNvMs7_NtNtNtNtCs1FafBRGY5sc_16curve25519_dalek7backend6serial3u645fieldNtB5_14FieldElement518as_bytes
FNDA:0,_RNvNvMs7_NtNtNtNtCs1FafBRGY5sc_16curve25519_dalek7backend6serial3u645fieldNtB7_14FieldElement515pow2k1m
FNDA:0,_RNvNvXs4_NtNtNtNtCs1FafBRGY5sc_16curve25519_dalek7backend6serial3u645fieldRNtB7_14FieldElement51NtNtNtCskumHb0IaX0X_4core3ops5arith3Mul3mul1m
FNDA:0,_RNvXNtNtNtNtCs1FafBRGY5sc_16curve25519_dalek7backend6serial3u645fieldNtB2_14FieldElement51NtNtCskumHb0IaX0X_4core3fmt5Debug3fmt
FNDA:0,_RNvXs0_NtNtNtNtCs1FafBRGY5sc_16curve25519_dalek7backend6serial3u645fieldRNtB5_14FieldElement51NtNtNtCskumHb0IaX0X_4core3ops5arith3Add3add
FNDA:0,_RNvXs1_NtNtNtNtCs1FafBRGY5sc_16curve25519_dalek7backend6serial3u645fieldNtB5_14FieldElement51INtNtNtCskumHb0IaX0X_4core3ops5arith9SubAssignRB18_E10sub_assign
FNDA:0,_RNvXs2_NtNtNtNtCs1FafBRGY5sc_16curve25519_dalek7backend6serial3u645fieldRNtB5_14FieldElement51NtNtNtCskumHb0IaX0X_4core3ops5arith3Sub3sub
FNDA:0,_RNvXs3_NtNtNtNtCs1FafBRGY5sc_16curve25519_dalek7backend6serial3u645fieldNtB5_14FieldElement51INtNtNtCskumHb0IaX0X_4core3ops5arith9MulAssignRB18_E10mul_assign
FNDA:0,_RNvXs4_NtNtNtNtCs1FafBRGY5sc_16curve25519_dalek7backend6serial3u645fieldRNtB5_14FieldElement51NtNtNtCskumHb0IaX0X_4core3ops5arith3Mul3mul
FNDA:0,_RNvXs5_NtNtNtNtCs1FafBRGY5sc_16curve25519_dalek7backend6serial3u645fieldRNtB5_14FieldElement51NtNtNtCskumHb0IaX0X_4core3ops5arith3Neg3neg
FNDA:0,_RNvXs6_NtNtNtNtCs1FafBRGY5sc_16curve25519_dalek7backend6serial3u645fieldNtB5_14FieldElement51NtCseqNv8GKTA9D_6subtle23ConditionallySelectable16conditional_swap
FNDA:0,_RNvXs6_NtNtNtNtCs1FafBRGY5sc_16curve25519_dalek7backend6serial3u645fieldNtB5_14FieldElement51NtCseqNv8GKTA9D_6subtle23ConditionallySelectable18conditional_assign
FNDA:0,_RNvXs6_NtNtNtNtCs1FafBRGY5sc_16curve25519_dalek7backend6serial3u645fieldNtB5_14FieldElement51NtCseqNv8GKTA9D_6subtle23ConditionallySelectable18conditional_select
FNDA:0,_RNvXs_NtNtNtNtCs1FafBRGY5sc_16curve25519_dalek7backend6serial3u645fieldNtB4_14FieldElement51INtNtNtCskumHb0IaX0X_4core3ops5arith9AddAssignRB17_E10add_assign
FNF:22
FNH:0
DA:46,0
DA:47,0
DA:48,0
DA:59,0
DA:60,0
DA:61,0
DA:62,0
DA:63,0
DA:68,0
DA:69,0
DA:70,0
DA:71,0
DA:72,0
DA:76,0
DA:77,0
DA:78,0
DA:79,0
DA:84,0
DA:94,0
DA:95,0
DA:96,0
DA:97,0
DA:98,0
DA:99,0
DA:100,0
DA:101,0
DA:105,0
DA:106,0
DA:107,0
DA:108,0
DA:115,0
DA:119,0
DA:122,0
DA:123,0
DA:138,0
DA:139,0
DA:140,0
DA:141,0
DA:144,0
DA:145,0
DA:146,0
DA:147,0
DA:148,0
DA:162,0
DA:163,0
DA:164,0
DA:165,0
DA:166,0
DA:173,0
DA:175,0
DA:176,0
DA:178,0
DA:179,0
DA:181,0
DA:182,0
DA:184,0
DA:185,0
DA:187,0
DA:188,0
DA:205,0
DA:208,0
DA:209,0
DA:212,0
DA:213,0
DA:218,0
DA:219,0
DA:220,0
DA:221,0
DA:222,0
DA:226,0
DA:227,0
DA:228,0
DA:229,0
DA:230,0
DA:231,0
DA:232,0
DA:233,0
DA:234,0
DA:235,0
DA:236,0
DA:237,0
DA:238,0
DA:240,0
DA:241,0
DA:242,0
DA:243,0
DA:244,0
DA:245,0
DA:246,0
DA:248,0
DA:249,0
DA:250,0
DA:251,0
DA:252,0
DA:253,0
DA:254,0
DA:258,0
DA:259,0
DA:260,0
DA:276,0
DA:278,0
DA:279,0
DA:280,0
DA:281,0
DA:282,0
DA:283,0
DA:284,0
DA:285,0
DA:286,0
DA:290,0
DA:304,0
DA:305,0
DA:306,0
DA:307,0
DA:308,0
DA:310,0
DA:311,0
DA:312,0
DA:313,0
DA:314,0
DA:316,0
DA:317,0
DA:318,0
DA:319,0
DA:320,0
DA:322,0
DA:323,0
DA:338,0
DA:339,0
DA:340,0
DA:341,0
DA:342,0
DA:343,0
DA:344,0
DA:345,0
DA:346,0
DA:347,0
DA:348,0
DA:350,0
DA:351,0
DA:352,0
DA:353,0
DA:354,0
DA:355,0
DA:356,0
DA:357,0
DA:358,0
DA:359,0
DA:360,0
DA:361,0
DA:362,0
DA:363,0
DA:368,0
DA:385,0
DA:387,0
DA:388,0
DA:389,0
DA:390,0
DA:391,0
DA:395,0
DA:398,0
DA:399,0
DA:400,0
DA:401,0
DA:402,0
DA:403,0
DA:404,0
DA:405,0
DA:406,0
DA:409,0
DA:412,0
DA:413,0
DA:414,0
DA:415,0
DA:416,0
DA:417,0
DA:418,0
DA:419,0
DA:420,0
DA:421,0
DA:422,0
DA:423,0
DA:424,0
DA:425,0
DA:426,0
DA:427,0
DA:428,0
DA:429,0
DA:430,0
DA:431,0
DA:432,0
DA:433,0
DA:434,0
DA:435,0
DA:436,0
DA:437,0
DA:438,0
DA:439,0
DA:440,0
DA:441,0
DA:442,0
DA:443,0
DA:444,0
DA:447,0
DA:449,0
DA:450,0
DA:454,0
DA:456,0
DA:460,0
DA:461,0
DA:462,0
DA:464,0
DA:480,0
DA:481,0
DA:488,0
DA:489,0
DA:490,0
DA:491,0
DA:492,0
DA:505,0
DA:506,0
DA:507,0
DA:508,0
DA:509,0
DA:515,0
DA:516,0
DA:518,0
DA:519,0
DA:521,0
DA:522,0
DA:524,0
DA:525,0
DA:527,0
DA:528,0
DA:544,0
DA:547,0
DA:548,0
DA:552,0
DA:553,0
DA:554,0
DA:555,0
DA:558,0
DA:559,0
DA:562,0
DA:563,0
DA:564,0
DA:567,0
DA:568,0
DA:569,0
DA:570,0
DA:571,0
DA:573,0
DA:574,0
BRF:0
BRH:0
LF:254
LH:0
end_of_record
SF:/Users/kuangtalin/.cargo/registry/src/index.crates.io-1949cf8c6b5b557f/curve25519-dalek-4.1.3/src/backend/serial/u64/scalar.rs
FN:65,_RNvMs1_NtNtNtNtCs1FafBRGY5sc_16curve25519_dalek7backend6serial3u646scalarNtB5_8Scalar5210from_bytes
FN:211,_RNvMs1_NtNtNtNtCs1FafBRGY5sc_16curve25519_dalek7backend6serial3u646scalarNtB5_8Scalar5212mul_internal
FN:318,_RNvMs1_NtNtNtNtCs1FafBRGY5sc_16curve25519_dalek7backend6serial3u646scalarNtB5_8Scalar5213as_montgomery
FN:306,_RNvMs1_NtNtNtNtCs1FafBRGY5sc_16curve25519_dalek7backend6serial3u646scalarNtB5_8Scalar5214montgomery_mul
FN:88,_RNvMs1_NtNtNtNtCs1FafBRGY5sc_16curve25519_dalek7backend6serial3u646scalarNtB5_8Scalar5215from_bytes_wide
FN:325,_RNvMs1_NtNtNtNtCs1FafBRGY5sc_16curve25519_dalek7backend6serial3u646scalarNtB5_8Scalar5215from_montgomery
FN:230,_RNvMs1_NtNtNtNtCs1FafBRGY5sc_16curve25519_dalek7backend6serial3u646scalarNtB5_8Scalar5215square_internal
FN:254,_RNvMs1_NtNtNtNtCs1FafBRGY5sc_16curve25519_dalek7backend6serial3u646scalarNtB5_8Scalar5217montgomery_reduce
FN:312,_RNvMs1_NtNtNtNtCs1FafBRGY5sc_16curve25519_dalek7backend6serial3u646scalarNtB5_8Scalar5217montgomery_square
FN:160,_RNvMs1_NtNtNtNtCs1FafBRGY5sc_16curve25519_dalek7backend6serial3u646scalarNtB5_8Scalar523add
FN:291,_RNvMs1_NtNtNtNtCs1FafBRGY5sc_16curve25519_dalek7backend6serial3u646scalarNtB5_8Scalar523mul
FN:176,_RNvMs1_NtNtNtNtCs1FafBRGY5sc_16curve25519_dalek7backend6serial3u646scalarNtB5_8Scalar523sub
FN:120,_RNvMs1_NtNtNtNtCs1FafBRGY5sc_16curve25519_dalek7backend6serial3u646scalarNtB5_8Scalar528as_bytes
FN:55,_RNvNtNtNtNtCs1FafBRGY5sc_16curve25519_dalek7backend6serial3u646scalar1m
FN:257,_RNvNvMs1_NtNtNtNtCs1FafBRGY5sc_16curve25519_dalek7backend6serial3u646scalarNtB7_8Scalar5217montgomery_reduce5part1
FN:263,_RNvNvMs1_NtNtNtNtCs1FafBRGY5sc_16curve25519_dalek7backend6serial3u646scalarNtB7_8Scalar5217montgomery_reduce5part2
FN:179,_RNvNvMs1_NtNtNtNtCs1FafBRGY5sc_16curve25519_dalek7backend6serial3u646scalarNtB7_8Scalar523sub9black_box
FN:28,_RNvXNtNtNtNtCs1FafBRGY5sc_16curve25519_dalek7backend6serial3u646scalarNtB2_8Scalar52NtNtCskumHb0IaX0X_4core3fmt5Debug3fmt
FN:48,_RNvXs0_NtNtNtNtCs1FafBRGY5sc_16curve25519_dalek7backend6serial3u646scalarNtB5_8Scalar52INtNtNtCskumHb0IaX0X_4core3ops5index8IndexMutjE9index_mut
FN:42,_RNvXs_NtNtNtNtCs1FafBRGY5sc_16curve25519_dalek7backend6serial3u646scalarNtB4_8Scalar52INtNtNtCskumHb0IaX0X_4core3ops5index5IndexjE5index
FN:299,_RNvMs1_NtNtNtNtCs1FafBRGY5sc_16curve25519_dalek7backend6serial3u646scalarNtB5_8Scalar526square
FNDA:0,_RNvMs1_NtNtNtNtCs1FafBRGY5sc_16curve25519_dalek7backend6serial3u646scalarNtB5_8Scalar5210from_bytes
FNDA:0,_RNvMs1_NtNtNtNtCs1FafBRGY5sc_16curve25519_dalek7backend6serial3u646scalarNtB5_8Scalar5212mul_internal
FNDA:0,_RNvMs1_NtNtNtNtCs1FafBRGY5sc_16curve25519_dalek7backend6serial3u646scalarNtB5_8Scalar5213as_montgomery
FNDA:0,_RNvMs1_NtNtNtNtCs1FafBRGY5sc_16curve25519_dalek7backend6serial3u646scalarNtB5_8Scalar5214montgomery_mul
FNDA:0,_RNvMs1_NtNtNtNtCs1FafBRGY5sc_16curve25519_dalek7backend6serial3u646scalarNtB5_8Scalar5215from_bytes_wide
FNDA:0,_RNvMs1_NtNtNtNtCs1FafBRGY5sc_16curve25519_dalek7backend6serial3u646scalarNtB5_8Scalar5215from_montgomery
FNDA:0,_RNvMs1_NtNtNtNtCs1FafBRGY5sc_16curve25519_dalek7backend6serial3u646scalarNtB5_8Scalar5215square_internal
FNDA:0,_RNvMs1_NtNtNtNtCs1FafBRGY5sc_16curve25519_dalek7backend6serial3u646scalarNtB5_8Scalar5217montgomery_reduce
FNDA:0,_RNvMs1_NtNtNtNtCs1FafBRGY5sc_16curve25519_dalek7backend6serial3u646scalarNtB5_8Scalar5217montgomery_square
FNDA:0,_RNvMs1_NtNtNtNtCs1FafBRGY5sc_16curve25519_dalek7backend6serial3u646scalarNtB5_8Scalar523add
FNDA:0,_RNvMs1_NtNtNtNtCs1FafBRGY5sc_16curve25519_dalek7backend6serial3u646scalarNtB5_8Scalar523mul
FNDA:0,_RNvMs1_NtNtNtNtCs1FafBRGY5sc_16curve25519_dalek7backend6serial3u646scalarNtB5_8Scalar523sub
FNDA:0,_RNvMs1_NtNtNtNtCs1FafBRGY5sc_16curve25519_dalek7backend6serial3u646scalarNtB5_8Scalar528as_bytes
FNDA:0,_RNvNtNtNtNtCs1FafBRGY5sc_16curve25519_dalek7backend6serial3u646scalar1m
FNDA:0,_RNvNvMs1_NtNtNtNtCs1FafBRGY5sc_16curve25519_dalek7backend6serial3u646scalarNtB7_8Scalar5217montgomery_reduce5part1
FNDA:0,_RNvNvMs1_NtNtNtNtCs1FafBRGY5sc_16curve25519_dalek7backend6serial3u646scalarNtB7_8Scalar5217montgomery_reduce5part2
FNDA:0,_RNvNvMs1_NtNtNtNtCs1FafBRGY5sc_16curve25519_dalek7backend6serial3u646scalarNtB7_8Scalar523sub9black_box
FNDA:0,_RNvXNtNtNtNtCs1FafBRGY5sc_16curve25519_dalek7backend6serial3u646scalarNtB2_8Scalar52NtNtCskumHb0IaX0X_4core3fmt5Debug3fmt
FNDA:0,_RNvXs0_NtNtNtNtCs1FafBRGY5sc_16curve25519_dalek7backend6serial3u646scalarNtB5_8Scalar52INtNtNtCskumHb0IaX0X_4core3ops5index8IndexMutjE9index_mut
FNDA:0,_RNvXs_NtNtNtNtCs1FafBRGY5sc_16curve25519_dalek7backend6serial3u646scalarNtB4_8Scalar52INtNtNtCskumHb0IaX0X_4core3ops5index5IndexjE5index
FNDA:0,_RNvMs1_NtNtNtNtCs1FafBRGY5sc_16curve25519_dalek7backend6serial3u646scalarNtB5_8Scalar526square
FNF:21
FNH:0
DA:28,0
DA:29,0
DA:30,0
DA:42,0
DA:43,0
DA:44,0
DA:48,0
DA:49,0
DA:50,0
DA:55,0
DA:56,0
DA:57,0
DA:65,0
DA:66,0
DA:67,0
DA:68,0
DA:69,0
DA:70,0
DA:73,0
DA:74,0
DA:75,0
DA:77,0
DA:78,0
DA:79,0
DA:80,0
DA:81,0
DA:83,0
DA:84,0
DA:88,0
DA:89,0
DA:90,0
DA:91,0
DA:92,0
DA:93,0
DA:96,0
DA:97,0
DA:98,0
DA:100,0
DA:101,0
DA:102,0
DA:103,0
DA:104,0
DA:105,0
DA:106,0
DA:107,0
DA:108,0
DA:109,0
DA:111,0
DA:112,0
DA:114,0
DA:115,0
DA:120,0
DA:121,0
DA:123,0
DA:124,0
DA:125,0
DA:126,0
DA:127,0
DA:128,0
DA:129,0
DA:130,0
DA:131,0
DA:132,0
DA:133,0
DA:134,0
DA:135,0
DA:136,0
DA:137,0
DA:138,0
DA:139,0
DA:140,0
DA:141,0
DA:142,0
DA:143,0
DA:144,0
DA:145,0
DA:146,0
DA:147,0
DA:148,0
DA:149,0
DA:150,0
DA:151,0
DA:152,0
DA:153,0
DA:154,0
DA:156,0
DA:157,0
DA:160,0
DA:161,0
DA:162,0
DA:165,0
DA:166,0
DA:167,0
DA:168,0
DA:169,0
DA:172,0
DA:173,0
DA:176,0
DA:179,0
DA:182,0
DA:183,0
DA:185,0
DA:186,0
DA:189,0
DA:190,0
DA:191,0
DA:192,0
DA:193,0
DA:196,0
DA:197,0
DA:198,0
DA:199,0
DA:200,0
DA:201,0
DA:202,0
DA:203,0
DA:205,0
DA:206,0
DA:211,0
DA:212,0
DA:214,0
DA:215,0
DA:216,0
DA:217,0
DA:218,0
DA:219,0
DA:220,0
DA:221,0
DA:222,0
DA:224,0
DA:225,0
DA:230,0
DA:231,0
DA:232,0
DA:233,0
DA:234,0
DA:235,0
DA:236,0
DA:238,0
DA:239,0
DA:240,0
DA:241,0
DA:242,0
DA:243,0
DA:244,0
DA:245,0
DA:246,0
DA:247,0
DA:248,0
DA:249,0
DA:254,0
DA:257,0
DA:258,0
DA:259,0
DA:260,0
DA:263,0
DA:264,0
DA:265,0
DA:266,0
DA:269,0
DA:272,0
DA:273,0
DA:274,0
DA:275,0
DA:276,0
DA:279,0
DA:280,0
DA:281,0
DA:282,0
DA:283,0
DA:286,0
DA:287,0
DA:291,0
DA:292,0
DA:293,0
DA:294,0
DA:299,0
DA:300,0
DA:301,0
DA:302,0
DA:306,0
DA:307,0
DA:308,0
DA:312,0
DA:313,0
DA:314,0
DA:318,0
DA:319,0
DA:320,0
DA:325,0
DA:326,0
DA:327,0
DA:328,0
DA:329,0
DA:330,0
DA:331,0
BRF:0
BRH:0
LF:196
LH:0
end_of_record
SF:/Users/kuangtalin/.cargo/registry/src/index.crates.io-1949cf8c6b5b557f/curve25519-dalek-4.1.3/src/edwards.rs
FN:194,_RNvMs0_NtCs1FafBRGY5sc_16curve25519_dalek7edwardsNtB5_18CompressedEdwardsY10decompress
FN:181,_RNvMs0_NtCs1FafBRGY5sc_16curve25519_dalek7edwardsNtB5_18CompressedEdwardsY8as_bytes
FN:186,_RNvMs0_NtCs1FafBRGY5sc_16curve25519_dalek7edwardsNtB5_18CompressedEdwardsY8to_bytes
FN:404,_RNvMs4_NtCs1FafBRGY5sc_16curve25519_dalek7edwardsNtB5_18CompressedEdwardsY10from_slice
FN:522,_RNvMsc_NtCs1FafBRGY5sc_16curve25519_dalek7edwardsNtB5_12EdwardsPoint13as_projective
FN:553,_RNvMsc_NtCs1FafBRGY5sc_16curve25519_dalek7edwardsNtB5_12EdwardsPoint13to_montgomery
FN:532,_RNvMsc_NtCs1FafBRGY5sc_16curve25519_dalek7edwardsNtB5_12EdwardsPoint15as_affine_niels
FN:509,_RNvMsc_NtCs1FafBRGY5sc_16curve25519_dalek7edwardsNtB5_12EdwardsPoint19as_projective_niels
FN:566,_RNvMsc_NtCs1FafBRGY5sc_16curve25519_dalek7edwardsNtB5_12EdwardsPoint8compress
FN:616,_RNvMsd_NtCs1FafBRGY5sc_16curve25519_dalek7edwardsNtB5_12EdwardsPoint6double
FN:762,_RNvMso_NtCs1FafBRGY5sc_16curve25519_dalek7edwardsNtB5_12EdwardsPoint11mul_clamped
FN:778,_RNvMso_NtCs1FafBRGY5sc_16curve25519_dalek7edwardsNtB5_12EdwardsPoint16mul_base_clamped
FN:748,_RNvMso_NtCs1FafBRGY5sc_16curve25519_dalek7edwardsNtB5_12EdwardsPoint8mul_base
FN:902,_RNvMsp_NtCs1FafBRGY5sc_16curve25519_dalek7edwardsNtB5_12EdwardsPoint35vartime_double_scalar_mul_basepoint
FN:1192,_RNvMsq_NtCs1FafBRGY5sc_16curve25519_dalek7edwardsNtB5_12EdwardsPoint12mul_by_pow_2
FN:1227,_RNvMsq_NtCs1FafBRGY5sc_16curve25519_dalek7edwardsNtB5_12EdwardsPoint14is_small_order
FN:1257,_RNvMsq_NtCs1FafBRGY5sc_16curve25519_dalek7edwardsNtB5_12EdwardsPoint15is_torsion_free
FN:1187,_RNvMsq_NtCs1FafBRGY5sc_16curve25519_dalek7edwardsNtB5_12EdwardsPoint15mul_by_cofactor
FN:168,_RNvXNtCs1FafBRGY5sc_16curve25519_dalek7edwardsNtB2_18CompressedEdwardsYNtCseqNv8GKTA9D_6subtle14ConstantTimeEq5ct_eq
FN:246,_RNvXs1_NtCs1FafBRGY5sc_16curve25519_dalek7edwardsNtB5_18CompressedEdwardsYINtNtCskumHb0IaX0X_4core7convert7TryFromRShE8try_from
FN:383,_RNvXs2_NtCs1FafBRGY5sc_16curve25519_dalek7edwardsNtB5_18CompressedEdwardsYNtNtB7_6traits8Identity8identity
FN:392,_RNvXs3_NtCs1FafBRGY5sc_16curve25519_dalek7edwardsNtB5_18CompressedEdwardsYNtNtCskumHb0IaX0X_4core7default7Default7default
FN:410,_RNvXs5_NtCs1FafBRGY5sc_16curve25519_dalek7edwardsNtB5_12EdwardsPointNtNtB7_6traits8Identity8identity
FN:421,_RNvXs6_NtCs1FafBRGY5sc_16curve25519_dalek7edwardsNtB5_12EdwardsPointNtNtCskumHb0IaX0X_4core7default7Default7default
FN:455,_RNvXs7_NtCs1FafBRGY5sc_16curve25519_dalek7edwardsNtB5_12EdwardsPointNtNtB7_6traits13ValidityCheck8is_valid
FN:468,_RNvXs8_NtCs1FafBRGY5sc_16curve25519_dalek7edwardsNtB5_12EdwardsPointNtCseqNv8GKTA9D_6subtle23ConditionallySelectable18conditional_select
FN:483,_RNvXs9_NtCs1FafBRGY5sc_16curve25519_dalek7edwardsNtB5_12EdwardsPointNtCseqNv8GKTA9D_6subtle14ConstantTimeEq5ct_eq
FN:174,_RNvXs_NtCs1FafBRGY5sc_16curve25519_dalek7edwardsNtB4_18CompressedEdwardsYNtNtCskumHb0IaX0X_4core3fmt5Debug3fmt
FN:496,_RNvXsa_NtCs1FafBRGY5sc_16curve25519_dalek7edwardsNtB5_12EdwardsPointNtNtCskumHb0IaX0X_4core3cmp9PartialEq2eq
FN:627,_RNvXse_NtCs1FafBRGY5sc_16curve25519_dalek7edwardsRNtB5_12EdwardsPointNtNtNtCskumHb0IaX0X_4core3ops5arith3Add3add
FN:639,_RNvXsf_NtCs1FafBRGY5sc_16curve25519_dalek7edwardsNtB5_12EdwardsPointINtNtNtCskumHb0IaX0X_4core3ops5arith9AddAssignRBL_E10add_assign
FN:648,_RNvXsg_NtCs1FafBRGY5sc_16curve25519_dalek7edwardsRNtB5_12EdwardsPointNtNtNtCskumHb0IaX0X_4core3ops5arith3Sub3sub
FN:660,_RNvXsh_NtCs1FafBRGY5sc_16curve25519_dalek7edwardsNtB5_12EdwardsPointINtNtNtCskumHb0IaX0X_4core3ops5arith9SubAssignRBL_E10sub_assign
FN:686,_RNvXsj_NtCs1FafBRGY5sc_16curve25519_dalek7edwardsRNtB5_12EdwardsPointNtNtNtCskumHb0IaX0X_4core3ops5arith3Neg3neg
FN:699,_RNvXsk_NtCs1FafBRGY5sc_16curve25519_dalek7edwardsNtB5_12EdwardsPointNtNtNtCskumHb0IaX0X_4core3ops5arith3Neg3neg
FN:709,_RNvXsl_NtCs1FafBRGY5sc_16curve25519_dalek7edwardsNtB5_12EdwardsPointINtNtNtCskumHb0IaX0X_4core3ops5arith9MulAssignRNtNtB7_6scalar6ScalarE10mul_assign
FN:726,_RNvXsm_NtCs1FafBRGY5sc_16curve25519_dalek7edwardsRNtB5_12EdwardsPointINtNtNtCskumHb0IaX0X_4core3ops5arith3MulRNtNtB7_6scalar6ScalarE3mul
FN:1267,_RNvXsr_NtCs1FafBRGY5sc_16curve25519_dalek7edwardsNtB5_12EdwardsPointNtNtCskumHb0IaX0X_4core3fmt5Debug3fmt
FN:209,_RNvNtNtCs1FafBRGY5sc_16curve25519_dalek7edwards10decompress6step_1
FN:223,_RNvNtNtCs1FafBRGY5sc_16curve25519_dalek7edwards10decompress6step_2
FN:738,_RNvXsn_NtCs1FafBRGY5sc_16curve25519_dalek7edwardsRNtNtB7_6scalar6ScalarINtNtNtCskumHb0IaX0X_4core3ops5arith3MulRNtB5_12EdwardsPointE3mul
FN:587,_RINvMsc_NtCs1FafBRGY5sc_16curve25519_dalek7edwardsNtB6_12EdwardsPoint20nonspec_map_to_curvepEB8_
FN:671,_RINvXININtCs1FafBRGY5sc_16curve25519_dalek7edwardssi_0pENtB6_12EdwardsPointINtNtNtNtCskumHb0IaX0X_4core4iter6traits5accum3SumpE3sumpEB8_
FN:675,_RNCINvXININtCs1FafBRGY5sc_16curve25519_dalek7edwardssi_0pENtB8_12EdwardsPointINtNtNtNtCskumHb0IaX0X_4core4iter6traits5accum3SumpE3sumpE0Ba_
FNDA:0,_RNvMs0_NtCs1FafBRGY5sc_16curve25519_dalek7edwardsNtB5_18CompressedEdwardsY10decompress
FNDA:0,_RNvMs0_NtCs1FafBRGY5sc_16curve25519_dalek7edwardsNtB5_18CompressedEdwardsY8as_bytes
FNDA:0,_RNvMs0_NtCs1FafBRGY5sc_16curve25519_dalek7edwardsNtB5_18CompressedEdwardsY8to_bytes
FNDA:0,_RNvMs4_NtCs1FafBRGY5sc_16curve25519_dalek7edwardsNtB5_18CompressedEdwardsY10from_slice
FNDA:0,_RNvMsc_NtCs1FafBRGY5sc_16curve25519_dalek7edwardsNtB5_12EdwardsPoint13as_projective
FNDA:0,_RNvMsc_NtCs1FafBRGY5sc_16curve25519_dalek7edwardsNtB5_12EdwardsPoint13to_montgomery
FNDA:0,_RNvMsc_NtCs1FafBRGY5sc_16curve25519_dalek7edwardsNtB5_12EdwardsPoint15as_affine_niels
FNDA:0,_RNvMsc_NtCs1FafBRGY5sc_16curve25519_dalek7edwardsNtB5_12EdwardsPoint19as_projective_niels
FNDA:0,_RNvMsc_NtCs1FafBRGY5sc_16curve25519_dalek7edwardsNtB5_12EdwardsPoint8compress
FNDA:0,_RNvMsd_NtCs1FafBRGY5sc_16curve25519_dalek7edwardsNtB5_12EdwardsPoint6double
FNDA:0,_RNvMso_NtCs1FafBRGY5sc_16curve25519_dalek7edwardsNtB5_12EdwardsPoint11mul_clamped
FNDA:0,_RNvMso_NtCs1FafBRGY5sc_16curve25519_dalek7edwardsNtB5_12EdwardsPoint16mul_base_clamped
FNDA:0,_RNvMso_NtCs1FafBRGY5sc_16curve25519_dalek7edwardsNtB5_12EdwardsPoint8mul_base
FNDA:0,_RNvMsp_NtCs1FafBRGY5sc_16curve25519_dalek7edwardsNtB5_12EdwardsPoint35vartime_double_scalar_mul_basepoint
FNDA:0,_RNvMsq_NtCs1FafBRGY5sc_16curve25519_dalek7edwardsNtB5_12EdwardsPoint12mul_by_pow_2
FNDA:0,_RNvMsq_NtCs1FafBRGY5sc_16curve25519_dalek7edwardsNtB5_12EdwardsPoint14is_small_order
FNDA:0,_RNvMsq_NtCs1FafBRGY5sc_16curve25519_dalek7edwardsNtB5_12EdwardsPoint15is_torsion_free
FNDA:0,_RNvMsq_NtCs1FafBRGY5sc_16curve25519_dalek7edwardsNtB5_12EdwardsPoint15mul_by_cofactor
FNDA:0,_RNvXNtCs1FafBRGY5sc_16curve25519_dalek7edwardsNtB2_18CompressedEdwardsYNtCseqNv8GKTA9D_6subtle14ConstantTimeEq5ct_eq
FNDA:0,_RNvXs1_NtCs1FafBRGY5sc_16curve25519_dalek7edwardsNtB5_18CompressedEdwardsYINtNtCskumHb0IaX0X_4core7convert7TryFromRShE8try_from
FNDA:0,_RNvXs2_NtCs1FafBRGY5sc_16curve25519_dalek7edwardsNtB5_18CompressedEdwardsYNtNtB7_6traits8Identity8identity
FNDA:0,_RNvXs3_NtCs1FafBRGY5sc_16curve25519_dalek7edwardsNtB5_18CompressedEdwardsYNtNtCskumHb0IaX0X_4core7default7Default7default
FNDA:0,_RNvXs5_NtCs1FafBRGY5sc_16curve25519_dalek7edwardsNtB5_12EdwardsPointNtNtB7_6traits8Identity8identity
FNDA:0,_RNvXs6_NtCs1FafBRGY5sc_16curve25519_dalek7edwardsNtB5_12EdwardsPointNtNtCskumHb0IaX0X_4core7default7Default7default
FNDA:0,_RNvXs7_NtCs1FafBRGY5sc_16curve25519_dalek7edwardsNtB5_12EdwardsPointNtNtB7_6traits13ValidityCheck8is_valid
FNDA:0,_RNvXs8_NtCs1FafBRGY5sc_16curve25519_dalek7edwardsNtB5_12EdwardsPointNtCseqNv8GKTA9D_6subtle23ConditionallySelectable18conditional_select
FNDA:0,_RNvXs9_NtCs1FafBRGY5sc_16curve25519_dalek7edwardsNtB5_12EdwardsPointNtCseqNv8GKTA9D_6subtle14ConstantTimeEq5ct_eq
FNDA:0,_RNvXs_NtCs1FafBRGY5sc_16curve25519_dalek7edwardsNtB4_18CompressedEdwardsYNtNtCskumHb0IaX0X_4core3fmt5Debug3fmt
FNDA:0,_RNvXsa_NtCs1FafBRGY5sc_16curve25519_dalek7edwardsNtB5_12EdwardsPointNtNtCskumHb0IaX0X_4core3cmp9PartialEq2eq
FNDA:0,_RNvXse_NtCs1FafBRGY5sc_16curve25519_dalek7edwardsRNtB5_12EdwardsPointNtNtNtCskumHb0IaX0X_4core3ops5arith3Add3add
FNDA:0,_RNvXsf_NtCs1FafBRGY5sc_16curve25519_dalek7edwardsNtB5_12EdwardsPointINtNtNtCskumHb0IaX0X_4core3ops5arith9AddAssignRBL_E10add_assign
FNDA:0,_RNvXsg_NtCs1FafBRGY5sc_16curve25519_dalek7edwardsRNtB5_12EdwardsPointNtNtNtCskumHb0IaX0X_4core3ops5arith3Sub3sub
FNDA:0,_RNvXsh_NtCs1FafBRGY5sc_16curve25519_dalek7edwardsNtB5_12EdwardsPointINtNtNtCskumHb0IaX0X_4core3ops5arith9SubAssignRBL_E10sub_assign
FNDA:0,_RNvXsj_NtCs1FafBRGY5sc_16curve25519_dalek7edwardsRNtB5_12EdwardsPointNtNtNtCskumHb0IaX0X_4core3ops5arith3Neg3neg
FNDA:0,_RNvXsk_NtCs1FafBRGY5sc_16curve25519_dalek7edwardsNtB5_12EdwardsPointNtNtNtCskumHb0IaX0X_4core3ops5arith3Neg3neg
FNDA:0,_RNvXsl_NtCs1FafBRGY5sc_16curve25519_dalek7edwardsNtB5_12EdwardsPointINtNtNtCskumHb0IaX0X_4core3ops5arith9MulAssignRNtNtB7_6scalar6ScalarE10mul_assign
FNDA:0,_RNvXsm_NtCs1FafBRGY5sc_16curve25519_dalek7edwardsRNtB5_12EdwardsPointINtNtNtCskumHb0IaX0X_4core3ops5arith3MulRNtNtB7_6scalar6ScalarE3mul
FNDA:0,_RNvXsr_NtCs1FafBRGY5sc_16curve25519_dalek7edwardsNtB5_12EdwardsPointNtNtCskumHb0IaX0X_4core3fmt5Debug3fmt
FNDA:0,_RNvNtNtCs1FafBRGY5sc_16curve25519_dalek7edwards10decompress6step_1
FNDA:0,_RNvNtNtCs1FafBRGY5sc_16curve25519_dalek7edwards10decompress6step_2
FNDA:0,_RNvXsn_NtCs1FafBRGY5sc_16curve25519_dalek7edwardsRNtNtB7_6scalar6ScalarINtNtNtCskumHb0IaX0X_4core3ops5arith3MulRNtB5_12EdwardsPointE3mul
FNDA:0,_RINvMsc_NtCs1FafBRGY5sc_16curve25519_dalek7edwardsNtB6_12EdwardsPoint20nonspec_map_to_curvepEB8_
FNDA:0,_RINvXININtCs1FafBRGY5sc_16curve25519_dalek7edwardssi_0pENtB6_12EdwardsPointINtNtNtNtCskumHb0IaX0X_4core4iter6traits5accum3SumpE3sumpEB8_
FNDA:0,_RNCINvXININtCs1FafBRGY5sc_16curve25519_dalek7edwardssi_0pENtB8_12EdwardsPointINtNtNtNtCskumHb0IaX0X_4core4iter6traits5accum3SumpE3sumpE0Ba_
FNF:44
FNH:0
DA:168,0
DA:169,0
DA:170,0
DA:174,0
DA:175,0
DA:176,0
DA:181,0
DA:182,0
DA:183,0
DA:186,0
DA:187,0
DA:188,0
DA:194,0
DA:195,0
DA:197,0
DA:198,0
DA:200,0
DA:202,0
DA:209,0
DA:210,0
DA:211,0
DA:212,0
DA:213,0
DA:214,0
DA:215,0
DA:216,0
DA:217,0
DA:219,0
DA:220,0
DA:223,0
DA:224,0
DA:225,0
DA:226,0
DA:227,0
DA:228,0
DA:231,0
DA:232,0
DA:234,0
DA:235,0
DA:236,0
DA:237,0
DA:238,0
DA:239,0
DA:240,0
DA:246,0
DA:247,0
DA:248,0
DA:383,0
DA:384,0
DA:385,0
DA:386,0
DA:387,0
DA:388,0
DA:392,0
DA:393,0
DA:394,0
DA:404,0
DA:405,0
DA:406,0
DA:410,0
DA:411,0
DA:412,0
DA:413,0
DA:414,0
DA:415,0
DA:416,0
DA:417,0
DA:421,0
DA:422,0
DA:423,0
DA:455,0
DA:456,0
DA:457,0
DA:459,0
DA:460,0
DA:468,0
DA:469,0
DA:470,0
DA:471,0
DA:472,0
DA:473,0
DA:474,0
DA:475,0
DA:483,0
DA:490,0
DA:491,0
DA:492,0
DA:496,0
DA:497,0
DA:498,0
DA:509,0
DA:510,0
DA:511,0
DA:512,0
DA:513,0
DA:514,0
DA:515,0
DA:516,0
DA:522,0
DA:523,0
DA:524,0
DA:525,0
DA:526,0
DA:527,0
DA:528,0
DA:532,0
DA:533,0
DA:534,0
DA:535,0
DA:536,0
DA:537,0
DA:538,0
DA:539,0
DA:540,0
DA:541,0
DA:542,0
DA:553,0
DA:559,0
DA:560,0
DA:561,0
DA:562,0
DA:563,0
DA:566,0
DA:567,0
DA:568,0
DA:569,0
DA:572,0
DA:573,0
DA:574,0
DA:575,0
DA:587,0
DA:588,0
DA:589,0
DA:591,0
DA:592,0
DA:593,0
DA:594,0
DA:595,0
DA:597,0
DA:599,0
DA:601,0
DA:602,0
DA:604,0
DA:605,0
DA:606,0
DA:607,0
DA:616,0
DA:617,0
DA:618,0
DA:627,0
DA:628,0
DA:629,0
DA:639,0
DA:640,0
DA:641,0
DA:648,0
DA:649,0
DA:650,0
DA:660,0
DA:661,0
DA:662,0
DA:671,0
DA:672,0
DA:673,0
DA:675,0
DA:676,0
DA:686,0
DA:687,0
DA:688,0
DA:689,0
DA:690,0
DA:691,0
DA:692,0
DA:693,0
DA:699,0
DA:700,0
DA:701,0
DA:709,0
DA:710,0
DA:711,0
DA:712,0
DA:726,0
DA:727,0
DA:728,0
DA:738,0
DA:739,0
DA:740,0
DA:748,0
DA:751,0
DA:758,0
DA:762,0
DA:770,0
DA:771,0
DA:772,0
DA:773,0
DA:774,0
DA:778,0
DA:782,0
DA:783,0
DA:784,0
DA:785,0
DA:786,0
DA:902,0
DA:903,0
DA:904,0
DA:905,0
DA:906,0
DA:907,0
DA:908,0
DA:1187,0
DA:1188,0
DA:1189,0
DA:1192,0
DA:1193,0
DA:1195,0
DA:1196,0
DA:1197,0
DA:1198,0
DA:1199,0
DA:1201,0
DA:1202,0
DA:1227,0
DA:1228,0
DA:1229,0
DA:1257,0
DA:1258,0
DA:1259,0
DA:1267,0
DA:1268,0
DA:1269,0
DA:1271,0
DA:1273,0
BRF:0
BRH:0
LF:233
LH:0
end_of_record
SF:/Users/kuangtalin/.cargo/registry/src/index.crates.io-1949cf8c6b5b557f/curve25519-dalek-4.1.3/src/field.rs
FN:101,_RNvMs1_NtCs1FafBRGY5sc_16curve25519_dalek5fieldNtNtNtNtNtB7_7backend6serial3u645field14FieldElement5111is_negative
FN:243,_RNvMs1_NtCs1FafBRGY5sc_16curve25519_dalek5fieldNtNtNtNtNtB7_7backend6serial3u645field14FieldElement5112sqrt_ratio_i
FN:206,_RNvMs1_NtCs1FafBRGY5sc_16curve25519_dalek5fieldNtNtNtNtNtB7_7backend6serial3u645field14FieldElement516invert
FN:303,_RNvMs1_NtCs1FafBRGY5sc_16curve25519_dalek5fieldNtNtNtNtNtB7_7backend6serial3u645field14FieldElement517invsqrt
FN:111,_RNvMs1_NtCs1FafBRGY5sc_16curve25519_dalek5fieldNtNtNtNtNtB7_7backend6serial3u645field14FieldElement517is_zero
FN:220,_RNvMs1_NtCs1FafBRGY5sc_16curve25519_dalek5fieldNtNtNtNtNtB7_7backend6serial3u645field14FieldElement517pow_p58
FN:121,_RNvMs1_NtCs1FafBRGY5sc_16curve25519_dalek5fieldNtNtNtNtNtB7_7backend6serial3u645field14FieldElement518pow22501
FN:88,_RNvXs0_NtCs1FafBRGY5sc_16curve25519_dalek5fieldNtNtNtNtNtB7_7backend6serial3u645field14FieldElement51NtCseqNv8GKTA9D_6subtle14ConstantTimeEq5ct_eq
FN:79,_RNvXs_NtCs1FafBRGY5sc_16curve25519_dalek5fieldNtNtNtNtNtB6_7backend6serial3u645field14FieldElement51NtNtCskumHb0IaX0X_4core3cmp9PartialEq2eq
FNDA:0,_RNvMs1_NtCs1FafBRGY5sc_16curve25519_dalek5fieldNtNtNtNtNtB7_7backend6serial3u645field14FieldElement5111is_negative
FNDA:0,_RNvMs1_NtCs1FafBRGY5sc_16curve25519_dalek5fieldNtNtNtNtNtB7_7backend6serial3u645field14FieldElement5112sqrt_ratio_i
FNDA:0,_RNvMs1_NtCs1FafBRGY5sc_16curve25519_dalek5fieldNtNtNtNtNtB7_7backend6serial3u645field14FieldElement516invert
FNDA:0,_RNvMs1_NtCs1FafBRGY5sc_16curve25519_dalek5fieldNtNtNtNtNtB7_7backend6serial3u645field14FieldElement517invsqrt
FNDA:0,_RNvMs1_NtCs1FafBRGY5sc_16curve25519_dalek5fieldNtNtNtNtNtB7_7backend6serial3u645field14FieldElement517is_zero
FNDA:0,_RNvMs1_NtCs1FafBRGY5sc_16curve25519_dalek5fieldNtNtNtNtNtB7_7backend6serial3u645field14FieldElement517pow_p58
FNDA:0,_RNvMs1_NtCs1FafBRGY5sc_16curve25519_dalek5fieldNtNtNtNtNtB7_7backend6serial3u645field14FieldElement518pow22501
FNDA:0,_RNvXs0_NtCs1FafBRGY5sc_16curve25519_dalek5fieldNtNtNtNtNtB7_7backend6serial3u645field14FieldElement51NtCseqNv8GKTA9D_6subtle14ConstantTimeEq5ct_eq
FNDA:0,_RNvXs_NtCs1FafBRGY5sc_16curve25519_dalek5fieldNtNtNtNtNtB6_7backend6serial3u645field14FieldElement51NtNtCskumHb0IaX0X_4core3cmp9PartialEq2eq
FNF:9
FNH:0
DA:79,0
DA:80,0
DA:81,0
DA:88,0
DA:89,0
DA:90,0
DA:101,0
DA:102,0
DA:103,0
DA:104,0
DA:111,0
DA:112,0
DA:113,0
DA:115,0
DA:116,0
DA:121,0
DA:133,0
DA:134,0
DA:135,0
DA:136,0
DA:137,0
DA:138,0
DA:139,0
DA:140,0
DA:141,0
DA:142,0
DA:143,0
DA:144,0
DA:145,0
DA:146,0
DA:147,0
DA:148,0
DA:149,0
DA:150,0
DA:151,0
DA:152,0
DA:154,0
DA:155,0
DA:206,0
DA:210,0
DA:211,0
DA:212,0
DA:214,0
DA:215,0
DA:220,0
DA:224,0
DA:225,0
DA:226,0
DA:228,0
DA:229,0
DA:243,0
DA:268,0
DA:269,0
DA:270,0
DA:271,0
DA:273,0
DA:275,0
DA:276,0
DA:277,0
DA:279,0
DA:280,0
DA:283,0
DA:284,0
DA:286,0
DA:288,0
DA:289,0
DA:303,0
DA:304,0
DA:305,0
BRF:0
BRH:0
LF:69
LH:0
end_of_record
SF:/Users/kuangtalin/.cargo/registry/src/index.crates.io-1949cf8c6b5b557f/curve25519-dalek-4.1.3/src/macros.rs
FN:33,_RNvXsA_NtCs1FafBRGY5sc_16curve25519_dalek9ristrettoNtB5_14RistrettoPointNtNtNtCskumHb0IaX0X_4core3ops5arith3Add3add
FN:44,_RNvXsB_NtCs1FafBRGY5sc_16curve25519_dalek9ristrettoNtB5_14RistrettoPointNtNtNtCskumHb0IaX0X_4core3ops5arith9AddAssign10add_assign
FN:19,_RNvXsC_NtCs1FafBRGY5sc_16curve25519_dalek7edwardsNtB5_12EdwardsPointINtNtNtCskumHb0IaX0X_4core3ops5arith3AddRBL_E3add
FN:56,_RNvXsC_NtCs1FafBRGY5sc_16curve25519_dalek9ristrettoNtB5_14RistrettoPointINtNtNtCskumHb0IaX0X_4core3ops5arith3SubRBN_E3sub
FN:26,_RNvXsD_NtCs1FafBRGY5sc_16curve25519_dalek7edwardsRNtB5_12EdwardsPointINtNtNtCskumHb0IaX0X_4core3ops5arith3AddBM_E3add
FN:63,_RNvXsD_NtCs1FafBRGY5sc_16curve25519_dalek9ristrettoRNtB5_14RistrettoPointINtNtNtCskumHb0IaX0X_4core3ops5arith3SubBO_E3sub
FN:33,_RNvXsE_NtCs1FafBRGY5sc_16curve25519_dalek7edwardsNtB5_12EdwardsPointNtNtNtCskumHb0IaX0X_4core3ops5arith3Add3add
FN:70,_RNvXsE_NtCs1FafBRGY5sc_16curve25519_dalek9ristrettoNtB5_14RistrettoPointNtNtNtCskumHb0IaX0X_4core3ops5arith3Sub3sub
FN:44,_RNvXsF_NtCs1FafBRGY5sc_16curve25519_dalek7edwardsNtB5_12EdwardsPointNtNtNtCskumHb0IaX0X_4core3ops5arith9AddAssign10add_assign
FN:81,_RNvXsF_NtCs1FafBRGY5sc_16curve25519_dalek9ristrettoNtB5_14RistrettoPointNtNtNtCskumHb0IaX0X_4core3ops5arith9SubAssign10sub_assign
FN:56,_RNvXsG_NtCs1FafBRGY5sc_16curve25519_dalek7edwardsNtB5_12EdwardsPointINtNtNtCskumHb0IaX0X_4core3ops5arith3SubRBL_E3sub
FN:118,_RNvXsG_NtCs1FafBRGY5sc_16curve25519_dalek9ristrettoNtB5_14RistrettoPointINtNtNtCskumHb0IaX0X_4core3ops5arith9MulAssignNtNtB7_6scalar6ScalarE10mul_assign
FN:63,_RNvXsH_NtCs1FafBRGY5sc_16curve25519_dalek7edwardsRNtB5_12EdwardsPointINtNtNtCskumHb0IaX0X_4core3ops5arith3SubBM_E3sub
FN:93,_RNvXsH_NtCs1FafBRGY5sc_16curve25519_dalek9ristrettoNtB5_14RistrettoPointINtNtNtCskumHb0IaX0X_4core3ops5arith3MulRNtNtB7_6scalar6ScalarE3mul
FN:70,_RNvXsI_NtCs1FafBRGY5sc_16curve25519_dalek7edwardsNtB5_12EdwardsPointNtNtNtCskumHb0IaX0X_4core3ops5arith3Sub3sub
FN:100,_RNvXsI_NtCs1FafBRGY5sc_16curve25519_dalek9ristrettoRNtB5_14RistrettoPointINtNtNtCskumHb0IaX0X_4core3ops5arith3MulNtNtB7_6scalar6ScalarE3mul
FN:81,_RNvXsJ_NtCs1FafBRGY5sc_16curve25519_dalek7edwardsNtB5_12EdwardsPointNtNtNtCskumHb0IaX0X_4core3ops5arith9SubAssign10sub_assign
FN:107,_RNvXsJ_NtCs1FafBRGY5sc_16curve25519_dalek9ristrettoNtB5_14RistrettoPointINtNtNtCskumHb0IaX0X_4core3ops5arith3MulNtNtB7_6scalar6ScalarE3mul
FN:118,_RNvXsK_NtCs1FafBRGY5sc_16curve25519_dalek7edwardsNtB5_12EdwardsPointINtNtNtCskumHb0IaX0X_4core3ops5arith9MulAssignNtNtB7_6scalar6ScalarE10mul_assign
FN:93,_RNvXsL_NtCs1FafBRGY5sc_16curve25519_dalek7edwardsNtB5_12EdwardsPointINtNtNtCskumHb0IaX0X_4core3ops5arith3MulRNtNtB7_6scalar6ScalarE3mul
FN:100,_RNvXsM_NtCs1FafBRGY5sc_16curve25519_dalek7edwardsRNtB5_12EdwardsPointINtNtNtCskumHb0IaX0X_4core3ops5arith3MulNtNtB7_6scalar6ScalarE3mul
FN:107,_RNvXsN_NtCs1FafBRGY5sc_16curve25519_dalek7edwardsNtB5_12EdwardsPointINtNtNtCskumHb0IaX0X_4core3ops5arith3MulNtNtB7_6scalar6ScalarE3mul
FN:19,_RNvXsy_NtCs1FafBRGY5sc_16curve25519_dalek9ristrettoNtB5_14RistrettoPointINtNtNtCskumHb0IaX0X_4core3ops5arith3AddRBN_E3add
FN:26,_RNvXsz_NtCs1FafBRGY5sc_16curve25519_dalek9ristrettoRNtB5_14RistrettoPointINtNtNtCskumHb0IaX0X_4core3ops5arith3AddBO_E3add
FN:56,_RNvXsA_NtCs1FafBRGY5sc_16curve25519_dalek6scalarNtB5_6ScalarINtNtNtCskumHb0IaX0X_4core3ops5arith3SubRBK_E3sub
FN:63,_RNvXsB_NtCs1FafBRGY5sc_16curve25519_dalek6scalarRNtB5_6ScalarINtNtNtCskumHb0IaX0X_4core3ops5arith3SubBL_E3sub
FN:70,_RNvXsC_NtCs1FafBRGY5sc_16curve25519_dalek6scalarNtB5_6ScalarNtNtNtCskumHb0IaX0X_4core3ops5arith3Sub3sub
FN:93,_RNvXsK_NtCs1FafBRGY5sc_16curve25519_dalek9ristrettoNtNtB7_6scalar6ScalarINtNtNtCskumHb0IaX0X_4core3ops5arith3MulRNtB5_14RistrettoPointE3mul
FN:100,_RNvXsL_NtCs1FafBRGY5sc_16curve25519_dalek9ristrettoRNtNtB7_6scalar6ScalarINtNtNtCskumHb0IaX0X_4core3ops5arith3MulNtB5_14RistrettoPointE3mul
FN:107,_RNvXsM_NtCs1FafBRGY5sc_16curve25519_dalek9ristrettoNtNtB7_6scalar6ScalarINtNtNtCskumHb0IaX0X_4core3ops5arith3MulNtB5_14RistrettoPointE3mul
FN:93,_RNvXsO_NtCs1FafBRGY5sc_16curve25519_dalek7edwardsNtNtB7_6scalar6ScalarINtNtNtCskumHb0IaX0X_4core3ops5arith3MulRNtB5_12EdwardsPointE3mul
FN:100,_RNvXsP_NtCs1FafBRGY5sc_16curve25519_dalek7edwardsRNtNtB7_6scalar6ScalarINtNtNtCskumHb0IaX0X_4core3ops5arith3MulNtB5_12EdwardsPointE3mul
FN:107,_RNvXsQ_NtCs1FafBRGY5sc_16curve25519_dalek7edwardsNtNtB7_6scalar6ScalarINtNtNtCskumHb0IaX0X_4core3ops5arith3MulNtB5_12EdwardsPointE3mul
FN:118,_RNvXsk_NtCs1FafBRGY5sc_16curve25519_dalek10montgomeryNtB5_15MontgomeryPointINtNtNtCskumHb0IaX0X_4core3ops5arith9MulAssignNtNtB7_6scalar6ScalarE10mul_assign
FN:93,_RNvXsl_NtCs1FafBRGY5sc_16curve25519_dalek10montgomeryNtB5_15MontgomeryPointINtNtNtCskumHb0IaX0X_4core3ops5arith3MulRNtNtB7_6scalar6ScalarE3mul
FN:100,_RNvXsm_NtCs1FafBRGY5sc_16curve25519_dalek10montgomeryRNtB5_15MontgomeryPointINtNtNtCskumHb0IaX0X_4core3ops5arith3MulNtNtB7_6scalar6ScalarE3mul
FN:107,_RNvXsn_NtCs1FafBRGY5sc_16curve25519_dalek10montgomeryNtB5_15MontgomeryPointINtNtNtCskumHb0IaX0X_4core3ops5arith3MulNtNtB7_6scalar6ScalarE3mul
FN:93,_RNvXso_NtCs1FafBRGY5sc_16curve25519_dalek10montgomeryNtNtB7_6scalar6ScalarINtNtNtCskumHb0IaX0X_4core3ops5arith3MulRNtB5_15MontgomeryPointE3mul
FN:100,_RNvXsp_NtCs1FafBRGY5sc_16curve25519_dalek10montgomeryRNtNtB7_6scalar6ScalarINtNtNtCskumHb0IaX0X_4core3ops5arith3MulNtB5_15MontgomeryPointE3mul
FN:107,_RNvXsq_NtCs1FafBRGY5sc_16curve25519_dalek10montgomeryNtNtB7_6scalar6ScalarINtNtNtCskumHb0IaX0X_4core3ops5arith3MulNtB5_15MontgomeryPointE3mul
FN:118,_RNvXsr_NtCs1FafBRGY5sc_16curve25519_dalek6scalarNtB5_6ScalarNtNtNtCskumHb0IaX0X_4core3ops5arith9MulAssign10mul_assign
FN:93,_RNvXss_NtCs1FafBRGY5sc_16curve25519_dalek6scalarNtB5_6ScalarINtNtNtCskumHb0IaX0X_4core3ops5arith3MulRBK_E3mul
FN:100,_RNvXst_NtCs1FafBRGY5sc_16curve25519_dalek6scalarRNtB5_6ScalarINtNtNtCskumHb0IaX0X_4core3ops5arith3MulBL_E3mul
FN:107,_RNvXsu_NtCs1FafBRGY5sc_16curve25519_dalek6scalarNtB5_6ScalarNtNtNtCskumHb0IaX0X_4core3ops5arith3Mul3mul
FN:44,_RNvXsv_NtCs1FafBRGY5sc_16curve25519_dalek6scalarNtB5_6ScalarNtNtNtCskumHb0IaX0X_4core3ops5arith9AddAssign10add_assign
FN:19,_RNvXsw_NtCs1FafBRGY5sc_16curve25519_dalek6scalarNtB5_6ScalarINtNtNtCskumHb0IaX0X_4core3ops5arith3AddRBK_E3add
FN:26,_RNvXsx_NtCs1FafBRGY5sc_16curve25519_dalek6scalarRNtB5_6ScalarINtNtNtCskumHb0IaX0X_4core3ops5arith3AddBL_E3add
FN:33,_RNvXsy_NtCs1FafBRGY5sc_16curve25519_dalek6scalarNtB5_6ScalarNtNtNtCskumHb0IaX0X_4core3ops5arith3Add3add
FN:81,_RNvXsz_NtCs1FafBRGY5sc_16curve25519_dalek6scalarNtB5_6ScalarNtNtNtCskumHb0IaX0X_4core3ops5arith9SubAssign10sub_assign
FNDA:0,_RNvXsA_NtCs1FafBRGY5sc_16curve25519_dalek9ristrettoNtB5_14RistrettoPointNtNtNtCskumHb0IaX0X_4core3ops5arith3Add3add
FNDA:0,_RNvXsB_NtCs1FafBRGY5sc_16curve25519_dalek9ristrettoNtB5_14RistrettoPointNtNtNtCskumHb0IaX0X_4core3ops5arith9AddAssign10add_assign
FNDA:0,_RNvXsC_NtCs1FafBRGY5sc_16curve25519_dalek7edwardsNtB5_12EdwardsPointINtNtNtCskumHb0IaX0X_4core3ops5arith3AddRBL_E3add
FNDA:0,_RNvXsC_NtCs1FafBRGY5sc_16curve25519_dalek9ristrettoNtB5_14RistrettoPointINtNtNtCskumHb0IaX0X_4core3ops5arith3SubRBN_E3sub
FNDA:0,_RNvXsD_NtCs1FafBRGY5sc_16curve25519_dalek7edwardsRNtB5_12EdwardsPointINtNtNtCskumHb0IaX0X_4core3ops5arith3AddBM_E3add
FNDA:0,_RNvXsD_NtCs1FafBRGY5sc_16curve25519_dalek9ristrettoRNtB5_14RistrettoPointINtNtNtCskumHb0IaX0X_4core3ops5arith3SubBO_E3sub
FNDA:0,_RNvXsE_NtCs1FafBRGY5sc_16curve25519_dalek7edwardsNtB5_12EdwardsPointNtNtNtCskumHb0IaX0X_4core3ops5arith3Add3add
FNDA:0,_RNvXsE_NtCs1FafBRGY5sc_16curve25519_dalek9ristrettoNtB5_14RistrettoPointNtNtNtCskumHb0IaX0X_4core3ops5arith3Sub3sub
FNDA:0,_RNvXsF_NtCs1FafBRGY5sc_16curve25519_dalek7edwardsNtB5_12EdwardsPointNtNtNtCskumHb0IaX0X_4core3ops5arith9AddAssign10add_assign
FNDA:0,_RNvXsF_NtCs1FafBRGY5sc_16curve25519_dalek9ristrettoNtB5_14RistrettoPointNtNtNtCskumHb0IaX0X_4core3ops5arith9SubAssign10sub_assign
FNDA:0,_RNvXsG_NtCs1FafBRGY5sc_16curve25519_dalek7edwardsNtB5_12EdwardsPointINtNtNtCskumHb0IaX0X_4core3ops5arith3SubRBL_E3sub
FNDA:0,_RNvXsG_NtCs1FafBRGY5sc_16curve25519_dalek9ristrettoNtB5_14RistrettoPointINtNtNtCskumHb0IaX0X_4core3ops5arith9MulAssignNtNtB7_6scalar6ScalarE10mul_assign
FNDA:0,_RNvXsH_NtCs1FafBRGY5sc_16curve25519_dalek7edwardsRNtB5_12EdwardsPointINtNtNtCskumHb0IaX0X_4core3ops5arith3SubBM_E3sub
FNDA:0,_RNvXsH_NtCs1FafBRGY5sc_16curve25519_dalek9ristrettoNtB5_14RistrettoPointINtNtNtCskumHb0IaX0X_4core3ops5arith3MulRNtNtB7_6scalar6ScalarE3mul
FNDA:0,_RNvXsI_NtCs1FafBRGY5sc_16curve25519_dalek7edwardsNtB5_12EdwardsPointNtNtNtCskumHb0IaX0X_4core3ops5arith3Sub3sub
FNDA:0,_RNvXsI_NtCs1FafBRGY5sc_16curve25519_dalek9ristrettoRNtB5_14RistrettoPointINtNtNtCskumHb0IaX0X_4core3ops5arith3MulNtNtB7_6scalar6ScalarE3mul
FNDA:0,_RNvXsJ_NtCs1FafBRGY5sc_16curve25519_dalek7edwardsNtB5_12EdwardsPointNtNtNtCskumHb0IaX0X_4core3ops5arith9SubAssign10sub_assign
FNDA:0,_RNvXsJ_NtCs1FafBRGY5sc_16curve25519_dalek9ristrettoNtB5_14RistrettoPointINtNtNtCskumHb0IaX0X_4core3ops5arith3MulNtNtB7_6scalar6ScalarE3mul
FNDA:0,_RNvXsK_NtCs1FafBRGY5sc_16curve25519_dalek7edwardsNtB5_12EdwardsPointINtNtNtCskumHb0IaX0X_4core3ops5arith9MulAssignNtNtB7_6scalar6ScalarE10mul_assign
FNDA:0,_RNvXsL_NtCs1FafBRGY5sc_16curve25519_dalek7edwardsNtB5_12EdwardsPointINtNtNtCskumHb0IaX0X_4core3ops5arith3MulRNtNtB7_6scalar6ScalarE3mul
FNDA:0,_RNvXsM_NtCs1FafBRGY5sc_16curve25519_dalek7edwardsRNtB5_12EdwardsPointINtNtNtCskumHb0IaX0X_4core3ops5arith3MulNtNtB7_6scalar6ScalarE3mul
FNDA:0,_RNvXsN_NtCs1FafBRGY5sc_16curve25519_dalek7edwardsNtB5_12EdwardsPointINtNtNtCskumHb0IaX0X_4core3ops5arith3MulNtNtB7_6scalar6ScalarE3mul
FNDA:0,_RNvXsy_NtCs1FafBRGY5sc_16curve25519_dalek9ristrettoNtB5_14RistrettoPointINtNtNtCskumHb0IaX0X_4core3ops5arith3AddRBN_E3add
FNDA:0,_RNvXsz_NtCs1FafBRGY5sc_16curve25519_dalek9ristrettoRNtB5_14RistrettoPointINtNtNtCskumHb0IaX0X_4core3ops5arith3AddBO_E3add
FNDA:0,_RNvXsA_NtCs1FafBRGY5sc_16curve25519_dalek6scalarNtB5_6ScalarINtNtNtCskumHb0IaX0X_4core3ops5arith3SubRBK_E3sub
FNDA:0,_RNvXsB_NtCs1FafBRGY5sc_16curve25519_dalek6scalarRNtB5_6ScalarINtNtNtCskumHb0IaX0X_4core3ops5arith3SubBL_E3sub
FNDA:0,_RNvXsC_NtCs1FafBRGY5sc_16curve25519_dalek6scalarNtB5_6ScalarNtNtNtCskumHb0IaX0X_4core3ops5arith3Sub3sub
FNDA:0,_RNvXsK_NtCs1FafBRGY5sc_16curve25519_dalek9ristrettoNtNtB7_6scalar6ScalarINtNtNtCskumHb0IaX0X_4core3ops5arith3MulRNtB5_14RistrettoPointE3mul
FNDA:0,_RNvXsL_NtCs1FafBRGY5sc_16curve25519_dalek9ristrettoRNtNtB7_6scalar6ScalarINtNtNtCskumHb0IaX0X_4core3ops5arith3MulNtB5_14RistrettoPointE3mul
FNDA:0,_RNvXsM_NtCs1FafBRGY5sc_16curve25519_dalek9ristrettoNtNtB7_6scalar6ScalarINtNtNtCskumHb0IaX0X_4core3ops5arith3MulNtB5_14RistrettoPointE3mul
FNDA:0,_RNvXsO_NtCs1FafBRGY5sc_16curve25519_dalek7edwardsNtNtB7_6scalar6ScalarINtNtNtCskumHb0IaX0X_4core3ops5arith3MulRNtB5_12EdwardsPointE3mul
FNDA:0,_RNvXsP_NtCs1FafBRGY5sc_16curve25519_dalek7edwardsRNtNtB7_6scalar6ScalarINtNtNtCskumHb0IaX0X_4core3ops5arith3MulNtB5_12EdwardsPointE3mul
FNDA:0,_RNvXsQ_NtCs1FafBRGY5sc_16curve25519_dalek7edwardsNtNtB7_6scalar6ScalarINtNtNtCskumHb0IaX0X_4core3ops5arith3MulNtB5_12EdwardsPointE3mul
FNDA:0,_RNvXsk_NtCs1FafBRGY5sc_16curve25519_dalek10montgomeryNtB5_15MontgomeryPointINtNtNtCskumHb0IaX0X_4core3ops5arith9MulAssignNtNtB7_6scalar6ScalarE10mul_assign
FNDA:0,_RNvXsl_NtCs1FafBRGY5sc_16curve25519_dalek10montgomeryNtB5_15MontgomeryPointINtNtNtCskumHb0IaX0X_4core3ops5arith3MulRNtNtB7_6scalar6ScalarE3mul
FNDA:0,_RNvXsm_NtCs1FafBRGY5sc_16curve25519_dalek10montgomeryRNtB5_15MontgomeryPointINtNtNtCskumHb0IaX0X_4core3ops5arith3MulNtNtB7_6scalar6ScalarE3mul
FNDA:0,_RNvXsn_NtCs1FafBRGY5sc_16curve25519_dalek10montgomeryNtB5_15MontgomeryPointINtNtNtCskumHb0IaX0X_4core3ops5arith3MulNtNtB7_6scalar6ScalarE3mul
FNDA:0,_RNvXso_NtCs1FafBRGY5sc_16curve25519_dalek10montgomeryNtNtB7_6scalar6ScalarINtNtNtCskumHb0IaX0X_4core3ops5arith3MulRNtB5_15MontgomeryPointE3mul
FNDA:0,_RNvXsp_NtCs1FafBRGY5sc_16curve25519_dalek10montgomeryRNtNtB7_6scalar6ScalarINtNtNtCskumHb0IaX0X_4core3ops5arith3MulNtB5_15MontgomeryPointE3mul
FNDA:0,_RNvXsq_NtCs1FafBRGY5sc_16curve25519_dalek10montgomeryNtNtB7_6scalar6ScalarINtNtNtCskumHb0IaX0X_4core3ops5arith3MulNtB5_15MontgomeryPointE3mul
FNDA:0,_RNvXsr_NtCs1FafBRGY5sc_16curve25519_dalek6scalarNtB5_6ScalarNtNtNtCskumHb0IaX0X_4core3ops5arith9MulAssign10mul_assign
FNDA:0,_RNvXss_NtCs1FafBRGY5sc_16curve25519_dalek6scalarNtB5_6ScalarINtNtNtCskumHb0IaX0X_4core3ops5arith3MulRBK_E3mul
FNDA:0,_RNvXst_NtCs1FafBRGY5sc_16curve25519_dalek6scalarRNtB5_6ScalarINtNtNtCskumHb0IaX0X_4core3ops5arith3MulBL_E3mul
FNDA:0,_RNvXsu_NtCs1FafBRGY5sc_16curve25519_dalek6scalarNtB5_6ScalarNtNtNtCskumHb0IaX0X_4core3ops5arith3Mul3mul
FNDA:0,_RNvXsv_NtCs1FafBRGY5sc_16curve25519_dalek6scalarNtB5_6ScalarNtNtNtCskumHb0IaX0X_4core3ops5arith9AddAssign10add_assign
FNDA:0,_RNvXsw_NtCs1FafBRGY5sc_16curve25519_dalek6scalarNtB5_6ScalarINtNtNtCskumHb0IaX0X_4core3ops5arith3AddRBK_E3add
FNDA:0,_RNvXsx_NtCs1FafBRGY5sc_16curve25519_dalek6scalarRNtB5_6ScalarINtNtNtCskumHb0IaX0X_4core3ops5arith3AddBL_E3add
FNDA:0,_RNvXsy_NtCs1FafBRGY5sc_16curve25519_dalek6scalarNtB5_6ScalarNtNtNtCskumHb0IaX0X_4core3ops5arith3Add3add
FNDA:0,_RNvXsz_NtCs1FafBRGY5sc_16curve25519_dalek6scalarNtB5_6ScalarNtNtNtCskumHb0IaX0X_4core3ops5arith9SubAssign10sub_assign
FNF:12
FNH:0
DA:19,0
DA:20,0
DA:21,0
DA:26,0
DA:27,0
DA:28,0
DA:33,0
DA:34,0
DA:35,0
DA:44,0
DA:45,0
DA:46,0
DA:56,0
DA:57,0
DA:58,0
DA:63,0
DA:64,0
DA:65,0
DA:70,0
DA:71,0
DA:72,0
DA:81,0
DA:82,0
DA:83,0
DA:93,0
DA:94,0
DA:95,0
DA:100,0
DA:101,0
DA:102,0
DA:107,0
DA:108,0
DA:109,0
DA:118,0
DA:119,0
DA:120,0
BRF:0
BRH:0
LF:36
LH:0
end_of_record
SF:/Users/kuangtalin/.cargo/registry/src/index.crates.io-1949cf8c6b5b557f/curve25519-dalek-4.1.3/src/montgomery.rs
FN:161,_RINvMs3_NtCs1FafBRGY5sc_16curve25519_dalek10montgomeryNtB6_15MontgomeryPoint11mul_bits_beINtNtNtNtCskumHb0IaX0X_4core4iter8adapters4skip4SkipINtNtB1u_3rev3RevINtNtB1u_3map3MapINtNtNtB1y_3ops5range5RangejENCNvMsl_NtB8_6scalarNtB3o_6Scalar7bits_le0EEEEB8_
FN:217,_RNvMs3_NtCs1FafBRGY5sc_16curve25519_dalek10montgomeryNtB5_15MontgomeryPoint10to_edwards
FN:128,_RNvMs3_NtCs1FafBRGY5sc_16curve25519_dalek10montgomeryNtB5_15MontgomeryPoint11mul_clamped
FN:144,_RNvMs3_NtCs1FafBRGY5sc_16curve25519_dalek10montgomeryNtB5_15MontgomeryPoint16mul_base_clamped
FN:192,_RNvMs3_NtCs1FafBRGY5sc_16curve25519_dalek10montgomeryNtB5_15MontgomeryPoint8as_bytes
FN:122,_RNvMs3_NtCs1FafBRGY5sc_16curve25519_dalek10montgomeryNtB5_15MontgomeryPoint8mul_base
FN:197,_RNvMs3_NtCs1FafBRGY5sc_16curve25519_dalek10montgomeryNtB5_15MontgomeryPoint8to_bytes
FN:322,_RNvMs7_NtCs1FafBRGY5sc_16curve25519_dalek10montgomeryNtB5_15ProjectivePoint9as_affine
FN:256,_RNvNtCs1FafBRGY5sc_16curve25519_dalek10montgomery16elligator_encode
FN:343,_RNvNtCs1FafBRGY5sc_16curve25519_dalek10montgomery27differential_add_and_double
FN:79,_RNvXNtCs1FafBRGY5sc_16curve25519_dalek10montgomeryNtB2_15MontgomeryPointNtCseqNv8GKTA9D_6subtle14ConstantTimeEq5ct_eq
FN:108,_RNvXs2_NtCs1FafBRGY5sc_16curve25519_dalek10montgomeryNtB5_15MontgomeryPointNtNtB7_6traits8Identity8identity
FN:288,_RNvXs4_NtCs1FafBRGY5sc_16curve25519_dalek10montgomeryNtB5_15ProjectivePointNtNtB7_6traits8Identity8identity
FN:297,_RNvXs5_NtCs1FafBRGY5sc_16curve25519_dalek10montgomeryNtB5_15ProjectivePointNtNtCskumHb0IaX0X_4core7default7Default7default
FN:303,_RNvXs6_NtCs1FafBRGY5sc_16curve25519_dalek10montgomeryNtB5_15ProjectivePointNtCseqNv8GKTA9D_6subtle23ConditionallySelectable18conditional_select
FN:401,_RNvXs8_NtCs1FafBRGY5sc_16curve25519_dalek10montgomeryRNtB5_15MontgomeryPointINtNtNtCskumHb0IaX0X_4core3ops5arith3MulRNtNtB7_6scalar6ScalarE3mul
FN:409,_RNvXs9_NtCs1FafBRGY5sc_16curve25519_dalek10montgomeryNtB5_15MontgomeryPointINtNtNtCskumHb0IaX0X_4core3ops5arith9MulAssignRNtNtB7_6scalar6ScalarE10mul_assign
FN:88,_RNvXs_NtCs1FafBRGY5sc_16curve25519_dalek10montgomeryNtB4_15MontgomeryPointNtNtCskumHb0IaX0X_4core3cmp9PartialEq2eq
FN:417,_RNvXsa_NtCs1FafBRGY5sc_16curve25519_dalek10montgomeryRNtNtB7_6scalar6ScalarINtNtNtCskumHb0IaX0X_4core3ops5arith3MulRNtB5_15MontgomeryPointE3mul
FN:98,_RINvXs1_NtCs1FafBRGY5sc_16curve25519_dalek10montgomeryNtB6_15MontgomeryPointNtNtCskumHb0IaX0X_4core4hash4Hash4hashpEB8_
FNDA:0,_RINvMs3_NtCs1FafBRGY5sc_16curve25519_dalek10montgomeryNtB6_15MontgomeryPoint11mul_bits_beINtNtNtNtCskumHb0IaX0X_4core4iter8adapters4skip4SkipINtNtB1u_3rev3RevINtNtB1u_3map3MapINtNtNtB1y_3ops5range5RangejENCNvMsl_NtB8_6scalarNtB3o_6Scalar7bits_le0EEEEB8_
FNDA:0,_RNvMs3_NtCs1FafBRGY5sc_16curve25519_dalek10montgomeryNtB5_15MontgomeryPoint10to_edwards
FNDA:0,_RNvMs3_NtCs1FafBRGY5sc_16curve25519_dalek10montgomeryNtB5_15MontgomeryPoint11mul_clamped
FNDA:0,_RNvMs3_NtCs1FafBRGY5sc_16curve25519_dalek10montgomeryNtB5_15MontgomeryPoint16mul_base_clamped
FNDA:0,_RNvMs3_NtCs1FafBRGY5sc_16curve25519_dalek10montgomeryNtB5_15MontgomeryPoint8as_bytes
FNDA:0,_RNvMs3_NtCs1FafBRGY5sc_16curve25519_dalek10montgomeryNtB5_15MontgomeryPoint8mul_base
FNDA:0,_RNvMs3_NtCs1FafBRGY5sc_16curve25519_dalek10montgomeryNtB5_15MontgomeryPoint8to_bytes
FNDA:0,_RNvMs7_NtCs1FafBRGY5sc_16curve25519_dalek10montgomeryNtB5_15ProjectivePoint9as_affine
FNDA:0,_RNvNtCs1FafBRGY5sc_16curve25519_dalek10montgomery16elligator_encode
FNDA:0,_RNvNtCs1FafBRGY5sc_16curve25519_dalek10montgomery27differential_add_and_double
FNDA:0,_RNvXNtCs1FafBRGY5sc_16curve25519_dalek10montgomeryNtB2_15MontgomeryPointNtCseqNv8GKTA9D_6subtle14ConstantTimeEq5ct_eq
FNDA:0,_RNvXs2_NtCs1FafBRGY5sc_16curve25519_dalek10montgomeryNtB5_15MontgomeryPointNtNtB7_6traits8Identity8identity
FNDA:0,_RNvXs4_NtCs1FafBRGY5sc_16curve25519_dalek10montgomeryNtB5_15ProjectivePointNtNtB7_6traits8Identity8identity
FNDA:0,_RNvXs5_NtCs1FafBRGY5sc_16curve25519_dalek10montgomeryNtB5_15ProjectivePointNtNtCskumHb0IaX0X_4core7default7Default7default
FNDA:0,_RNvXs6_NtCs1FafBRGY5sc_16curve25519_dalek10montgomeryNtB5_15ProjectivePointNtCseqNv8GKTA9D_6subtle23ConditionallySelectable18conditional_select
FNDA:0,_RNvXs8_NtCs1FafBRGY5sc_16curve25519_dalek10montgomeryRNtB5_15MontgomeryPointINtNtNtCskumHb0IaX0X_4core3ops5arith3MulRNtNtB7_6scalar6ScalarE3mul
FNDA:0,_RNvXs9_NtCs1FafBRGY5sc_16curve25519_dalek10montgomeryNtB5_15MontgomeryPointINtNtNtCskumHb0IaX0X_4core3ops5arith9MulAssignRNtNtB7_6scalar6ScalarE10mul_assign
FNDA:0,_RNvXs_NtCs1FafBRGY5sc_16curve25519_dalek10montgomeryNtB4_15MontgomeryPointNtNtCskumHb0IaX0X_4core3cmp9PartialEq2eq
FNDA:0,_RNvXsa_NtCs1FafBRGY5sc_16curve25519_dalek10montgomeryRNtNtB7_6scalar6ScalarINtNtNtCskumHb0IaX0X_4core3ops5arith3MulRNtB5_15MontgomeryPointE3mul
FNDA:0,_RINvXs1_NtCs1FafBRGY5sc_16curve25519_dalek10montgomeryNtB6_15MontgomeryPointNtNtCskumHb0IaX0X_4core4hash4Hash4hashpEB8_
FNF:20
FNH:0
DA:79,0
DA:80,0
DA:81,0
DA:83,0
DA:84,0
DA:88,0
DA:89,0
DA:90,0
DA:98,0
DA:101,0
DA:102,0
DA:103,0
DA:108,0
DA:109,0
DA:110,0
DA:122,0
DA:123,0
DA:124,0
DA:128,0
DA:136,0
DA:137,0
DA:138,0
DA:139,0
DA:140,0
DA:144,0
DA:148,0
DA:149,0
DA:150,0
DA:151,0
DA:152,0
DA:161,0
DA:163,0
DA:164,0
DA:165,0
DA:166,0
DA:167,0
DA:168,0
DA:171,0
DA:172,0
DA:173,0
DA:175,0
DA:177,0
DA:178,0
DA:180,0
DA:183,0
DA:188,0
DA:189,0
DA:192,0
DA:193,0
DA:194,0
DA:197,0
DA:198,0
DA:199,0
DA:217,0
DA:232,0
DA:234,0
DA:235,0
DA:236,0
DA:238,0
DA:240,0
DA:242,0
DA:243,0
DA:245,0
DA:246,0
DA:256,0
DA:257,0
DA:258,0
DA:260,0
DA:262,0
DA:263,0
DA:265,0
DA:266,0
DA:268,0
DA:270,0
DA:271,0
DA:272,0
DA:273,0
DA:275,0
DA:276,0
DA:288,0
DA:289,0
DA:290,0
DA:291,0
DA:292,0
DA:293,0
DA:297,0
DA:298,0
DA:299,0
DA:303,0
DA:304,0
DA:305,0
DA:306,0
DA:307,0
DA:308,0
DA:309,0
DA:310,0
DA:311,0
DA:312,0
DA:322,0
DA:323,0
DA:324,0
DA:325,0
DA:343,0
DA:344,0
DA:345,0
DA:346,0
DA:347,0
DA:348,0
DA:349,0
DA:350,0
DA:351,0
DA:353,0
DA:354,0
DA:356,0
DA:358,0
DA:359,0
DA:361,0
DA:362,0
DA:364,0
DA:365,0
DA:367,0
DA:369,0
DA:370,0
DA:372,0
DA:374,0
DA:375,0
DA:377,0
DA:378,0
DA:379,0
DA:380,0
DA:381,0
DA:401,0
DA:404,0
DA:405,0
DA:409,0
DA:410,0
DA:411,0
DA:417,0
DA:418,0
DA:419,0
BRF:0
BRH:0
LF:140
LH:0
end_of_record
SF:/Users/kuangtalin/.cargo/registry/src/index.crates.io-1949cf8c6b5b557f/curve25519-dalek-4.1.3/src/ristretto.rs
FN:787,_RNvMs3_NtCs1FafBRGY5sc_16curve25519_dalek9ristrettoNtB5_14RistrettoPoint18from_uniform_bytes
FN:656,_RNvMs3_NtCs1FafBRGY5sc_16curve25519_dalek9ristrettoNtB5_14RistrettoPoint26elligator_ristretto_flavor
FN:639,_RNvMs3_NtCs1FafBRGY5sc_16curve25519_dalek9ristrettoNtB5_14RistrettoPoint6coset4
FN:489,_RNvMs3_NtCs1FafBRGY5sc_16curve25519_dalek9ristrettoNtB5_14RistrettoPoint8compress
FN:255,_RNvMs_NtCs1FafBRGY5sc_16curve25519_dalek9ristrettoNtB4_19CompressedRistretto10decompress
FN:244,_RNvMs_NtCs1FafBRGY5sc_16curve25519_dalek9ristrettoNtB4_19CompressedRistretto10from_slice
FN:234,_RNvMs_NtCs1FafBRGY5sc_16curve25519_dalek9ristrettoNtB4_19CompressedRistretto8as_bytes
FN:229,_RNvMs_NtCs1FafBRGY5sc_16curve25519_dalek9ristrettoNtB4_19CompressedRistretto8to_bytes
FN:952,_RNvMsj_NtCs1FafBRGY5sc_16curve25519_dalek9ristrettoNtB5_14RistrettoPoint8mul_base
FN:1056,_RNvMsk_NtCs1FafBRGY5sc_16curve25519_dalek9ristrettoNtB5_14RistrettoPoint35vartime_double_scalar_mul_basepoint
FN:222,_RNvXNtCs1FafBRGY5sc_16curve25519_dalek9ristrettoNtB2_19CompressedRistrettoNtCseqNv8GKTA9D_6subtle14ConstantTimeEq5ct_eq
FN:337,_RNvXs0_NtCs1FafBRGY5sc_16curve25519_dalek9ristrettoNtB5_19CompressedRistrettoNtNtB7_6traits8Identity8identity
FN:343,_RNvXs1_NtCs1FafBRGY5sc_16curve25519_dalek9ristrettoNtB5_19CompressedRistrettoNtNtCskumHb0IaX0X_4core7default7Default7default
FN:351,_RNvXs2_NtCs1FafBRGY5sc_16curve25519_dalek9ristrettoNtB5_19CompressedRistrettoINtNtCskumHb0IaX0X_4core7convert7TryFromRShE8try_from
FN:807,_RNvXs4_NtCs1FafBRGY5sc_16curve25519_dalek9ristrettoNtB5_14RistrettoPointNtNtB7_6traits8Identity8identity
FN:813,_RNvXs5_NtCs1FafBRGY5sc_16curve25519_dalek9ristrettoNtB5_14RistrettoPointNtNtCskumHb0IaX0X_4core7default7Default7default
FN:823,_RNvXs6_NtCs1FafBRGY5sc_16curve25519_dalek9ristrettoNtB5_14RistrettoPointNtNtCskumHb0IaX0X_4core3cmp9PartialEq2eq
FN:835,_RNvXs7_NtCs1FafBRGY5sc_16curve25519_dalek9ristrettoNtB5_14RistrettoPointNtCseqNv8GKTA9D_6subtle14ConstantTimeEq5ct_eq
FN:854,_RNvXs9_NtCs1FafBRGY5sc_16curve25519_dalek9ristrettoRNtB5_14RistrettoPointNtNtNtCskumHb0IaX0X_4core3ops5arith3Add3add
FN:866,_RNvXsa_NtCs1FafBRGY5sc_16curve25519_dalek9ristrettoNtB5_14RistrettoPointINtNtNtCskumHb0IaX0X_4core3ops5arith9AddAssignRBN_E10add_assign
FN:876,_RNvXsb_NtCs1FafBRGY5sc_16curve25519_dalek9ristrettoRNtB5_14RistrettoPointNtNtNtCskumHb0IaX0X_4core3ops5arith3Sub3sub
FN:888,_RNvXsc_NtCs1FafBRGY5sc_16curve25519_dalek9ristrettoNtB5_14RistrettoPointINtNtNtCskumHb0IaX0X_4core3ops5arith9SubAssignRBN_E10sub_assign
FN:910,_RNvXse_NtCs1FafBRGY5sc_16curve25519_dalek9ristrettoRNtB5_14RistrettoPointNtNtNtCskumHb0IaX0X_4core3ops5arith3Neg3neg
FN:918,_RNvXsf_NtCs1FafBRGY5sc_16curve25519_dalek9ristrettoNtB5_14RistrettoPointNtNtNtCskumHb0IaX0X_4core3ops5arith3Neg3neg
FN:924,_RNvXsg_NtCs1FafBRGY5sc_16curve25519_dalek9ristrettoNtB5_14RistrettoPointINtNtNtCskumHb0IaX0X_4core3ops5arith9MulAssignRNtNtB7_6scalar6ScalarE10mul_assign
FN:933,_RNvXsh_NtCs1FafBRGY5sc_16curve25519_dalek9ristrettoRNtB5_14RistrettoPointINtNtNtCskumHb0IaX0X_4core3ops5arith3MulRNtNtB7_6scalar6ScalarE3mul
FN:1144,_RNvXsl_NtCs1FafBRGY5sc_16curve25519_dalek9ristrettoNtB5_14RistrettoPointNtCseqNv8GKTA9D_6subtle23ConditionallySelectable18conditional_select
FN:1158,_RNvXsm_NtCs1FafBRGY5sc_16curve25519_dalek9ristrettoNtB5_19CompressedRistrettoNtNtCskumHb0IaX0X_4core3fmt5Debug3fmt
FN:1164,_RNvXsn_NtCs1FafBRGY5sc_16curve25519_dalek9ristrettoNtB5_14RistrettoPointNtNtCskumHb0IaX0X_4core3fmt5Debug3fmt
FN:275,_RNvNtNtCs1FafBRGY5sc_16curve25519_dalek9ristretto10decompress6step_1
FN:295,_RNvNtNtCs1FafBRGY5sc_16curve25519_dalek9ristretto10decompress6step_2
FN:942,_RNvXsi_NtCs1FafBRGY5sc_16curve25519_dalek9ristrettoRNtNtB7_6scalar6ScalarINtNtNtCskumHb0IaX0X_4core3ops5arith3MulRNtB5_14RistrettoPointE3mul
FN:749,_RINvMs3_NtCs1FafBRGY5sc_16curve25519_dalek9ristrettoNtB6_14RistrettoPoint15hash_from_bytespEB8_
FN:764,_RINvMs3_NtCs1FafBRGY5sc_16curve25519_dalek9ristrettoNtB6_14RistrettoPoint9from_hashpEB8_
FN:899,_RINvXININtCs1FafBRGY5sc_16curve25519_dalek9ristrettosd_0pENtB6_14RistrettoPointINtNtNtNtCskumHb0IaX0X_4core4iter6traits5accum3SumpE3sumpEB8_
FN:903,_RNCINvXININtCs1FafBRGY5sc_16curve25519_dalek9ristrettosd_0pENtB8_14RistrettoPointINtNtNtNtCskumHb0IaX0X_4core4iter6traits5accum3SumpE3sumpE0Ba_
FNDA:0,_RNvMs3_NtCs1FafBRGY5sc_16curve25519_dalek9ristrettoNtB5_14RistrettoPoint18from_uniform_bytes
FNDA:0,_RNvMs3_NtCs1FafBRGY5sc_16curve25519_dalek9ristrettoNtB5_14RistrettoPoint26elligator_ristretto_flavor
FNDA:0,_RNvMs3_NtCs1FafBRGY5sc_16curve25519_dalek9ristrettoNtB5_14RistrettoPoint6coset4
FNDA:0,_RNvMs3_NtCs1FafBRGY5sc_16curve25519_dalek9ristrettoNtB5_14RistrettoPoint8compress
FNDA:0,_RNvMs_NtCs1FafBRGY5sc_16curve25519_dalek9ristrettoNtB4_19CompressedRistretto10decompress
FNDA:0,_RNvMs_NtCs1FafBRGY5sc_16curve25519_dalek9ristrettoNtB4_19CompressedRistretto10from_slice
FNDA:0,_RNvMs_NtCs1FafBRGY5sc_16curve25519_dalek9ristrettoNtB4_19CompressedRistretto8as_bytes
FNDA:0,_RNvMs_NtCs1FafBRGY5sc_16curve25519_dalek9ristrettoNtB4_19CompressedRistretto8to_bytes
FNDA:0,_RNvMsj_NtCs1FafBRGY5sc_16curve25519_dalek9ristrettoNtB5_14RistrettoPoint8mul_base
FNDA:0,_RNvMsk_NtCs1FafBRGY5sc_16curve25519_dalek9ristrettoNtB5_14RistrettoPoint35vartime_double_scalar_mul_basepoint
FNDA:0,_RNvXNtCs1FafBRGY5sc_16curve25519_dalek9ristrettoNtB2_19CompressedRistrettoNtCseqNv8GKTA9D_6subtle14ConstantTimeEq5ct_eq
FNDA:0,_RNvXs0_NtCs1FafBRGY5sc_16curve25519_dalek9ristrettoNtB5_19CompressedRistrettoNtNtB7_6traits8Identity8identity
FNDA:0,_RNvXs1_NtCs1FafBRGY5sc_16curve25519_dalek9ristrettoNtB5_19CompressedRistrettoNtNtCskumHb0IaX0X_4core7default7Default7default
FNDA:0,_RNvXs2_NtCs1FafBRGY5sc_16curve25519_dalek9ristrettoNtB5_19CompressedRistrettoINtNtCskumHb0IaX0X_4core7convert7TryFromRShE8try_from
FNDA:0,_RNvXs4_NtCs1FafBRGY5sc_16curve25519_dalek9ristrettoNtB5_14RistrettoPointNtNtB7_6traits8Identity8identity
FNDA:0,_RNvXs5_NtCs1FafBRGY5sc_16curve25519_dalek9ristrettoNtB5_14RistrettoPointNtNtCskumHb0IaX0X_4core7default7Default7default
FNDA:0,_RNvXs6_NtCs1FafBRGY5sc_16curve25519_dalek9ristrettoNtB5_14RistrettoPointNtNtCskumHb0IaX0X_4core3cmp9PartialEq2eq
FNDA:0,_RNvXs7_NtCs1FafBRGY5sc_16curve25519_dalek9ristrettoNtB5_14RistrettoPointNtCseqNv8GKTA9D_6subtle14ConstantTimeEq5ct_eq
FNDA:0,_RNvXs9_NtCs1FafBRGY5sc_16curve25519_dalek9ristrettoRNtB5_14RistrettoPointNtNtNtCskumHb0IaX0X_4core3ops5arith3Add3add
FNDA:0,_RNvXsa_NtCs1FafBRGY5sc_16curve25519_dalek9ristrettoNtB5_14RistrettoPointINtNtNtCskumHb0IaX0X_4core3ops5arith9AddAssignRBN_E10add_assign
FNDA:0,_RNvXsb_NtCs1FafBRGY5sc_16curve25519_dalek9ristrettoRNtB5_14RistrettoPointNtNtNtCskumHb0IaX0X_4core3ops5arith3Sub3sub
FNDA:0,_RNvXsc_NtCs1FafBRGY5sc_16curve25519_dalek9ristrettoNtB5_14RistrettoPointINtNtNtCskumHb0IaX0X_4core3ops5arith9SubAssignRBN_E10sub_assign
FNDA:0,_RNvXse_NtCs1FafBRGY5sc_16curve25519_dalek9ristrettoRNtB5_14RistrettoPointNtNtNtCskumHb0IaX0X_4core3ops5arith3Neg3neg
FNDA:0,_RNvXsf_NtCs1FafBRGY5sc_16curve25519_dalek9ristrettoNtB5_14RistrettoPointNtNtNtCskumHb0IaX0X_4core3ops5arith3Neg3neg
FNDA:0,_RNvXsg_NtCs1FafBRGY5sc_16curve25519_dalek9ristrettoNtB5_14RistrettoPointINtNtNtCskumHb0IaX0X_4core3ops5arith9MulAssignRNtNtB7_6scalar6ScalarE10mul_assign
FNDA:0,_RNvXsh_NtCs1FafBRGY5sc_16curve25519_dalek9ristrettoRNtB5_14RistrettoPointINtNtNtCskumHb0IaX0X_4core3ops5arith3MulRNtNtB7_6scalar6ScalarE3mul
FNDA:0,_RNvXsl_NtCs1FafBRGY5sc_16curve25519_dalek9ristrettoNtB5_14RistrettoPointNtCseqNv8GKTA9D_6subtle23ConditionallySelectable18conditional_select
FNDA:0,_RNvXsm_NtCs1FafBRGY5sc_16curve25519_dalek9ristrettoNtB5_19CompressedRistrettoNtNtCskumHb0IaX0X_4core3fmt5Debug3fmt
FNDA:0,_RNvXsn_NtCs1FafBRGY5sc_16curve25519_dalek9ristrettoNtB5_14RistrettoPointNtNtCskumHb0IaX0X_4core3fmt5Debug3fmt
FNDA:0,_RNvNtNtCs1FafBRGY5sc_16curve25519_dalek9ristretto10decompress6step_1
FNDA:0,_RNvNtNtCs1FafBRGY5sc_16curve25519_dalek9ristretto10decompress6step_2
FNDA:0,_RNvXsi_NtCs1FafBRGY5sc_16curve25519_dalek9ristrettoRNtNtB7_6scalar6ScalarINtNtNtCskumHb0IaX0X_4core3ops5arith3MulRNtB5_14RistrettoPointE3mul
FNDA:0,_RINvMs3_NtCs1FafBRGY5sc_16curve25519_dalek9ristrettoNtB6_14RistrettoPoint15hash_from_bytespEB8_
FNDA:0,_RINvMs3_NtCs1FafBRGY5sc_16curve25519_dalek9ristrettoNtB6_14RistrettoPoint9from_hashpEB8_
FNDA:0,_RINvXININtCs1FafBRGY5sc_16curve25519_dalek9ristrettosd_0pENtB6_14RistrettoPointINtNtNtNtCskumHb0IaX0X_4core4iter6traits5accum3SumpE3sumpEB8_
FNDA:0,_RNCINvXININtCs1FafBRGY5sc_16curve25519_dalek9ristrettosd_0pENtB8_14RistrettoPointINtNtNtNtCskumHb0IaX0X_4core4iter6traits5accum3SumpE3sumpE0Ba_
FNF:36
FNH:0
DA:222,0
DA:223,0
DA:224,0
DA:229,0
DA:230,0
DA:231,0
DA:234,0
DA:235,0
DA:236,0
DA:244,0
DA:245,0
DA:246,0
DA:255,0
DA:256,0
DA:258,0
DA:259,0
DA:260,0
DA:262,0
DA:264,0
DA:265,0
DA:267,0
DA:269,0
DA:275,0
DA:287,0
DA:288,0
DA:289,0
DA:290,0
DA:292,0
DA:293,0
DA:295,0
DA:297,0
DA:298,0
DA:299,0
DA:300,0
DA:301,0
DA:304,0
DA:306,0
DA:308,0
DA:309,0
DA:312,0
DA:313,0
DA:314,0
DA:317,0
DA:320,0
DA:322,0
DA:323,0
DA:324,0
DA:325,0
DA:326,0
DA:327,0
DA:328,0
DA:329,0
DA:330,0
DA:331,0
DA:332,0
DA:333,0
DA:337,0
DA:338,0
DA:339,0
DA:343,0
DA:344,0
DA:345,0
DA:351,0
DA:352,0
DA:353,0
DA:489,0
DA:490,0
DA:491,0
DA:492,0
DA:493,0
DA:495,0
DA:496,0
DA:498,0
DA:499,0
DA:500,0
DA:501,0
DA:502,0
DA:504,0
DA:505,0
DA:506,0
DA:507,0
DA:509,0
DA:511,0
DA:512,0
DA:513,0
DA:515,0
DA:517,0
DA:518,0
DA:519,0
DA:521,0
DA:522,0
DA:639,0
DA:640,0
DA:641,0
DA:642,0
DA:643,0
DA:644,0
DA:645,0
DA:646,0
DA:656,0
DA:657,0
DA:658,0
DA:659,0
DA:660,0
DA:661,0
DA:663,0
DA:665,0
DA:666,0
DA:667,0
DA:669,0
DA:670,0
DA:671,0
DA:672,0
DA:674,0
DA:675,0
DA:677,0
DA:678,0
DA:683,0
DA:684,0
DA:685,0
DA:686,0
DA:687,0
DA:688,0
DA:689,0
DA:690,0
DA:691,0
DA:692,0
DA:749,0
DA:750,0
DA:751,0
DA:753,0
DA:754,0
DA:755,0
DA:756,0
DA:764,0
DA:765,0
DA:766,0
DA:769,0
DA:770,0
DA:771,0
DA:773,0
DA:774,0
DA:787,0
DA:790,0
DA:791,0
DA:792,0
DA:793,0
DA:795,0
DA:796,0
DA:797,0
DA:798,0
DA:802,0
DA:803,0
DA:807,0
DA:808,0
DA:809,0
DA:813,0
DA:814,0
DA:815,0
DA:823,0
DA:824,0
DA:825,0
DA:835,0
DA:836,0
DA:837,0
DA:838,0
DA:839,0
DA:841,0
DA:842,0
DA:854,0
DA:855,0
DA:856,0
DA:866,0
DA:867,0
DA:868,0
DA:876,0
DA:877,0
DA:878,0
DA:888,0
DA:889,0
DA:890,0
DA:899,0
DA:900,0
DA:901,0
DA:903,0
DA:904,0
DA:910,0
DA:911,0
DA:912,0
DA:918,0
DA:919,0
DA:920,0
DA:924,0
DA:925,0
DA:926,0
DA:927,0
DA:933,0
DA:934,0
DA:935,0
DA:942,0
DA:943,0
DA:944,0
DA:952,0
DA:955,0
DA:962,0
DA:1056,0
DA:1057,0
DA:1058,0
DA:1059,0
DA:1060,0
DA:1061,0
DA:1062,0
DA:1063,0
DA:1064,0
DA:1144,0
DA:1145,0
DA:1146,0
DA:1147,0
DA:1148,0
DA:1149,0
DA:1150,0
DA:1158,0
DA:1159,0
DA:1160,0
DA:1164,0
DA:1165,0
DA:1166,0
DA:1167,0
DA:1169,0
DA:1171,0
BRF:0
BRH:0
LF:231
LH:0
end_of_record
SF:/Users/kuangtalin/.cargo/registry/src/index.crates.io-1949cf8c6b5b557f/curve25519-dalek-4.1.3/src/scalar.rs
FN:671,_RINvMsl_NtCs1FafBRGY5sc_16curve25519_dalek6scalarNtB6_6Scalar9from_hashINtNtNtCs8hrGzK1ZDm1_6digest8core_api7wrapper11CoreWrapperINtNtB1c_11ct_variable21CtVariableCoreWrapperNtNtCs2jU7EytItPK_4sha28core_api13Sha512VarCoreINtNtCsdOIG378uWuC_7typenum4uint4UIntIB3y_IB3y_IB3y_IB3y_IB3y_IB3y_NtB3A_5UTermNtNtB3C_3bit2B1ENtB4Q_2B0EB54_EB54_EB54_EB54_EB54_ENtB2Q_9OidSha512EEECs7KSaGTpB2VC_13ed25519_dalek
FN:1150,_RNvMsm_NtCs1FafBRGY5sc_16curve25519_dalek6scalarNtNtNtNtNtB7_7backend6serial3u646scalar8Scalar5217montgomery_invert
FN:1141,_RNvMsm_NtCs1FafBRGY5sc_16curve25519_dalek6scalarNtNtNtNtNtB7_7backend6serial3u646scalar8Scalar524pack
FN:1206,_RNvMsm_NtCs1FafBRGY5sc_16curve25519_dalek6scalarNtNtNtNtNtB7_7backend6serial3u646scalar8Scalar526invert
FN:841,_RNCNvMsl_NtCs1FafBRGY5sc_16curve25519_dalek6scalarNtB7_6Scalar7bits_le0B9_
FN:237,_RNvMNtCs1FafBRGY5sc_16curve25519_dalek6scalarNtB2_6Scalar20from_bytes_mod_order
FN:261,_RNvMNtCs1FafBRGY5sc_16curve25519_dalek6scalarNtB2_6Scalar20from_canonical_bytes
FN:250,_RNvMNtCs1FafBRGY5sc_16curve25519_dalek6scalarNtB2_6Scalar25from_bytes_mod_order_wide
FN:985,_RNvMsl_NtCs1FafBRGY5sc_16curve25519_dalek6scalarNtB5_6Scalar11as_radix_16
FN:1134,_RNvMsl_NtCs1FafBRGY5sc_16curve25519_dalek6scalarNtB5_6Scalar12is_canonical
FN:921,_RNvMsl_NtCs1FafBRGY5sc_16curve25519_dalek6scalarNtB5_6Scalar17non_adjacent_form
FN:747,_RNvMsl_NtCs1FafBRGY5sc_16curve25519_dalek6scalarNtB5_6Scalar6invert
FN:1125,_RNvMsl_NtCs1FafBRGY5sc_16curve25519_dalek6scalarNtB5_6Scalar6reduce
FN:1119,_RNvMsl_NtCs1FafBRGY5sc_16curve25519_dalek6scalarNtB5_6Scalar6unpack
FN:840,_RNvMsl_NtCs1FafBRGY5sc_16curve25519_dalek6scalarNtB5_6Scalar7bits_le
FN:706,_RNvMsl_NtCs1FafBRGY5sc_16curve25519_dalek6scalarNtB5_6Scalar8as_bytes
FN:691,_RNvMsl_NtCs1FafBRGY5sc_16curve25519_dalek6scalarNtB5_6Scalar8to_bytes
FN:1386,_RNvNtCs1FafBRGY5sc_16curve25519_dalek6scalar13clamp_integer
FN:1350,_RNvNtCs1FafBRGY5sc_16curve25519_dalek6scalar16read_le_u64_into
FN:993,_RNvNvMsl_NtCs1FafBRGY5sc_16curve25519_dalek6scalarNtB7_6Scalar11as_radix_168bot_half
FN:997,_RNvNvMsl_NtCs1FafBRGY5sc_16curve25519_dalek6scalarNtB7_6Scalar11as_radix_168top_half
FN:1167,_RNvNvMsm_NtCs1FafBRGY5sc_16curve25519_dalek6scalarNtNtNtNtNtB9_7backend6serial3u646scalar8Scalar5217montgomery_invert15square_multiplyB9_
FN:295,_RNvXs1_NtCs1FafBRGY5sc_16curve25519_dalek6scalarNtB5_6ScalarNtNtCskumHb0IaX0X_4core3cmp9PartialEq2eq
FN:301,_RNvXs2_NtCs1FafBRGY5sc_16curve25519_dalek6scalarNtB5_6ScalarNtCseqNv8GKTA9D_6subtle14ConstantTimeEq5ct_eq
FN:310,_RNvXs3_NtCs1FafBRGY5sc_16curve25519_dalek6scalarNtB5_6ScalarINtNtNtCskumHb0IaX0X_4core3ops5index5IndexjE5index
FN:316,_RNvXs4_NtCs1FafBRGY5sc_16curve25519_dalek6scalarNtB5_6ScalarINtNtNtCskumHb0IaX0X_4core3ops5arith9MulAssignRBK_E10mul_assign
FN:325,_RNvXs5_NtCs1FafBRGY5sc_16curve25519_dalek6scalarRNtB5_6ScalarNtNtNtCskumHb0IaX0X_4core3ops5arith3Mul3mul
FN:333,_RNvXs6_NtCs1FafBRGY5sc_16curve25519_dalek6scalarNtB5_6ScalarINtNtNtCskumHb0IaX0X_4core3ops5arith9AddAssignRBK_E10add_assign
FN:343,_RNvXs7_NtCs1FafBRGY5sc_16curve25519_dalek6scalarRNtB5_6ScalarNtNtNtCskumHb0IaX0X_4core3ops5arith3Add3add
FN:353,_RNvXs8_NtCs1FafBRGY5sc_16curve25519_dalek6scalarNtB5_6ScalarINtNtNtCskumHb0IaX0X_4core3ops5arith9SubAssignRBK_E10sub_assign
FN:363,_RNvXs9_NtCs1FafBRGY5sc_16curve25519_dalek6scalarRNtB5_6ScalarNtNtNtCskumHb0IaX0X_4core3ops5arith3Sub3sub
FN:288,_RNvXs_NtCs1FafBRGY5sc_16curve25519_dalek6scalarNtB4_6ScalarNtNtCskumHb0IaX0X_4core3fmt5Debug3fmt
FN:375,_RNvXsa_NtCs1FafBRGY5sc_16curve25519_dalek6scalarRNtB5_6ScalarNtNtNtCskumHb0IaX0X_4core3ops5arith3Neg3neg
FN:384,_RNvXsb_NtCs1FafBRGY5sc_16curve25519_dalek6scalarNtB5_6ScalarNtNtNtCskumHb0IaX0X_4core3ops5arith3Neg3neg
FN:390,_RNvXsc_NtCs1FafBRGY5sc_16curve25519_dalek6scalarNtB5_6ScalarNtCseqNv8GKTA9D_6subtle23ConditionallySelectable18conditional_select
FN:485,_RNvXsf_NtCs1FafBRGY5sc_16curve25519_dalek6scalarNtB5_6ScalarNtNtCskumHb0IaX0X_4core7default7Default7default
FN:491,_RNvXsg_NtCs1FafBRGY5sc_16curve25519_dalek6scalarNtB5_6ScalarINtNtCskumHb0IaX0X_4core7convert4FromhE4from
FN:499,_RNvXsh_NtCs1FafBRGY5sc_16curve25519_dalek6scalarNtB5_6ScalarINtNtCskumHb0IaX0X_4core7convert4FromtE4from
FN:508,_RNvXsi_NtCs1FafBRGY5sc_16curve25519_dalek6scalarNtB5_6ScalarINtNtCskumHb0IaX0X_4core7convert4FrommE4from
FN:538,_RNvXsj_NtCs1FafBRGY5sc_16curve25519_dalek6scalarNtB5_6ScalarINtNtCskumHb0IaX0X_4core7convert4FromyE4from
FN:547,_RNvXsk_NtCs1FafBRGY5sc_16curve25519_dalek6scalarNtB5_6ScalarINtNtCskumHb0IaX0X_4core7convert4FromoE4from
FN:625,_RINvMsl_NtCs1FafBRGY5sc_16curve25519_dalek6scalarNtB6_6Scalar15hash_from_bytespEB8_
FN:671,_RINvMsl_NtCs1FafBRGY5sc_16curve25519_dalek6scalarNtB6_6Scalar9from_hashpEB8_
FN:464,_RINvXININtCs1FafBRGY5sc_16curve25519_dalek6scalarsd_0pENtB6_6ScalarINtNtNtNtCskumHb0IaX0X_4core4iter6traits5accum7ProductpE7productpEB8_
FN:476,_RINvXININtCs1FafBRGY5sc_16curve25519_dalek6scalarse_0pENtB6_6ScalarINtNtNtNtCskumHb0IaX0X_4core4iter6traits5accum3SumpE3sumpEB8_
FN:468,_RNCINvXININtCs1FafBRGY5sc_16curve25519_dalek6scalarsd_0pENtB8_6ScalarINtNtNtNtCskumHb0IaX0X_4core4iter6traits5accum7ProductpE7productpE0Ba_
FN:480,_RNCINvXININtCs1FafBRGY5sc_16curve25519_dalek6scalarse_0pENtB8_6ScalarINtNtNtNtCskumHb0IaX0X_4core4iter6traits5accum3SumpE3sumpE0Ba_
FNDA:0,_RINvMsl_NtCs1FafBRGY5sc_16curve25519_dalek6scalarNtB6_6Scalar9from_hashINtNtNtCs8hrGzK1ZDm1_6digest8core_api7wrapper11CoreWrapperINtNtB1c_11ct_variable21CtVariableCoreWrapperNtNtCs2jU7EytItPK_4sha28core_api13Sha512VarCoreINtNtCsdOIG378uWuC_7typenum4uint4UIntIB3y_IB3y_IB3y_IB3y_IB3y_IB3y_NtB3A_5UTermNtNtB3C_3bit2B1ENtB4Q_2B0EB54_EB54_EB54_EB54_EB54_ENtB2Q_9OidSha512EEECs7KSaGTpB2VC_13ed25519_dalek
FNDA:0,_RNvMsm_NtCs1FafBRGY5sc_16curve25519_dalek6scalarNtNtNtNtNtB7_7backend6serial3u646scalar8Scalar5217montgomery_invert
FNDA:0,_RNvMsm_NtCs1FafBRGY5sc_16curve25519_dalek6scalarNtNtNtNtNtB7_7backend6serial3u646scalar8Scalar524pack
FNDA:0,_RNvMsm_NtCs1FafBRGY5sc_16curve25519_dalek6scalarNtNtNtNtNtB7_7backend6serial3u646scalar8Scalar526invert
FNDA:0,_RNCNvMsl_NtCs1FafBRGY5sc_16curve25519_dalek6scalarNtB7_6Scalar7bits_le0B9_
FNDA:0,_RNvMNtCs1FafBRGY5sc_16curve25519_dalek6scalarNtB2_6Scalar20from_bytes_mod_order
FNDA:0,_RNvMNtCs1FafBRGY5sc_16curve25519_dalek6scalarNtB2_6Scalar20from_canonical_bytes
FNDA:0,_RNvMNtCs1FafBRGY5sc_16curve25519_dalek6scalarNtB2_6Scalar25from_bytes_mod_order_wide
FNDA:0,_RNvMsl_NtCs1FafBRGY5sc_16curve25519_dalek6scalarNtB5_6Scalar11as_radix_16
FNDA:0,_RNvMsl_NtCs1FafBRGY5sc_16curve25519_dalek6scalarNtB5_6Scalar12is_canonical
FNDA:0,_RNvMsl_NtCs1FafBRGY5sc_16curve25519_dalek6scalarNtB5_6Scalar17non_adjacent_form
FNDA:0,_RNvMsl_NtCs1FafBRGY5sc_16curve25519_dalek6scalarNtB5_6Scalar6invert
FNDA:0,_RNvMsl_NtCs1FafBRGY5sc_16curve25519_dalek6scalarNtB5_6Scalar6reduce
FNDA:0,_RNvMsl_NtCs1FafBRGY5sc_16curve25519_dalek6scalarNtB5_6Scalar6unpack
FNDA:0,_RNvMsl_NtCs1FafBRGY5sc_16curve25519_dalek6scalarNtB5_6Scalar7bits_le
FNDA:0,_RNvMsl_NtCs1FafBRGY5sc_16curve25519_dalek6scalarNtB5_6Scalar8as_bytes
FNDA:0,_RNvMsl_NtCs1FafBRGY5sc_16curve25519_dalek6scalarNtB5_6Scalar8to_bytes
FNDA:0,_RNvNtCs1FafBRGY5sc_16curve25519_dalek6scalar13clamp_integer
FNDA:0,_RNvNtCs1FafBRGY5sc_16curve25519_dalek6scalar16read_le_u64_into
FNDA:0,_RNvNvMsl_NtCs1FafBRGY5sc_16curve25519_dalek6scalarNtB7_6Scalar11as_radix_168bot_half
FNDA:0,_RNvNvMsl_NtCs1FafBRGY5sc_16curve25519_dalek6scalarNtB7_6Scalar11as_radix_168top_half
FNDA:0,_RNvNvMsm_NtCs1FafBRGY5sc_16curve25519_dalek6scalarNtNtNtNtNtB9_7backend6serial3u646scalar8Scalar5217montgomery_invert15square_multiplyB9_
FNDA:0,_RNvXs1_NtCs1FafBRGY5sc_16curve25519_dalek6scalarNtB5_6ScalarNtNtCskumHb0IaX0X_4core3cmp9PartialEq2eq
FNDA:0,_RNvXs2_NtCs1FafBRGY5sc_16curve25519_dalek6scalarNtB5_6ScalarNtCseqNv8GKTA9D_6subtle14ConstantTimeEq5ct_eq
FNDA:0,_RNvXs3_NtCs1FafBRGY5sc_16curve25519_dalek6scalarNtB5_6ScalarINtNtNtCskumHb0IaX0X_4core3ops5index5IndexjE5index
FNDA:0,_RNvXs4_NtCs1FafBRGY5sc_16curve25519_dalek6scalarNtB5_6ScalarINtNtNtCskumHb0IaX0X_4core3ops5arith9MulAssignRBK_E10mul_assign
FNDA:0,_RNvXs5_NtCs1FafBRGY5sc_16curve25519_dalek6scalarRNtB5_6ScalarNtNtNtCskumHb0IaX0X_4core3ops5arith3Mul3mul
FNDA:0,_RNvXs6_NtCs1FafBRGY5sc_16curve25519_dalek6scalarNtB5_6ScalarINtNtNtCskumHb0IaX0X_4core3ops5arith9AddAssignRBK_E10add_assign
FNDA:0,_RNvXs7_NtCs1FafBRGY5sc_16curve25519_dalek6scalarRNtB5_6ScalarNtNtNtCskumHb0IaX0X_4core3ops5arith3Add3add
FNDA:0,_RNvXs8_NtCs1FafBRGY5sc_16curve25519_dalek6scalarNtB5_6ScalarINtNtNtCskumHb0IaX0X_4core3ops5arith9SubAssignRBK_E10sub_assign
FNDA:0,_RNvXs9_NtCs1FafBRGY5sc_16curve25519_dalek6scalarRNtB5_6ScalarNtNtNtCskumHb0IaX0X_4core3ops5arith3Sub3sub
FNDA:0,_RNvXs_NtCs1FafBRGY5sc_16curve25519_dalek6scalarNtB4_6ScalarNtNtCskumHb0IaX0X_4core3fmt5Debug3fmt
FNDA:0,_RNvXsa_NtCs1FafBRGY5sc_16curve25519_dalek6scalarRNtB5_6ScalarNtNtNtCskumHb0IaX0X_4core3ops5arith3Neg3neg
FNDA:0,_RNvXsb_NtCs1FafBRGY5sc_16curve25519_dalek6scalarNtB5_6ScalarNtNtNtCskumHb0IaX0X_4core3ops5arith3Neg3neg
FNDA:0,_RNvXsc_NtCs1FafBRGY5sc_16curve25519_dalek6scalarNtB5_6ScalarNtCseqNv8GKTA9D_6subtle23ConditionallySelectable18conditional_select
FNDA:0,_RNvXsf_NtCs1FafBRGY5sc_16curve25519_dalek6scalarNtB5_6ScalarNtNtCskumHb0IaX0X_4core7default7Default7default
FNDA:0,_RNvXsg_NtCs1FafBRGY5sc_16curve25519_dalek6scalarNtB5_6ScalarINtNtCskumHb0IaX0X_4core7convert4FromhE4from
FNDA:0,_RNvXsh_NtCs1FafBRGY5sc_16curve25519_dalek6scalarNtB5_6ScalarINtNtCskumHb0IaX0X_4core7convert4FromtE4from
FNDA:0,_RNvXsi_NtCs1FafBRGY5sc_16curve25519_dalek6scalarNtB5_6ScalarINtNtCskumHb0IaX0X_4core7convert4FrommE4from
FNDA:0,_RNvXsj_NtCs1FafBRGY5sc_16curve25519_dalek6scalarNtB5_6ScalarINtNtCskumHb0IaX0X_4core7convert4FromyE4from
FNDA:0,_RNvXsk_NtCs1FafBRGY5sc_16curve25519_dalek6scalarNtB5_6ScalarINtNtCskumHb0IaX0X_4core7convert4FromoE4from
FNDA:0,_RINvMsl_NtCs1FafBRGY5sc_16curve25519_dalek6scalarNtB6_6Scalar15hash_from_bytespEB8_
FNDA:0,_RINvMsl_NtCs1FafBRGY5sc_16curve25519_dalek6scalarNtB6_6Scalar9from_hashpEB8_
FNDA:0,_RINvXININtCs1FafBRGY5sc_16curve25519_dalek6scalarsd_0pENtB6_6ScalarINtNtNtNtCskumHb0IaX0X_4core4iter6traits5accum7ProductpE7productpEB8_
FNDA:0,_RINvXININtCs1FafBRGY5sc_16curve25519_dalek6scalarse_0pENtB6_6ScalarINtNtNtNtCskumHb0IaX0X_4core4iter6traits5accum3SumpE3sumpEB8_
FNDA:0,_RNCINvXININtCs1FafBRGY5sc_16curve25519_dalek6scalarsd_0pENtB8_6ScalarINtNtNtNtCskumHb0IaX0X_4core4iter6traits5accum7ProductpE7productpE0Ba_
FNDA:0,_RNCINvXININtCs1FafBRGY5sc_16curve25519_dalek6scalarse_0pENtB8_6ScalarINtNtNtNtCskumHb0IaX0X_4core4iter6traits5accum3SumpE3sumpE0Ba_
FNF:46
FNH:0
DA:237,0
DA:239,0
DA:242,0
DA:243,0
DA:245,0
DA:246,0
DA:250,0
DA:251,0
DA:252,0
DA:261,0
DA:262,0
DA:263,0
DA:264,0
DA:265,0
DA:288,0
DA:289,0
DA:290,0
DA:295,0
DA:296,0
DA:297,0
DA:301,0
DA:302,0
DA:303,0
DA:310,0
DA:311,0
DA:312,0
DA:316,0
DA:317,0
DA:318,0
DA:325,0
DA:326,0
DA:327,0
DA:333,0
DA:334,0
DA:335,0
DA:343,0
DA:346,0
DA:347,0
DA:353,0
DA:354,0
DA:355,0
DA:363,0
DA:366,0
DA:367,0
DA:375,0
DA:376,0
DA:377,0
DA:378,0
DA:379,0
DA:384,0
DA:385,0
DA:386,0
DA:390,0
DA:391,0
DA:393,0
DA:394,0
DA:395,0
DA:396,0
DA:397,0
DA:464,0
DA:465,0
DA:466,0
DA:468,0
DA:469,0
DA:476,0
DA:477,0
DA:478,0
DA:480,0
DA:481,0
DA:485,0
DA:486,0
DA:487,0
DA:491,0
DA:492,0
DA:493,0
DA:494,0
DA:495,0
DA:499,0
DA:500,0
DA:501,0
DA:502,0
DA:503,0
DA:504,0
DA:508,0
DA:509,0
DA:510,0
DA:511,0
DA:512,0
DA:513,0
DA:538,0
DA:539,0
DA:540,0
DA:541,0
DA:542,0
DA:543,0
DA:547,0
DA:548,0
DA:549,0
DA:550,0
DA:551,0
DA:552,0
DA:625,0
DA:626,0
DA:627,0
DA:629,0
DA:630,0
DA:631,0
DA:632,0
DA:671,0
DA:672,0
DA:673,0
DA:675,0
DA:676,0
DA:677,0
DA:678,0
DA:691,0
DA:692,0
DA:693,0
DA:706,0
DA:707,0
DA:708,0
DA:747,0
DA:748,0
DA:749,0
DA:840,0
DA:841,0
DA:845,0
DA:846,0
DA:847,0
DA:921,0
DA:923,0
DA:925,0
DA:927,0
DA:929,0
DA:930,0
DA:932,0
DA:933,0
DA:935,0
DA:936,0
DA:937,0
DA:939,0
DA:940,0
DA:941,0
DA:943,0
DA:946,0
DA:950,0
DA:952,0
DA:957,0
DA:958,0
DA:959,0
DA:961,0
DA:962,0
DA:963,0
DA:964,0
DA:965,0
DA:966,0
DA:967,0
DA:969,0
DA:972,0
DA:973,0
DA:985,0
DA:986,0
DA:987,0
DA:993,0
DA:994,0
DA:995,0
DA:997,0
DA:998,0
DA:999,0
DA:1001,0
DA:1002,0
DA:1003,0
DA:1004,0
DA:1008,0
DA:1009,0
DA:1010,0
DA:1011,0
DA:1012,0
DA:1016,0
DA:1017,0
DA:1119,0
DA:1120,0
DA:1121,0
DA:1125,0
DA:1126,0
DA:1127,0
DA:1128,0
DA:1129,0
DA:1130,0
DA:1134,0
DA:1135,0
DA:1136,0
DA:1141,0
DA:1142,0
DA:1143,0
DA:1144,0
DA:1145,0
DA:1150,0
DA:1153,0
DA:1154,0
DA:1155,0
DA:1156,0
DA:1157,0
DA:1158,0
DA:1159,0
DA:1160,0
DA:1161,0
DA:1164,0
DA:1167,0
DA:1168,0
DA:1169,0
DA:1170,0
DA:1171,0
DA:1172,0
DA:1174,0
DA:1175,0
DA:1176,0
DA:1177,0
DA:1178,0
DA:1179,0
DA:1180,0
DA:1181,0
DA:1182,0
DA:1183,0
DA:1184,0
DA:1185,0
DA:1186,0
DA:1187,0
DA:1188,0
DA:1189,0
DA:1190,0
DA:1191,0
DA:1192,0
DA:1193,0
DA:1194,0
DA:1195,0
DA:1196,0
DA:1197,0
DA:1198,0
DA:1199,0
DA:1200,0
DA:1202,0
DA:1203,0
DA:1206,0
DA:1207,0
DA:1208,0
DA:1350,0
DA:1351,0
DA:1352,0
DA:1354,0
DA:1355,0
DA:1357,0
DA:1358,0
DA:1359,0
DA:1360,0
DA:1361,0
DA:1362,0
DA:1363,0
DA:1364,0
DA:1386,0
DA:1387,0
DA:1388,0
DA:1389,0
DA:1390,0
DA:1391,0
BRF:0
BRH:0
LF:268
LH:0
end_of_record
SF:/Users/kuangtalin/.cargo/registry/src/index.crates.io-1949cf8c6b5b557f/curve25519-dalek-4.1.3/src/traits.rs
FN:45,_RNvXNtCs1FafBRGY5sc_16curve25519_dalek6traitsNtNtB4_7edwards12EdwardsPointNtB2_10IsIdentity11is_identityB4_
FN:249,_RINvYpNtNtCs1FafBRGY5sc_16curve25519_dalek6traits21VartimeMultiscalarMul23vartime_multiscalar_mulppEB8_
FN:316,_RINvYpNtNtCs1FafBRGY5sc_16curve25519_dalek6traits32VartimePrecomputedMultiscalarMul23vartime_multiscalar_mulpEB8_
FN:347,_RINvYpNtNtCs1FafBRGY5sc_16curve25519_dalek6traits32VartimePrecomputedMultiscalarMul29vartime_mixed_multiscalar_mulpppEB8_
FN:259,_RNCINvYpNtNtCs1FafBRGY5sc_16curve25519_dalek6traits21VartimeMultiscalarMul23vartime_multiscalar_mulppE0Ba_
FN:365,_RNCINvYpNtNtCs1FafBRGY5sc_16curve25519_dalek6traits32VartimePrecomputedMultiscalarMul29vartime_mixed_multiscalar_mulpppE0Ba_
FN:66,_RNvYpNtNtCs1FafBRGY5sc_16curve25519_dalek6traits14BasepointTable16mul_base_clampedB7_
FNDA:0,_RNvXNtCs1FafBRGY5sc_16curve25519_dalek6traitsNtNtB4_7edwards12EdwardsPointNtB2_10IsIdentity11is_identityB4_
FNDA:0,_RINvYpNtNtCs1FafBRGY5sc_16curve25519_dalek6traits21VartimeMultiscalarMul23vartime_multiscalar_mulppEB8_
FNDA:0,_RINvYpNtNtCs1FafBRGY5sc_16curve25519_dalek6traits32VartimePrecomputedMultiscalarMul23vartime_multiscalar_mulpEB8_
FNDA:0,_RINvYpNtNtCs1FafBRGY5sc_16curve25519_dalek6traits32VartimePrecomputedMultiscalarMul29vartime_mixed_multiscalar_mulpppEB8_
FNDA:0,_RNCINvYpNtNtCs1FafBRGY5sc_16curve25519_dalek6traits21VartimeMultiscalarMul23vartime_multiscalar_mulppE0Ba_
FNDA:0,_RNCINvYpNtNtCs1FafBRGY5sc_16curve25519_dalek6traits32VartimePrecomputedMultiscalarMul29vartime_mixed_multiscalar_mulpppE0Ba_
FNDA:0,_RNvYpNtNtCs1FafBRGY5sc_16curve25519_dalek6traits14BasepointTable16mul_base_clampedB7_
FNF:7
FNH:0
DA:45,0
DA:46,0
DA:47,0
DA:66,0
DA:70,0
DA:71,0
DA:72,0
DA:73,0
DA:74,0
DA:249,0
DA:250,0
DA:251,0
DA:252,0
DA:253,0
DA:254,0
DA:255,0
DA:257,0
DA:258,0
DA:259,0
DA:261,0
DA:262,0
DA:316,0
DA:317,0
DA:318,0
DA:319,0
DA:323,0
DA:324,0
DA:325,0
DA:326,0
DA:327,0
DA:329,0
DA:347,0
DA:348,0
DA:349,0
DA:350,0
DA:351,0
DA:352,0
DA:353,0
DA:354,0
DA:355,0
DA:356,0
DA:357,0
DA:358,0
DA:359,0
DA:361,0
DA:362,0
DA:363,0
DA:364,0
DA:365,0
DA:367,0
DA:368,0
BRF:0
BRH:0
LF:53
LH:0
end_of_record
SF:/Users/kuangtalin/.cargo/registry/src/index.crates.io-1949cf8c6b5b557f/curve25519-dalek-4.1.3/src/window.rs
FN:187,_RNvMNtCs1FafBRGY5sc_16curve25519_dalek6windowINtB2_15NafLookupTable5NtNtNtNtB4_7backend6serial12curve_models20ProjectiveNielsPointE6selectB4_
FN:54,_RNvMs2_NtCs1FafBRGY5sc_16curve25519_dalek6windowINtB5_11LookupTableNtNtNtNtB7_7backend6serial12curve_models20ProjectiveNielsPointE6selectB7_
FN:202,_RNvXs0_NtCs1FafBRGY5sc_16curve25519_dalek6windowINtB5_15NafLookupTable5NtNtNtNtB7_7backend6serial12curve_models20ProjectiveNielsPointEINtNtCskumHb0IaX0X_4core7convert4FromRNtNtB7_7edwards12EdwardsPointE4from
FN:214,_RNvXs1_NtCs1FafBRGY5sc_16curve25519_dalek6windowINtB5_15NafLookupTable5NtNtNtNtB7_7backend6serial12curve_models16AffineNielsPointEINtNtCskumHb0IaX0X_4core7convert4FromRNtNtB7_7edwards12EdwardsPointE4from
FN:98,_RNvXs5_NtCs1FafBRGY5sc_16curve25519_dalek6windowINtB5_11LookupTableNtNtNtNtB7_7backend6serial12curve_models20ProjectiveNielsPointEINtNtCskumHb0IaX0X_4core7convert4FromRNtNtB7_7edwards12EdwardsPointE4from
FN:108,_RNvXs6_NtCs1FafBRGY5sc_16curve25519_dalek6windowINtB5_11LookupTableNtNtNtNtB7_7backend6serial12curve_models16AffineNielsPointEINtNtCskumHb0IaX0X_4core7convert4FromRNtNtB7_7edwards12EdwardsPointE4from
FN:80,_RNvXININtCs1FafBRGY5sc_16curve25519_dalek6windows3_0pEINtB5_11LookupTablepENtNtCskumHb0IaX0X_4core7default7Default7defaultB7_
FN:86,_RNvXININtCs1FafBRGY5sc_16curve25519_dalek6windows4_0pEINtB5_11LookupTablepENtNtCskumHb0IaX0X_4core3fmt5Debug3fmtB7_
FN:196,_RNvXININtCs1FafBRGY5sc_16curve25519_dalek6windows_0pEINtB5_15NafLookupTable5pENtNtCskumHb0IaX0X_4core3fmt5Debug3fmtB7_
FNDA:0,_RNvMNtCs1FafBRGY5sc_16curve25519_dalek6windowINtB2_15NafLookupTable5NtNtNtNtB4_7backend6serial12curve_models20ProjectiveNielsPointE6selectB4_
FNDA:0,_RNvMs2_NtCs1FafBRGY5sc_16curve25519_dalek6windowINtB5_11LookupTableNtNtNtNtB7_7backend6serial12curve_models20ProjectiveNielsPointE6selectB7_
FNDA:0,_RNvXs0_NtCs1FafBRGY5sc_16curve25519_dalek6windowINtB5_15NafLookupTable5NtNtNtNtB7_7backend6serial12curve_models20ProjectiveNielsPointEINtNtCskumHb0IaX0X_4core7convert4FromRNtNtB7_7edwards12EdwardsPointE4from
FNDA:0,_RNvXs1_NtCs1FafBRGY5sc_16curve25519_dalek6windowINtB5_15NafLookupTable5NtNtNtNtB7_7backend6serial12curve_models16AffineNielsPointEINtNtCskumHb0IaX0X_4core7convert4FromRNtNtB7_7edwards12EdwardsPointE4from
FNDA:0,_RNvXs5_NtCs1FafBRGY5sc_16curve25519_dalek6windowINtB5_11LookupTableNtNtNtNtB7_7backend6serial12curve_models20ProjectiveNielsPointEINtNtCskumHb0IaX0X_4core7convert4FromRNtNtB7_7edwards12EdwardsPointE4from
FNDA:0,_RNvXs6_NtCs1FafBRGY5sc_16curve25519_dalek6windowINtB5_11LookupTableNtNtNtNtB7_7backend6serial12curve_models16AffineNielsPointEINtNtCskumHb0IaX0X_4core7convert4FromRNtNtB7_7edwards12EdwardsPointE4from
FNDA:0,_RNvXININtCs1FafBRGY5sc_16curve25519_dalek6windows3_0pEINtB5_11LookupTablepENtNtCskumHb0IaX0X_4core7default7Default7defaultB7_
FNDA:0,_RNvXININtCs1FafBRGY5sc_16curve25519_dalek6windows4_0pEINtB5_11LookupTablepENtNtCskumHb0IaX0X_4core3fmt5Debug3fmtB7_
FNDA:0,_RNvXININtCs1FafBRGY5sc_16curve25519_dalek6windows_0pEINtB5_15NafLookupTable5pENtNtCskumHb0IaX0X_4core3fmt5Debug3fmtB7_
FNF:9
FNH:0
DA:54,0
DA:55,0
DA:56,0
DA:59,0
DA:60,0
DA:63,0
DA:64,0
DA:65,0
DA:66,0
DA:67,0
DA:68,0
DA:71,0
DA:72,0
DA:75,0
DA:76,0
DA:80,0
DA:81,0
DA:82,0
DA:86,0
DA:87,0
DA:89,0
DA:90,0
DA:93,0
DA:94,0
DA:98,0
DA:99,0
DA:100,0
DA:101,0
DA:102,0
DA:103,0
DA:104,0
DA:108,0
DA:109,0
DA:111,0
DA:112,0
DA:114,0
DA:115,0
DA:187,0
DA:188,0
DA:189,0
DA:191,0
DA:192,0
DA:196,0
DA:197,0
DA:198,0
DA:202,0
DA:203,0
DA:204,0
DA:205,0
DA:206,0
DA:207,0
DA:209,0
DA:210,0
DA:214,0
DA:215,0
DA:216,0
DA:217,0
DA:218,0
DA:219,0
DA:221,0
DA:222,0
BRF:0
BRH:0
LF:61
LH:0
end_of_record
SF:/Users/kuangtalin/.cargo/registry/src/index.crates.io-1949cf8c6b5b557f/digest-0.10.7/src/core_api/ct_variable.rs
FN:78,_RNvXs0_NtNtCs8hrGzK1ZDm1_6digest8core_api11ct_variableINtB5_21CtVariableCoreWrapperNtNtCs2jU7EytItPK_4sha28core_api13Sha512VarCoreINtNtCsdOIG378uWuC_7typenum4uint4UIntIB25_IB25_IB25_IB25_IB25_IB25_NtB27_5UTermNtNtB29_3bit2B1ENtB3n_2B0EB3B_EB3B_EB3B_EB3B_EB3B_ENtB1n_9OidSha512ENtB7_10UpdateCore13update_blocksCs7KSaGTpB2VC_13ed25519_dalek
FN:114,_RNvXs3_NtNtCs8hrGzK1ZDm1_6digest8core_api11ct_variableINtB5_21CtVariableCoreWrapperNtNtCs2jU7EytItPK_4sha28core_api13Sha512VarCoreINtNtCsdOIG378uWuC_7typenum4uint4UIntIB25_IB25_IB25_IB25_IB25_IB25_NtB27_5UTermNtNtB29_3bit2B1ENtB3n_2B0EB3B_EB3B_EB3B_EB3B_EB3B_ENtB1n_9OidSha512ENtB7_15FixedOutputCore19finalize_fixed_coreCs7KSaGTpB2VC_13ed25519_dalek
FN:139,_RNvXs4_NtNtCs8hrGzK1ZDm1_6digest8core_api11ct_variableINtB5_21CtVariableCoreWrapperNtNtCs2jU7EytItPK_4sha28core_api13Sha512VarCoreINtNtCsdOIG378uWuC_7typenum4uint4UIntIB25_IB25_IB25_IB25_IB25_IB25_NtB27_5UTermNtNtB29_3bit2B1ENtB3n_2B0EB3B_EB3B_EB3B_EB3B_EB3B_ENtB1n_9OidSha512ENtNtCskumHb0IaX0X_4core7default7Default7defaultCs7KSaGTpB2VC_13ed25519_dalek
FNDA:0,_RNvXs0_NtNtCs8hrGzK1ZDm1_6digest8core_api11ct_variableINtB5_21CtVariableCoreWrapperNtNtCs2jU7EytItPK_4sha28core_api13Sha512VarCoreINtNtCsdOIG378uWuC_7typenum4uint4UIntIB25_IB25_IB25_IB25_IB25_IB25_NtB27_5UTermNtNtB29_3bit2B1ENtB3n_2B0EB3B_EB3B_EB3B_EB3B_EB3B_ENtB1n_9OidSha512ENtB7_10UpdateCore13update_blocksCs7KSaGTpB2VC_13ed25519_dalek
FNDA:0,_RNvXs3_NtNtCs8hrGzK1ZDm1_6digest8core_api11ct_variableINtB5_21CtVariableCoreWrapperNtNtCs2jU7EytItPK_4sha28core_api13Sha512VarCoreINtNtCsdOIG378uWuC_7typenum4uint4UIntIB25_IB25_IB25_IB25_IB25_IB25_NtB27_5UTermNtNtB29_3bit2B1ENtB3n_2B0EB3B_EB3B_EB3B_EB3B_EB3B_ENtB1n_9OidSha512ENtB7_15FixedOutputCore19finalize_fixed_coreCs7KSaGTpB2VC_13ed25519_dalek
FNDA:0,_RNvXs4_NtNtCs8hrGzK1ZDm1_6digest8core_api11ct_variableINtB5_21CtVariableCoreWrapperNtNtCs2jU7EytItPK_4sha28core_api13Sha512VarCoreINtNtCsdOIG378uWuC_7typenum4uint4UIntIB25_IB25_IB25_IB25_IB25_IB25_NtB27_5UTermNtNtB29_3bit2B1ENtB3n_2B0EB3B_EB3B_EB3B_EB3B_EB3B_ENtB1n_9OidSha512ENtNtCskumHb0IaX0X_4core7default7Default7defaultCs7KSaGTpB2VC_13ed25519_dalek
FNF:3
FNH:0
DA:78,0
DA:79,0
DA:80,0
DA:114,0
DA:115,0
DA:116,0
DA:117,0
DA:118,0
DA:119,0
DA:120,0
DA:121,0
DA:122,0
DA:123,0
DA:124,0
DA:125,0
DA:127,0
DA:139,0
DA:140,0
DA:141,0
DA:142,0
DA:143,0
DA:144,0
BRF:0
BRH:0
LF:22
LH:0
end_of_record
SF:/Users/kuangtalin/.cargo/registry/src/index.crates.io-1949cf8c6b5b557f/digest-0.10.7/src/core_api/wrapper.rs
FN:150,_RNCNvXs5_NtNtCs8hrGzK1ZDm1_6digest8core_api7wrapperINtB7_11CoreWrapperINtNtB9_11ct_variable21CtVariableCoreWrapperNtNtCs2jU7EytItPK_4sha28core_api13Sha512VarCoreINtNtCsdOIG378uWuC_7typenum4uint4UIntIB2A_IB2A_IB2A_IB2A_IB2A_IB2A_NtB2C_5UTermNtNtB2E_3bit2B1ENtB3S_2B0EB46_EB46_EB46_EB46_EB46_ENtB1S_9OidSha512EENtBb_6Update6update0Cs7KSaGTpB2VC_13ed25519_dalek
FN:148,_RNvXs5_NtNtCs8hrGzK1ZDm1_6digest8core_api7wrapperINtB5_11CoreWrapperINtNtB7_11ct_variable21CtVariableCoreWrapperNtNtCs2jU7EytItPK_4sha28core_api13Sha512VarCoreINtNtCsdOIG378uWuC_7typenum4uint4UIntIB2y_IB2y_IB2y_IB2y_IB2y_IB2y_NtB2A_5UTermNtNtB2C_3bit2B1ENtB3Q_2B0EB44_EB44_EB44_EB44_EB44_ENtB1Q_9OidSha512EENtB9_6Update6updateCs7KSaGTpB2VC_13ed25519_dalek
FN:170,_RNvXs7_NtNtCs8hrGzK1ZDm1_6digest8core_api7wrapperINtB5_11CoreWrapperINtNtB7_11ct_variable21CtVariableCoreWrapperNtNtCs2jU7EytItPK_4sha28core_api13Sha512VarCoreINtNtCsdOIG378uWuC_7typenum4uint4UIntIB2y_IB2y_IB2y_IB2y_IB2y_IB2y_NtB2A_5UTermNtNtB2C_3bit2B1ENtB3Q_2B0EB44_EB44_EB44_EB44_EB44_ENtB1Q_9OidSha512EENtB9_11FixedOutput13finalize_intoCs7KSaGTpB2VC_13ed25519_dalek
FNDA:0,_RNCNvXs5_NtNtCs8hrGzK1ZDm1_6digest8core_api7wrapperINtB7_11CoreWrapperINtNtB9_11ct_variable21CtVariableCoreWrapperNtNtCs2jU7EytItPK_4sha28core_api13Sha512VarCoreINtNtCsdOIG378uWuC_7typenum4uint4UIntIB2A_IB2A_IB2A_IB2A_IB2A_IB2A_NtB2C_5UTermNtNtB2E_3bit2B1ENtB3S_2B0EB46_EB46_EB46_EB46_EB46_ENtB1S_9OidSha512EENtBb_6Update6update0Cs7KSaGTpB2VC_13ed25519_dalek
FNDA:0,_RNvXs5_NtNtCs8hrGzK1ZDm1_6digest8core_api7wrapperINtB5_11CoreWrapperINtNtB7_11ct_variable21CtVariableCoreWrapperNtNtCs2jU7EytItPK_4sha28core_api13Sha512VarCoreINtNtCsdOIG378uWuC_7typenum4uint4UIntIB2y_IB2y_IB2y_IB2y_IB2y_IB2y_NtB2A_5UTermNtNtB2C_3bit2B1ENtB3Q_2B0EB44_EB44_EB44_EB44_EB44_ENtB1Q_9OidSha512EENtB9_6Update6updateCs7KSaGTpB2VC_13ed25519_dalek
FNDA:0,_RNvXs7_NtNtCs8hrGzK1ZDm1_6digest8core_api7wrapperINtB5_11CoreWrapperINtNtB7_11ct_variable21CtVariableCoreWrapperNtNtCs2jU7EytItPK_4sha28core_api13Sha512VarCoreINtNtCsdOIG378uWuC_7typenum4uint4UIntIB2y_IB2y_IB2y_IB2y_IB2y_IB2y_NtB2A_5UTermNtNtB2C_3bit2B1ENtB3Q_2B0EB44_EB44_EB44_EB44_EB44_ENtB1Q_9OidSha512EENtB9_11FixedOutput13finalize_intoCs7KSaGTpB2VC_13ed25519_dalek
FNF:3
FNH:0
DA:148,0
DA:149,0
DA:150,0
DA:151,0
DA:170,0
DA:171,0
DA:172,0
DA:173,0
BRF:0
BRH:0
LF:9
LH:0
end_of_record
SF:/Users/kuangtalin/.cargo/registry/src/index.crates.io-1949cf8c6b5b557f/digest-0.10.7/src/digest.rs
FN:79,_RINvXNtCs8hrGzK1ZDm1_6digest6digestINtNtNtB5_8core_api7wrapper11CoreWrapperINtNtBC_11ct_variable21CtVariableCoreWrapperNtNtCs2jU7EytItPK_4sha28core_api13Sha512VarCoreINtNtCsdOIG378uWuC_7typenum4uint4UIntIB2F_IB2F_IB2F_IB2F_IB2F_IB2F_NtB2H_5UTermNtNtB2J_3bit2B1ENtB3X_2B0EB4b_EB4b_EB4b_EB4b_EB4b_ENtB1X_9OidSha512EENtB3_6Digest12chain_updateAhj20_ECs7KSaGTpB2VC_13ed25519_dalek
FN:79,_RINvXNtCs8hrGzK1ZDm1_6digest6digestINtNtNtB5_8core_api7wrapper11CoreWrapperINtNtBC_11ct_variable21CtVariableCoreWrapperNtNtCs2jU7EytItPK_4sha28core_api13Sha512VarCoreINtNtCsdOIG378uWuC_7typenum4uint4UIntIB2F_IB2F_IB2F_IB2F_IB2F_IB2F_NtB2H_5UTermNtNtB2J_3bit2B1ENtB3X_2B0EB4b_EB4b_EB4b_EB4b_EB4b_ENtB1X_9OidSha512EENtB3_6Digest12chain_updateRAhj20_ECs7KSaGTpB2VC_13ed25519_dalek
FN:74,_RINvXNtCs8hrGzK1ZDm1_6digest6digestINtNtNtB5_8core_api7wrapper11CoreWrapperINtNtBC_11ct_variable21CtVariableCoreWrapperNtNtCs2jU7EytItPK_4sha28core_api13Sha512VarCoreINtNtCsdOIG378uWuC_7typenum4uint4UIntIB2F_IB2F_IB2F_IB2F_IB2F_IB2F_NtB2H_5UTermNtNtB2J_3bit2B1ENtB3X_2B0EB4b_EB4b_EB4b_EB4b_EB4b_ENtB1X_9OidSha512EENtB3_6Digest6updateAhj1_ECs7KSaGTpB2VC_13ed25519_dalek
FN:74,_RINvXNtCs8hrGzK1ZDm1_6digest6digestINtNtNtB5_8core_api7wrapper11CoreWrapperINtNtBC_11ct_variable21CtVariableCoreWrapperNtNtCs2jU7EytItPK_4sha28core_api13Sha512VarCoreINtNtCsdOIG378uWuC_7typenum4uint4UIntIB2F_IB2F_IB2F_IB2F_IB2F_IB2F_NtB2H_5UTermNtNtB2J_3bit2B1ENtB3X_2B0EB4b_EB4b_EB4b_EB4b_EB4b_ENtB1X_9OidSha512EENtB3_6Digest6updateAhj20_ECs7KSaGTpB2VC_13ed25519_dalek
FN:74,_RINvXNtCs8hrGzK1ZDm1_6digest6digestINtNtNtB5_8core_api7wrapper11CoreWrapperINtNtBC_11ct_variable21CtVariableCoreWrapperNtNtCs2jU7EytItPK_4sha28core_api13Sha512VarCoreINtNtCsdOIG378uWuC_7typenum4uint4UIntIB2F_IB2F_IB2F_IB2F_IB2F_IB2F_NtB2H_5UTermNtNtB2J_3bit2B1ENtB3X_2B0EB4b_EB4b_EB4b_EB4b_EB4b_ENtB1X_9OidSha512EENtB3_6Digest6updateRAhj20_ECs7KSaGTpB2VC_13ed25519_dalek
FN:74,_RINvXNtCs8hrGzK1ZDm1_6digest6digestINtNtNtB5_8core_api7wrapper11CoreWrapperINtNtBC_11ct_variable21CtVariableCoreWrapperNtNtCs2jU7EytItPK_4sha28core_api13Sha512VarCoreINtNtCsdOIG378uWuC_7typenum4uint4UIntIB2F_IB2F_IB2F_IB2F_IB2F_IB2F_NtB2H_5UTermNtNtB2J_3bit2B1ENtB3X_2B0EB4b_EB4b_EB4b_EB4b_EB4b_ENtB1X_9OidSha512EENtB3_6Digest6updateRShECs7KSaGTpB2VC_13ed25519_dalek
FN:59,_RNvXNtCs8hrGzK1ZDm1_6digest6digestINtNtNtB4_8core_api7wrapper11CoreWrapperINtNtBB_11ct_variable21CtVariableCoreWrapperNtNtCs2jU7EytItPK_4sha28core_api13Sha512VarCoreINtNtCsdOIG378uWuC_7typenum4uint4UIntIB2E_IB2E_IB2E_IB2E_IB2E_IB2E_NtB2G_5UTermNtNtB2I_3bit2B1ENtB3W_2B0EB4a_EB4a_EB4a_EB4a_EB4a_ENtB1W_9OidSha512EENtB2_6Digest3newCs7KSaGTpB2VC_13ed25519_dalek
FN:85,_RNvXNtCs8hrGzK1ZDm1_6digest6digestINtNtNtB4_8core_api7wrapper11CoreWrapperINtNtBB_11ct_variable21CtVariableCoreWrapperNtNtCs2jU7EytItPK_4sha28core_api13Sha512VarCoreINtNtCsdOIG378uWuC_7typenum4uint4UIntIB2E_IB2E_IB2E_IB2E_IB2E_IB2E_NtB2G_5UTermNtNtB2I_3bit2B1ENtB3W_2B0EB4a_EB4a_EB4a_EB4a_EB4a_ENtB1W_9OidSha512EENtB2_6Digest8finalizeCs7KSaGTpB2VC_13ed25519_dalek
FNDA:0,_RINvXNtCs8hrGzK1ZDm1_6digest6digestINtNtNtB5_8core_api7wrapper11CoreWrapperINtNtBC_11ct_variable21CtVariableCoreWrapperNtNtCs2jU7EytItPK_4sha28core_api13Sha512VarCoreINtNtCsdOIG378uWuC_7typenum4uint4UIntIB2F_IB2F_IB2F_IB2F_IB2F_IB2F_NtB2H_5UTermNtNtB2J_3bit2B1ENtB3X_2B0EB4b_EB4b_EB4b_EB4b_EB4b_ENtB1X_9OidSha512EENtB3_6Digest12chain_updateAhj20_ECs7KSaGTpB2VC_13ed25519_dalek
FNDA:0,_RINvXNtCs8hrGzK1ZDm1_6digest6digestINtNtNtB5_8core_api7wrapper11CoreWrapperINtNtBC_11ct_variable21CtVariableCoreWrapperNtNtCs2jU7EytItPK_4sha28core_api13Sha512VarCoreINtNtCsdOIG378uWuC_7typenum4uint4UIntIB2F_IB2F_IB2F_IB2F_IB2F_IB2F_NtB2H_5UTermNtNtB2J_3bit2B1ENtB3X_2B0EB4b_EB4b_EB4b_EB4b_EB4b_ENtB1X_9OidSha512EENtB3_6Digest12chain_updateRAhj20_ECs7KSaGTpB2VC_13ed25519_dalek
FNDA:0,_RINvXNtCs8hrGzK1ZDm1_6digest6digestINtNtNtB5_8core_api7wrapper11CoreWrapperINtNtBC_11ct_variable21CtVariableCoreWrapperNtNtCs2jU7EytItPK_4sha28core_api13Sha512VarCoreINtNtCsdOIG378uWuC_7typenum4uint4UIntIB2F_IB2F_IB2F_IB2F_IB2F_IB2F_NtB2H_5UTermNtNtB2J_3bit2B1ENtB3X_2B0EB4b_EB4b_EB4b_EB4b_EB4b_ENtB1X_9OidSha512EENtB3_6Digest6updateAhj1_ECs7KSaGTpB2VC_13ed25519_dalek
FNDA:0,_RINvXNtCs8hrGzK1ZDm1_6digest6digestINtNtNtB5_8core_api7wrapper11CoreWrapperINtNtBC_11ct_variable21CtVariableCoreWrapperNtNtCs2jU7EytItPK_4sha28core_api13Sha512VarCoreINtNtCsdOIG378uWuC_7typenum4uint4UIntIB2F_IB2F_IB2F_IB2F_IB2F_IB2F_NtB2H_5UTermNtNtB2J_3bit2B1ENtB3X_2B0EB4b_EB4b_EB4b_EB4b_EB4b_ENtB1X_9OidSha512EENtB3_6Digest6updateAhj20_ECs7KSaGTpB2VC_13ed25519_dalek
FNDA:0,_RINvXNtCs8hrGzK1ZDm1_6digest6digestINtNtNtB5_8core_api7wrapper11CoreWrapperINtNtBC_11ct_variable21CtVariableCoreWrapperNtNtCs2jU7EytItPK_4sha28core_api13Sha512VarCoreINtNtCsdOIG378uWuC_7typenum4uint4UIntIB2F_IB2F_IB2F_IB2F_IB2F_IB2F_NtB2H_5UTermNtNtB2J_3bit2B1ENtB3X_2B0EB4b_EB4b_EB4b_EB4b_EB4b_ENtB1X_9OidSha512EENtB3_6Digest6updateRAhj20_ECs7KSaGTpB2VC_13ed25519_dalek
FNDA:0,_RINvXNtCs8hrGzK1ZDm1_6digest6digestINtNtNtB5_8core_api7wrapper11CoreWrapperINtNtBC_11ct_variable21CtVariableCoreWrapperNtNtCs2jU7EytItPK_4sha28core_api13Sha512VarCoreINtNtCsdOIG378uWuC_7typenum4uint4UIntIB2F_IB2F_IB2F_IB2F_IB2F_IB2F_NtB2H_5UTermNtNtB2J_3bit2B1ENtB3X_2B0EB4b_EB4b_EB4b_EB4b_EB4b_ENtB1X_9OidSha512EENtB3_6Digest6updateRShECs7KSaGTpB2VC_13ed25519_dalek
FNDA:0,_RNvXNtCs8hrGzK1ZDm1_6digest6digestINtNtNtB4_8core_api7wrapper11CoreWrapperINtNtBB_11ct_variable21CtVariableCoreWrapperNtNtCs2jU7EytItPK_4sha28core_api13Sha512VarCoreINtNtCsdOIG378uWuC_7typenum4uint4UIntIB2E_IB2E_IB2E_IB2E_IB2E_IB2E_NtB2G_5UTermNtNtB2I_3bit2B1ENtB3W_2B0EB4a_EB4a_EB4a_EB4a_EB4a_ENtB1W_9OidSha512EENtB2_6Digest3newCs7KSaGTpB2VC_13ed25519_dalek
FNDA:0,_RNvXNtCs8hrGzK1ZDm1_6digest6digestINtNtNtB4_8core_api7wrapper11CoreWrapperINtNtBB_11ct_variable21CtVariableCoreWrapperNtNtCs2jU7EytItPK_4sha28core_api13Sha512VarCoreINtNtCsdOIG378uWuC_7typenum4uint4UIntIB2E_IB2E_IB2E_IB2E_IB2E_IB2E_NtB2G_5UTermNtNtB2I_3bit2B1ENtB3W_2B0EB4a_EB4a_EB4a_EB4a_EB4a_ENtB1W_9OidSha512EENtB2_6Digest8finalizeCs7KSaGTpB2VC_13ed25519_dalek
FNF:4
FNH:0
DA:59,0
DA:60,0
DA:61,0
DA:74,0
DA:75,0
DA:76,0
DA:79,0
DA:80,0
DA:81,0
DA:82,0
DA:85,0
DA:86,0
DA:87,0
BRF:0
BRH:0
LF:13
LH:0
end_of_record
SF:/Users/kuangtalin/.cargo/registry/src/index.crates.io-1949cf8c6b5b557f/digest-0.10.7/src/lib.rs
FN:99,_RNvYINtNtNtCs8hrGzK1ZDm1_6digest8core_api7wrapper11CoreWrapperINtNtB7_11ct_variable21CtVariableCoreWrapperNtNtCs2jU7EytItPK_4sha28core_api13Sha512VarCoreINtNtCsdOIG378uWuC_7typenum4uint4UIntIB2s_IB2s_IB2s_IB2s_IB2s_IB2s_NtB2u_5UTermNtNtB2w_3bit2B1ENtB3K_2B0EB3Y_EB3Y_EB3Y_EB3Y_EB3Y_ENtB1K_9OidSha512EENtB9_11FixedOutput14finalize_fixedCs7KSaGTpB2VC_13ed25519_dalek
FNDA:0,_RNvYINtNtNtCs8hrGzK1ZDm1_6digest8core_api7wrapper11CoreWrapperINtNtB7_11ct_variable21CtVariableCoreWrapperNtNtCs2jU7EytItPK_4sha28core_api13Sha512VarCoreINtNtCsdOIG378uWuC_7typenum4uint4UIntIB2s_IB2s_IB2s_IB2s_IB2s_IB2s_NtB2u_5UTermNtNtB2w_3bit2B1ENtB3K_2B0EB3Y_EB3Y_EB3Y_EB3Y_EB3Y_ENtB1K_9OidSha512EENtB9_11FixedOutput14finalize_fixedCs7KSaGTpB2VC_13ed25519_dalek
FNF:1
FNH:0
DA:99,0
DA:100,0
DA:101,0
DA:102,0
DA:103,0
BRF:0
BRH:0
LF:5
LH:0
end_of_record
SF:/Users/kuangtalin/.cargo/registry/src/index.crates.io-1949cf8c6b5b557f/ed25519-2.2.3/src/hex.rs
FN:81,_RNCNvXs1_NtCs1q1lLFCBja4_7ed255193hexNtB9_9SignatureNtNtNtCskumHb0IaX0X_4core3str6traits7FromStr8from_str0B9_
FN:11,_RNvXNtCs1q1lLFCBja4_7ed255193hexNtB2_18ComponentFormatterNtNtCskumHb0IaX0X_4core3fmt5Debug3fmt
FN:34,_RNvXs0_NtCs1q1lLFCBja4_7ed255193hexNtB7_9SignatureNtNtCskumHb0IaX0X_4core3fmt8UpperHex3fmt
FN:52,_RNvXs1_NtCs1q1lLFCBja4_7ed255193hexNtB7_9SignatureNtNtNtCskumHb0IaX0X_4core3str6traits7FromStr8from_str
FN:23,_RNvXs_NtCs1q1lLFCBja4_7ed255193hexNtB6_9SignatureNtNtCskumHb0IaX0X_4core3fmt8LowerHex3fmt
FNDA:0,_RNCNvXs1_NtCs1q1lLFCBja4_7ed255193hexNtB9_9SignatureNtNtNtCskumHb0IaX0X_4core3str6traits7FromStr8from_str0B9_
FNDA:0,_RNvXNtCs1q1lLFCBja4_7ed255193hexNtB2_18ComponentFormatterNtNtCskumHb0IaX0X_4core3fmt5Debug3fmt
FNDA:0,_RNvXs0_NtCs1q1lLFCBja4_7ed255193hexNtB7_9SignatureNtNtCskumHb0IaX0X_4core3fmt8UpperHex3fmt
FNDA:0,_RNvXs1_NtCs1q1lLFCBja4_7ed255193hexNtB7_9SignatureNtNtNtCskumHb0IaX0X_4core3str6traits7FromStr8from_str
FNDA:0,_RNvXs_NtCs1q1lLFCBja4_7ed255193hexNtB6_9SignatureNtNtCskumHb0IaX0X_4core3fmt8LowerHex3fmt
FNF:5
FNH:0
DA:11,0
DA:12,0
DA:14,0
DA:15,0
DA:18,0
DA:19,0
DA:23,0
DA:24,0
DA:25,0
DA:26,0
DA:29,0
DA:30,0
DA:34,0
DA:35,0
DA:36,0
DA:37,0
DA:40,0
DA:41,0
DA:52,0
DA:53,0
DA:54,0
DA:55,0
DA:57,0
DA:60,0
DA:61,0
DA:62,0
DA:63,0
DA:64,0
DA:65,0
DA:66,0
DA:68,0
DA:69,0
DA:70,0
DA:71,0
DA:73,0
DA:77,0
DA:78,0
DA:79,0
DA:80,0
DA:81,0
DA:82,0
DA:85,0
DA:86,0
BRF:0
BRH:0
LF:44
LH:0
end_of_record
SF:/Users/kuangtalin/.cargo/registry/src/index.crates.io-1949cf8c6b5b557f/ed25519-2.2.3/src/lib.rs
FN:337,_RNCNvMCs1q1lLFCBja4_7ed25519NtB4_9Signature10from_slice0B4_
FN:313,_RNvMCs1q1lLFCBja4_7ed25519NtB2_9Signature10from_bytes
FN:334,_RNvMCs1q1lLFCBja4_7ed25519NtB2_9Signature10from_slice
FN:325,_RNvMCs1q1lLFCBja4_7ed25519NtB2_9Signature15from_components
FN:341,_RNvMCs1q1lLFCBja4_7ed25519NtB2_9Signature7r_bytes
FN:346,_RNvMCs1q1lLFCBja4_7ed25519NtB2_9Signature7s_bytes
FN:351,_RNvMCs1q1lLFCBja4_7ed25519NtB2_9Signature8to_bytes
FN:375,_RNvXs0_Cs1q1lLFCBja4_7ed25519Ahj40_INtNtCskumHb0IaX0X_4core7convert4FromNtB5_9SignatureE4from
FN:381,_RNvXs1_Cs1q1lLFCBja4_7ed25519Ahj40_INtNtCskumHb0IaX0X_4core7convert4FromRNtB5_9SignatureE4from
FN:387,_RNvXs2_Cs1q1lLFCBja4_7ed25519NtB5_9SignatureINtNtCskumHb0IaX0X_4core7convert4FromAhj40_E4from
FN:393,_RNvXs3_Cs1q1lLFCBja4_7ed25519NtB5_9SignatureINtNtCskumHb0IaX0X_4core7convert4FromRAhj40_E4from
FN:401,_RNvXs4_Cs1q1lLFCBja4_7ed25519NtB5_9SignatureINtNtCskumHb0IaX0X_4core7convert7TryFromRShE8try_from
FN:407,_RNvXs5_Cs1q1lLFCBja4_7ed25519NtB5_9SignatureNtNtCskumHb0IaX0X_4core3fmt5Debug3fmt
FN:416,_RNvXs6_Cs1q1lLFCBja4_7ed25519NtB5_9SignatureNtNtCskumHb0IaX0X_4core3fmt7Display3fmt
FN:369,_RNvXs_Cs1q1lLFCBja4_7ed25519NtB4_9SignatureNtNtCsfNRf3YCEJdo_9signature8encoding17SignatureEncoding8to_bytes
FNDA:0,_RNCNvMCs1q1lLFCBja4_7ed25519NtB4_9Signature10from_slice0B4_
FNDA:0,_RNvMCs1q1lLFCBja4_7ed25519NtB2_9Signature10from_bytes
FNDA:0,_RNvMCs1q1lLFCBja4_7ed25519NtB2_9Signature10from_slice
FNDA:0,_RNvMCs1q1lLFCBja4_7ed25519NtB2_9Signature15from_components
FNDA:0,_RNvMCs1q1lLFCBja4_7ed25519NtB2_9Signature7r_bytes
FNDA:0,_RNvMCs1q1lLFCBja4_7ed25519NtB2_9Signature7s_bytes
FNDA:0,_RNvMCs1q1lLFCBja4_7ed25519NtB2_9Signature8to_bytes
FNDA:0,_RNvXs0_Cs1q1lLFCBja4_7ed25519Ahj40_INtNtCskumHb0IaX0X_4core7convert4FromNtB5_9SignatureE4from
FNDA:0,_RNvXs1_Cs1q1lLFCBja4_7ed25519Ahj40_INtNtCskumHb0IaX0X_4core7convert4FromRNtB5_9SignatureE4from
FNDA:0,_RNvXs2_Cs1q1lLFCBja4_7ed25519NtB5_9SignatureINtNtCskumHb0IaX0X_4core7convert4FromAhj40_E4from
FNDA:0,_RNvXs3_Cs1q1lLFCBja4_7ed25519NtB5_9SignatureINtNtCskumHb0IaX0X_4core7convert4FromRAhj40_E4from
FNDA:0,_RNvXs4_Cs1q1lLFCBja4_7ed25519NtB5_9SignatureINtNtCskumHb0IaX0X_4core7convert7TryFromRShE8try_from
FNDA:0,_RNvXs5_Cs1q1lLFCBja4_7ed25519NtB5_9SignatureNtNtCskumHb0IaX0X_4core3fmt5Debug3fmt
FNDA:0,_RNvXs6_Cs1q1lLFCBja4_7ed25519NtB5_9SignatureNtNtCskumHb0IaX0X_4core3fmt7Display3fmt
FNDA:0,_RNvXs_Cs1q1lLFCBja4_7ed25519NtB4_9SignatureNtNtCsfNRf3YCEJdo_9signature8encoding17SignatureEncoding8to_bytes
FNF:15
FNH:0
DA:313,0
DA:314,0
DA:315,0
DA:317,0
DA:318,0
DA:319,0
DA:321,0
DA:322,0
DA:325,0
DA:326,0
DA:327,0
DA:334,0
DA:335,0
DA:336,0
DA:337,0
DA:338,0
DA:341,0
DA:342,0
DA:343,0
DA:346,0
DA:347,0
DA:348,0
DA:351,0
DA:352,0
DA:353,0
DA:354,0
DA:355,0
DA:356,0
DA:357,0
DA:369,0
DA:370,0
DA:371,0
DA:375,0
DA:376,0
DA:377,0
DA:381,0
DA:382,0
DA:383,0
DA:387,0
DA:388,0
DA:389,0
DA:393,0
DA:394,0
DA:395,0
DA:401,0
DA:402,0
DA:403,0
DA:407,0
DA:408,0
DA:409,0
DA:410,0
DA:411,0
DA:412,0
DA:416,0
DA:417,0
DA:418,0
BRF:0
BRH:0
LF:57
LH:0
end_of_record
SF:/Users/kuangtalin/.cargo/registry/src/index.crates.io-1949cf8c6b5b557f/ed25519-dalek-2.2.0/src/errors.rs
FN:58,_RNvXNtCs7KSaGTpB2VC_13ed25519_dalek6errorsNtB2_13InternalErrorNtNtCskumHb0IaX0X_4core3fmt7Display3fmt
FN:111,_RNvXs_NtCs7KSaGTpB2VC_13ed25519_dalek6errorsNtNtCsfNRf3YCEJdo_9signature5error5ErrorINtNtCskumHb0IaX0X_4core7convert4FromNtB4_13InternalErrorE4from
FNDA:0,_RNvXNtCs7KSaGTpB2VC_13ed25519_dalek6errorsNtB2_13InternalErrorNtNtCskumHb0IaX0X_4core3fmt7Display3fmt
FNDA:0,_RNvXs_NtCs7KSaGTpB2VC_13ed25519_dalek6errorsNtNtCsfNRf3YCEJdo_9signature5error5ErrorINtNtCskumHb0IaX0X_4core7convert4FromNtB4_13InternalErrorE4from
FNF:2
FNH:0
DA:58,0
DA:59,0
DA:60,0
DA:61,0
DA:62,0
DA:63,0
DA:65,0
DA:85,0
DA:87,0
DA:111,0
DA:112,0
DA:113,0
BRF:0
BRH:0
LF:12
LH:0
end_of_record
SF:/Users/kuangtalin/.cargo/registry/src/index.crates.io-1949cf8c6b5b557f/ed25519-dalek-2.2.0/src/hazmat.rs
FN:110,_RNCNvMs2_NtCs7KSaGTpB2VC_13ed25519_dalek6hazmatNtB7_17ExpandedSecretKey10from_slice0B9_
FN:84,_RNvMs2_NtCs7KSaGTpB2VC_13ed25519_dalek6hazmatNtB5_17ExpandedSecretKey10from_bytes
FN:108,_RNvMs2_NtCs7KSaGTpB2VC_13ed25519_dalek6hazmatNtB5_17ExpandedSecretKey10from_slice
FN:48,_RNvXNtCs7KSaGTpB2VC_13ed25519_dalek6hazmatNtB2_17ExpandedSecretKeyNtNtCskumHb0IaX0X_4core3fmt5Debug3fmt
FN:60,_RNvXs0_NtCs7KSaGTpB2VC_13ed25519_dalek6hazmatNtB5_17ExpandedSecretKeyNtNtCskumHb0IaX0X_4core3cmp9PartialEq2eq
FN:123,_RNvXs3_NtCs7KSaGTpB2VC_13ed25519_dalek6hazmatNtB5_17ExpandedSecretKeyINtNtCskumHb0IaX0X_4core7convert7TryFromRShE8try_from
FN:54,_RNvXs_NtCs7KSaGTpB2VC_13ed25519_dalek6hazmatNtB4_17ExpandedSecretKeyNtCseqNv8GKTA9D_6subtle14ConstantTimeEq5ct_eq
FN:225,_RINvNtCs7KSaGTpB2VC_13ed25519_dalek6hazmat10raw_verifypEB4_
FN:210,_RINvNtCs7KSaGTpB2VC_13ed25519_dalek6hazmat17raw_sign_byupdateppEB4_
FN:137,_RINvNtCs7KSaGTpB2VC_13ed25519_dalek6hazmat8raw_signpEB4_
FNDA:0,_RNCNvMs2_NtCs7KSaGTpB2VC_13ed25519_dalek6hazmatNtB7_17ExpandedSecretKey10from_slice0B9_
FNDA:0,_RNvMs2_NtCs7KSaGTpB2VC_13ed25519_dalek6hazmatNtB5_17ExpandedSecretKey10from_bytes
FNDA:0,_RNvMs2_NtCs7KSaGTpB2VC_13ed25519_dalek6hazmatNtB5_17ExpandedSecretKey10from_slice
FNDA:0,_RNvXNtCs7KSaGTpB2VC_13ed25519_dalek6hazmatNtB2_17ExpandedSecretKeyNtNtCskumHb0IaX0X_4core3fmt5Debug3fmt
FNDA:0,_RNvXs0_NtCs7KSaGTpB2VC_13ed25519_dalek6hazmatNtB5_17ExpandedSecretKeyNtNtCskumHb0IaX0X_4core3cmp9PartialEq2eq
FNDA:0,_RNvXs3_NtCs7KSaGTpB2VC_13ed25519_dalek6hazmatNtB5_17ExpandedSecretKeyINtNtCskumHb0IaX0X_4core7convert7TryFromRShE8try_from
FNDA:0,_RNvXs_NtCs7KSaGTpB2VC_13ed25519_dalek6hazmatNtB4_17ExpandedSecretKeyNtCseqNv8GKTA9D_6subtle14ConstantTimeEq5ct_eq
FNDA:0,_RINvNtCs7KSaGTpB2VC_13ed25519_dalek6hazmat10raw_verifypEB4_
FNDA:0,_RINvNtCs7KSaGTpB2VC_13ed25519_dalek6hazmat17raw_sign_byupdateppEB4_
FNDA:0,_RINvNtCs7KSaGTpB2VC_13ed25519_dalek6hazmat8raw_signpEB4_
FNF:10
FNH:0
DA:48,0
DA:49,0
DA:50,0
DA:54,0
DA:55,0
DA:56,0
DA:60,0
DA:61,0
DA:62,0
DA:84,0
DA:86,0
DA:87,0
DA:88,0
DA:89,0
DA:93,0
DA:95,0
DA:96,0
DA:97,0
DA:98,0
DA:99,0
DA:108,0
DA:110,0
DA:111,0
DA:112,0
DA:113,0
DA:114,0
DA:115,0
DA:116,0
DA:117,0
DA:123,0
DA:124,0
DA:125,0
DA:137,0
DA:138,0
DA:139,0
DA:140,0
DA:141,0
DA:142,0
DA:143,0
DA:145,0
DA:146,0
DA:210,0
DA:211,0
DA:212,0
DA:213,0
DA:214,0
DA:215,0
DA:216,0
DA:217,0
DA:219,0
DA:220,0
DA:225,0
DA:226,0
DA:227,0
DA:228,0
DA:229,0
DA:230,0
DA:231,0
DA:233,0
DA:234,0
BRF:0
BRH:0
LF:61
LH:0
end_of_record
SF:/Users/kuangtalin/.cargo/registry/src/index.crates.io-1949cf8c6b5b557f/ed25519-dalek-2.2.0/src/signature.rs
FN:151,_RNvMs0_NtCs7KSaGTpB2VC_13ed25519_dalek9signatureNtB5_17InternalSignature10from_bytesB7_
FN:91,_RNvNtCs7KSaGTpB2VC_13ed25519_dalek9signature12check_scalar
FN:54,_RNvXNtCs7KSaGTpB2VC_13ed25519_dalek9signatureNtB2_17InternalSignatureNtNtCskumHb0IaX0X_4core5clone5Clone5clone
FN:168,_RNvXs1_NtCs7KSaGTpB2VC_13ed25519_dalek9signatureNtB5_17InternalSignatureINtNtCskumHb0IaX0X_4core7convert7TryFromRNtCs1q1lLFCBja4_7ed255199SignatureE8try_from
FN:174,_RNvXs2_NtCs7KSaGTpB2VC_13ed25519_dalek9signatureNtCs1q1lLFCBja4_7ed255199SignatureINtNtCskumHb0IaX0X_4core7convert4FromNtB5_17InternalSignatureE4from
FN:60,_RNvXs_NtCs7KSaGTpB2VC_13ed25519_dalek9signatureNtB4_17InternalSignatureNtNtCskumHb0IaX0X_4core3fmt5Debug3fmt
FNDA:0,_RNvMs0_NtCs7KSaGTpB2VC_13ed25519_dalek9signatureNtB5_17InternalSignature10from_bytesB7_
FNDA:0,_RNvNtCs7KSaGTpB2VC_13ed25519_dalek9signature12check_scalar
FNDA:0,_RNvXNtCs7KSaGTpB2VC_13ed25519_dalek9signatureNtB2_17InternalSignatureNtNtCskumHb0IaX0X_4core5clone5Clone5clone
FNDA:0,_RNvXs1_NtCs7KSaGTpB2VC_13ed25519_dalek9signatureNtB5_17InternalSignatureINtNtCskumHb0IaX0X_4core7convert7TryFromRNtCs1q1lLFCBja4_7ed255199SignatureE8try_from
FNDA:0,_RNvXs2_NtCs7KSaGTpB2VC_13ed25519_dalek9signatureNtCs1q1lLFCBja4_7ed255199SignatureINtNtCskumHb0IaX0X_4core7convert4FromNtB5_17InternalSignatureE4from
FNDA:0,_RNvXs_NtCs7KSaGTpB2VC_13ed25519_dalek9signatureNtB4_17InternalSignatureNtNtCskumHb0IaX0X_4core3fmt5Debug3fmt
FNF:6
FNH:0
DA:54,0
DA:55,0
DA:56,0
DA:60,0
DA:61,0
DA:62,0
DA:91,0
DA:92,0
DA:93,0
DA:94,0
DA:96,0
DA:151,0
DA:153,0
DA:154,0
DA:155,0
DA:156,0
DA:159,0
DA:160,0
DA:162,0
DA:168,0
DA:169,0
DA:170,0
DA:174,0
DA:175,0
DA:176,0
BRF:0
BRH:0
LF:25
LH:0
end_of_record
SF:/Users/kuangtalin/.cargo/registry/src/index.crates.io-1949cf8c6b5b557f/ed25519-dalek-2.2.0/src/signing.rs
FN:856,_RINvMsb_NtCs7KSaGTpB2VC_13ed25519_dalek7signingNtNtB8_6hazmat17ExpandedSecretKey17raw_sign_byupdateINtNtNtCs8hrGzK1ZDm1_6digest8core_api7wrapper11CoreWrapperINtNtB1E_11ct_variable21CtVariableCoreWrapperNtNtCs2jU7EytItPK_4sha28core_api13Sha512VarCoreINtNtCsdOIG378uWuC_7typenum4uint4UIntIB40_IB40_IB40_IB40_IB40_IB40_NtB42_5UTermNtNtB44_3bit2B1ENtB5i_2B0EB5w_EB5w_EB5w_EB5w_EB5w_ENtB3i_9OidSha512EENCINvB2_8raw_signB1z_E0EB8_
FN:832,_RINvMsb_NtCs7KSaGTpB2VC_13ed25519_dalek7signingNtNtB8_6hazmat17ExpandedSecretKey8raw_signINtNtNtCs8hrGzK1ZDm1_6digest8core_api7wrapper11CoreWrapperINtNtB1u_11ct_variable21CtVariableCoreWrapperNtNtCs2jU7EytItPK_4sha28core_api13Sha512VarCoreINtNtCsdOIG378uWuC_7typenum4uint4UIntIB3Q_IB3Q_IB3Q_IB3Q_IB3Q_IB3Q_NtB3S_5UTermNtNtB3U_3bit2B1ENtB58_2B0EB5m_EB5m_EB5m_EB5m_EB5m_ENtB38_9OidSha512EEEB8_
FN:842,_RNCINvMsb_NtCs7KSaGTpB2VC_13ed25519_dalek7signingNtNtBa_6hazmat17ExpandedSecretKey8raw_signINtNtNtCs8hrGzK1ZDm1_6digest8core_api7wrapper11CoreWrapperINtNtB1w_11ct_variable21CtVariableCoreWrapperNtNtCs2jU7EytItPK_4sha28core_api13Sha512VarCoreINtNtCsdOIG378uWuC_7typenum4uint4UIntIB3S_IB3S_IB3S_IB3S_IB3S_IB3S_NtB3U_5UTermNtNtB3W_3bit2B1ENtB5a_2B0EB5o_EB5o_EB5o_EB5o_EB5o_ENtB3a_9OidSha512EEE0Ba_
FN:633,_RNCNvXs6_NtCs7KSaGTpB2VC_13ed25519_dalek7signingNtB7_10SigningKeyINtNtCskumHb0IaX0X_4core7convert7TryFromRShE8try_from0B9_
FN:634,_RNCNvXs6_NtCs7KSaGTpB2VC_13ed25519_dalek7signingNtB7_10SigningKeyINtNtCskumHb0IaX0X_4core7convert7TryFromRShE8try_froms_0B9_
FN:104,_RNvMNtCs7KSaGTpB2VC_13ed25519_dalek7signingNtB2_10SigningKey10from_bytesB4_
FN:474,_RNvMNtCs7KSaGTpB2VC_13ed25519_dalek7signingNtB2_10SigningKey13verify_strict
FN:169,_RNvMNtCs7KSaGTpB2VC_13ed25519_dalek7signingNtB2_10SigningKey13verifying_key
FN:510,_RNvMNtCs7KSaGTpB2VC_13ed25519_dalek7signingNtB2_10SigningKey15to_scalar_bytes
FN:160,_RNvMNtCs7KSaGTpB2VC_13ed25519_dalek7signingNtB2_10SigningKey16to_keypair_bytes
FN:326,_RNvMNtCs7KSaGTpB2VC_13ed25519_dalek7signingNtB2_10SigningKey6verify
FN:536,_RNvMNtCs7KSaGTpB2VC_13ed25519_dalek7signingNtB2_10SigningKey9to_scalar
FN:553,_RNvXs0_NtCs7KSaGTpB2VC_13ed25519_dalek7signingNtB5_10SigningKeyNtNtCskumHb0IaX0X_4core3fmt5Debug3fmt
FN:566,_RNvXs2_NtCs7KSaGTpB2VC_13ed25519_dalek7signingNtB5_10SigningKeyINtNtCsfNRf3YCEJdo_9signature6signer6SignerNtCs1q1lLFCBja4_7ed255199SignatureE8try_sign
FN:609,_RNvXs3_NtCs7KSaGTpB2VC_13ed25519_dalek7signingNtB5_10SigningKeyINtNtCsfNRf3YCEJdo_9signature8verifier8VerifierNtCs1q1lLFCBja4_7ed255199SignatureE6verify
FN:631,_RNvXs6_NtCs7KSaGTpB2VC_13ed25519_dalek7signingNtB5_10SigningKeyINtNtCskumHb0IaX0X_4core7convert7TryFromRShE8try_from
FN:645,_RNvXs7_NtCs7KSaGTpB2VC_13ed25519_dalek7signingNtB5_10SigningKeyNtCseqNv8GKTA9D_6subtle14ConstantTimeEq5ct_eq
FN:651,_RNvXs8_NtCs7KSaGTpB2VC_13ed25519_dalek7signingNtB5_10SigningKeyNtNtCskumHb0IaX0X_4core3cmp9PartialEq2eq
FN:547,_RNvXs_NtCs7KSaGTpB2VC_13ed25519_dalek7signingNtB4_10SigningKeyINtNtCskumHb0IaX0X_4core7convert5AsRefNtNtB6_9verifying12VerifyingKeyE6as_ref
FN:811,_RNvXsa_NtCs7KSaGTpB2VC_13ed25519_dalek7signingNtNtB7_6hazmat17ExpandedSecretKeyINtNtCskumHb0IaX0X_4core7convert4FromRAhj20_E4from
FN:138,_RNvMNtCs7KSaGTpB2VC_13ed25519_dalek7signingNtB2_10SigningKey18from_keypair_bytesB4_
FN:120,_RNvMNtCs7KSaGTpB2VC_13ed25519_dalek7signingNtB2_10SigningKey8as_bytesB4_
FN:114,_RNvMNtCs7KSaGTpB2VC_13ed25519_dalek7signingNtB2_10SigningKey8to_bytesB4_
FN:616,_RNvXs4_NtCs7KSaGTpB2VC_13ed25519_dalek7signingNtB5_10SigningKeyINtNtCskumHb0IaX0X_4core7convert4FromAhj20_E4fromB7_
FN:623,_RNvXs5_NtCs7KSaGTpB2VC_13ed25519_dalek7signingNtB5_10SigningKeyINtNtCskumHb0IaX0X_4core7convert4FromRAhj20_E4fromB7_
FNDA:0,_RINvMsb_NtCs7KSaGTpB2VC_13ed25519_dalek7signingNtNtB8_6hazmat17ExpandedSecretKey17raw_sign_byupdateINtNtNtCs8hrGzK1ZDm1_6digest8core_api7wrapper11CoreWrapperINtNtB1E_11ct_variable21CtVariableCoreWrapperNtNtCs2jU7EytItPK_4sha28core_api13Sha512VarCoreINtNtCsdOIG378uWuC_7typenum4uint4UIntIB40_IB40_IB40_IB40_IB40_IB40_NtB42_5UTermNtNtB44_3bit2B1ENtB5i_2B0EB5w_EB5w_EB5w_EB5w_EB5w_ENtB3i_9OidSha512EENCINvB2_8raw_signB1z_E0EB8_
FNDA:0,_RINvMsb_NtCs7KSaGTpB2VC_13ed25519_dalek7signingNtNtB8_6hazmat17ExpandedSecretKey8raw_signINtNtNtCs8hrGzK1ZDm1_6digest8core_api7wrapper11CoreWrapperINtNtB1u_11ct_variable21CtVariableCoreWrapperNtNtCs2jU7EytItPK_4sha28core_api13Sha512VarCoreINtNtCsdOIG378uWuC_7typenum4uint4UIntIB3Q_IB3Q_IB3Q_IB3Q_IB3Q_IB3Q_NtB3S_5UTermNtNtB3U_3bit2B1ENtB58_2B0EB5m_EB5m_EB5m_EB5m_EB5m_ENtB38_9OidSha512EEEB8_
FNDA:0,_RNCINvMsb_NtCs7KSaGTpB2VC_13ed25519_dalek7signingNtNtBa_6hazmat17ExpandedSecretKey8raw_signINtNtNtCs8hrGzK1ZDm1_6digest8core_api7wrapper11CoreWrapperINtNtB1w_11ct_variable21CtVariableCoreWrapperNtNtCs2jU7EytItPK_4sha28core_api13Sha512VarCoreINtNtCsdOIG378uWuC_7typenum4uint4UIntIB3S_IB3S_IB3S_IB3S_IB3S_IB3S_NtB3U_5UTermNtNtB3W_3bit2B1ENtB5a_2B0EB5o_EB5o_EB5o_EB5o_EB5o_ENtB3a_9OidSha512EEE0Ba_
FNDA:0,_RNCNvXs6_NtCs7KSaGTpB2VC_13ed25519_dalek7signingNtB7_10SigningKeyINtNtCskumHb0IaX0X_4core7convert7TryFromRShE8try_from0B9_
FNDA:0,_RNCNvXs6_NtCs7KSaGTpB2VC_13ed25519_dalek7signingNtB7_10SigningKeyINtNtCskumHb0IaX0X_4core7convert7TryFromRShE8try_froms_0B9_
FNDA:0,_RNvMNtCs7KSaGTpB2VC_13ed25519_dalek7signingNtB2_10SigningKey10from_bytesB4_
FNDA:0,_RNvMNtCs7KSaGTpB2VC_13ed25519_dalek7signingNtB2_10SigningKey13verify_strict
FNDA:0,_RNvMNtCs7KSaGTpB2VC_13ed25519_dalek7signingNtB2_10SigningKey13verifying_key
FNDA:0,_RNvMNtCs7KSaGTpB2VC_13ed25519_dalek7signingNtB2_10SigningKey15to_scalar_bytes
FNDA:0,_RNvMNtCs7KSaGTpB2VC_13ed25519_dalek7signingNtB2_10SigningKey16to_keypair_bytes
FNDA:0,_RNvMNtCs7KSaGTpB2VC_13ed25519_dalek7signingNtB2_10SigningKey6verify
FNDA:0,_RNvMNtCs7KSaGTpB2VC_13ed25519_dalek7signingNtB2_10SigningKey9to_scalar
FNDA:0,_RNvXs0_NtCs7KSaGTpB2VC_13ed25519_dalek7signingNtB5_10SigningKeyNtNtCskumHb0IaX0X_4core3fmt5Debug3fmt
FNDA:0,_RNvXs2_NtCs7KSaGTpB2VC_13ed25519_dalek7signingNtB5_10SigningKeyINtNtCsfNRf3YCEJdo_9signature6signer6SignerNtCs1q1lLFCBja4_7ed255199SignatureE8try_sign
FNDA:0,_RNvXs3_NtCs7KSaGTpB2VC_13ed25519_dalek7signingNtB5_10SigningKeyINtNtCsfNRf3YCEJdo_9signature8verifier8VerifierNtCs1q1lLFCBja4_7ed255199SignatureE6verify
FNDA:0,_RNvXs6_NtCs7KSaGTpB2VC_13ed25519_dalek7signingNtB5_10SigningKeyINtNtCskumHb0IaX0X_4core7convert7TryFromRShE8try_from
FNDA:0,_RNvXs7_NtCs7KSaGTpB2VC_13ed25519_dalek7signingNtB5_10SigningKeyNtCseqNv8GKTA9D_6subtle14ConstantTimeEq5ct_eq
FNDA:0,_RNvXs8_NtCs7KSaGTpB2VC_13ed25519_dalek7signingNtB5_10SigningKeyNtNtCskumHb0IaX0X_4core3cmp9PartialEq2eq
FNDA:0,_RNvXs_NtCs7KSaGTpB2VC_13ed25519_dalek7signingNtB4_10SigningKeyINtNtCskumHb0IaX0X_4core7convert5AsRefNtNtB6_9verifying12VerifyingKeyE6as_ref
FNDA:0,_RNvXsa_NtCs7KSaGTpB2VC_13ed25519_dalek7signingNtNtB7_6hazmat17ExpandedSecretKeyINtNtCskumHb0IaX0X_4core7convert4FromRAhj20_E4from
FNDA:0,_RNvMNtCs7KSaGTpB2VC_13ed25519_dalek7signingNtB2_10SigningKey18from_keypair_bytesB4_
FNDA:0,_RNvMNtCs7KSaGTpB2VC_13ed25519_dalek7signingNtB2_10SigningKey8as_bytesB4_
FNDA:0,_RNvMNtCs7KSaGTpB2VC_13ed25519_dalek7signingNtB2_10SigningKey8to_bytesB4_
FNDA:0,_RNvXs4_NtCs7KSaGTpB2VC_13ed25519_dalek7signingNtB5_10SigningKeyINtNtCskumHb0IaX0X_4core7convert4FromAhj20_E4fromB7_
FNDA:0,_RNvXs5_NtCs7KSaGTpB2VC_13ed25519_dalek7signingNtB5_10SigningKeyINtNtCskumHb0IaX0X_4core7convert4FromRAhj20_E4fromB7_
FNF:25
FNH:0
DA:104,0
DA:105,0
DA:106,0
DA:107,0
DA:108,0
DA:109,0
DA:110,0
DA:114,0
DA:115,0
DA:116,0
DA:120,0
DA:121,0
DA:122,0
DA:138,0
DA:139,0
DA:140,0
DA:141,0
DA:143,0
DA:144,0
DA:145,0
DA:147,0
DA:148,0
DA:160,0
DA:161,0
DA:163,0
DA:164,0
DA:165,0
DA:166,0
DA:169,0
DA:170,0
DA:171,0
DA:326,0
DA:327,0
DA:328,0
DA:474,0
DA:475,0
DA:476,0
DA:477,0
DA:478,0
DA:479,0
DA:480,0
DA:510,0
DA:515,0
DA:516,0
DA:517,0
DA:518,0
DA:519,0
DA:536,0
DA:542,0
DA:543,0
DA:547,0
DA:548,0
DA:549,0
DA:553,0
DA:554,0
DA:555,0
DA:556,0
DA:557,0
DA:566,0
DA:567,0
DA:568,0
DA:569,0
DA:609,0
DA:610,0
DA:611,0
DA:616,0
DA:617,0
DA:618,0
DA:623,0
DA:624,0
DA:625,0
DA:631,0
DA:632,0
DA:633,0
DA:634,0
DA:635,0
DA:636,0
DA:637,0
DA:638,0
DA:639,0
DA:640,0
DA:641,0
DA:645,0
DA:646,0
DA:647,0
DA:651,0
DA:652,0
DA:653,0
DA:811,0
DA:812,0
DA:813,0
DA:814,0
DA:832,0
DA:833,0
DA:834,0
DA:835,0
DA:836,0
DA:837,0
DA:838,0
DA:841,0
DA:842,0
DA:843,0
DA:844,0
DA:845,0
DA:846,0
DA:848,0
DA:849,0
DA:856,0
DA:857,0
DA:858,0
DA:859,0
DA:860,0
DA:861,0
DA:862,0
DA:863,0
DA:865,0
DA:867,0
DA:868,0
DA:870,0
DA:871,0
DA:873,0
DA:874,0
DA:875,0
DA:876,0
DA:878,0
DA:879,0
DA:881,0
DA:882,0
BRF:0
BRH:0
LF:130
LH:0
end_of_record
SF:/Users/kuangtalin/.cargo/registry/src/index.crates.io-1949cf8c6b5b557f/ed25519-dalek-2.2.0/src/verifying.rs
FN:201,_RINvMs5_NtCs7KSaGTpB2VC_13ed25519_dalek9verifyingNtB6_12VerifyingKey10raw_verifyINtNtNtCs8hrGzK1ZDm1_6digest8core_api7wrapper11CoreWrapperINtNtB1l_11ct_variable21CtVariableCoreWrapperNtNtCs2jU7EytItPK_4sha28core_api13Sha512VarCoreINtNtCsdOIG378uWuC_7typenum4uint4UIntIB3H_IB3H_IB3H_IB3H_IB3H_IB3H_NtB3J_5UTermNtNtB3L_3bit2B1ENtB4Z_2B0EB5d_EB5d_EB5d_EB5d_EB5d_ENtB2Z_9OidSha512EEEB8_
FN:367,_RNCNvMs5_NtCs7KSaGTpB2VC_13ed25519_dalek9verifyingNtB7_12VerifyingKey13verify_strict0B9_
FN:479,_RNvMs5_NtCs7KSaGTpB2VC_13ed25519_dalek9verifyingNtB5_12VerifyingKey10to_edwards
FN:474,_RNvMs5_NtCs7KSaGTpB2VC_13ed25519_dalek9verifyingNtB5_12VerifyingKey13to_montgomery
FN:357,_RNvMs5_NtCs7KSaGTpB2VC_13ed25519_dalek9verifyingNtB5_12VerifyingKey13verify_strict
FN:190,_RNvMs5_NtCs7KSaGTpB2VC_13ed25519_dalek9verifyingNtB5_12VerifyingKey7is_weak
FN:126,_RNvMs5_NtCs7KSaGTpB2VC_13ed25519_dalek9verifyingNtB5_12VerifyingKey8as_bytesB7_
FN:518,_RNvMs6_NtCs7KSaGTpB2VC_13ed25519_dalek9verifyingINtB5_8RComputeINtNtNtCs8hrGzK1ZDm1_6digest8core_api7wrapper11CoreWrapperINtNtB14_11ct_variable21CtVariableCoreWrapperNtNtCs2jU7EytItPK_4sha28core_api13Sha512VarCoreINtNtCsdOIG378uWuC_7typenum4uint4UIntIB3q_IB3q_IB3q_IB3q_IB3q_IB3q_NtB3s_5UTermNtNtB3u_3bit2B1ENtB4I_2B0EB4W_EB4W_EB4W_EB4W_EB4W_ENtB2I_9OidSha512EEE3newB7_
FN:547,_RNvMs6_NtCs7KSaGTpB2VC_13ed25519_dalek9verifyingINtB5_8RComputeINtNtNtCs8hrGzK1ZDm1_6digest8core_api7wrapper11CoreWrapperINtNtB14_11ct_variable21CtVariableCoreWrapperNtNtCs2jU7EytItPK_4sha28core_api13Sha512VarCoreINtNtCsdOIG378uWuC_7typenum4uint4UIntIB3q_IB3q_IB3q_IB3q_IB3q_IB3q_NtB3s_5UTermNtNtB3u_3bit2B1ENtB4I_2B0EB4W_EB4W_EB4W_EB4W_EB4W_ENtB2I_9OidSha512EEE6finishB7_
FN:543,_RNvMs6_NtCs7KSaGTpB2VC_13ed25519_dalek9verifyingINtB5_8RComputeINtNtNtCs8hrGzK1ZDm1_6digest8core_api7wrapper11CoreWrapperINtNtB14_11ct_variable21CtVariableCoreWrapperNtNtCs2jU7EytItPK_4sha28core_api13Sha512VarCoreINtNtCsdOIG378uWuC_7typenum4uint4UIntIB3q_IB3q_IB3q_IB3q_IB3q_IB3q_NtB3s_5UTermNtNtB3u_3bit2B1ENtB4I_2B0EB4W_EB4W_EB4W_EB4W_EB4W_ENtB2I_9OidSha512EEE6updateB7_
FN:507,_RNvMs6_NtCs7KSaGTpB2VC_13ed25519_dalek9verifyingINtB5_8RComputeINtNtNtCs8hrGzK1ZDm1_6digest8core_api7wrapper11CoreWrapperINtNtB14_11ct_variable21CtVariableCoreWrapperNtNtCs2jU7EytItPK_4sha28core_api13Sha512VarCoreINtNtCsdOIG378uWuC_7typenum4uint4UIntIB3q_IB3q_IB3q_IB3q_IB3q_IB3q_NtB3s_5UTermNtNtB3u_3bit2B1ENtB4I_2B0EB4W_EB4W_EB4W_EB4W_EB4W_ENtB2I_9OidSha512EEE7computeB7_
FN:72,_RNvXNtCs7KSaGTpB2VC_13ed25519_dalek9verifyingNtB2_12VerifyingKeyNtNtCskumHb0IaX0X_4core3fmt5Debug3fmt
FN:90,_RNvXs1_NtCs7KSaGTpB2VC_13ed25519_dalek9verifyingNtB5_12VerifyingKeyNtNtCskumHb0IaX0X_4core3cmp9PartialEq2eq
FN:97,_RNvXs2_NtCs7KSaGTpB2VC_13ed25519_dalek9verifyingNtB5_12VerifyingKeyINtNtCskumHb0IaX0X_4core7convert4FromRNtNtB7_6hazmat17ExpandedSecretKeyE4from
FN:103,_RNvXs3_NtCs7KSaGTpB2VC_13ed25519_dalek9verifyingNtB5_12VerifyingKeyINtNtCskumHb0IaX0X_4core7convert4FromRNtNtB7_7signing10SigningKeyE4from
FN:109,_RNvXs4_NtCs7KSaGTpB2VC_13ed25519_dalek9verifyingNtB5_12VerifyingKeyINtNtCskumHb0IaX0X_4core7convert4FromNtNtCs1FafBRGY5sc_16curve25519_dalek7edwards12EdwardsPointE4from
FN:563,_RNvXs7_NtCs7KSaGTpB2VC_13ed25519_dalek9verifyingNtB5_12VerifyingKeyINtNtCsfNRf3YCEJdo_9signature8verifier8VerifierNtCs1q1lLFCBja4_7ed255199SignatureE6verify
FN:614,_RNvXs9_NtCs7KSaGTpB2VC_13ed25519_dalek9verifyingNtNtCs1FafBRGY5sc_16curve25519_dalek7edwards12EdwardsPointINtNtCskumHb0IaX0X_4core7convert4FromNtB5_12VerifyingKeyE4from
FN:78,_RNvXs_NtCs7KSaGTpB2VC_13ed25519_dalek9verifyingNtB4_12VerifyingKeyINtNtCskumHb0IaX0X_4core7convert5AsRefShE6as_ref
FN:84,_RINvXs0_NtCs7KSaGTpB2VC_13ed25519_dalek9verifyingNtB6_12VerifyingKeyNtNtCskumHb0IaX0X_4core4hash4Hash4hashpEB8_
FN:608,_RNCNvXs8_NtCs7KSaGTpB2VC_13ed25519_dalek9verifyingNtB7_12VerifyingKeyINtNtCskumHb0IaX0X_4core7convert7TryFromRShE8try_from0B9_
FN:165,_RNvMs5_NtCs7KSaGTpB2VC_13ed25519_dalek9verifyingNtB5_12VerifyingKey10from_bytesB7_
FN:120,_RNvMs5_NtCs7KSaGTpB2VC_13ed25519_dalek9verifyingNtB5_12VerifyingKey8to_bytesB7_
FN:604,_RNvXs8_NtCs7KSaGTpB2VC_13ed25519_dalek9verifyingNtB5_12VerifyingKeyINtNtCskumHb0IaX0X_4core7convert7TryFromRShE8try_fromB7_
FNDA:0,_RINvMs5_NtCs7KSaGTpB2VC_13ed25519_dalek9verifyingNtB6_12VerifyingKey10raw_verifyINtNtNtCs8hrGzK1ZDm1_6digest8core_api7wrapper11CoreWrapperINtNtB1l_11ct_variable21CtVariableCoreWrapperNtNtCs2jU7EytItPK_4sha28core_api13Sha512VarCoreINtNtCsdOIG378uWuC_7typenum4uint4UIntIB3H_IB3H_IB3H_IB3H_IB3H_IB3H_NtB3J_5UTermNtNtB3L_3bit2B1ENtB4Z_2B0EB5d_EB5d_EB5d_EB5d_EB5d_ENtB2Z_9OidSha512EEEB8_
FNDA:0,_RNCNvMs5_NtCs7KSaGTpB2VC_13ed25519_dalek9verifyingNtB7_12VerifyingKey13verify_strict0B9_
FNDA:0,_RNvMs5_NtCs7KSaGTpB2VC_13ed25519_dalek9verifyingNtB5_12VerifyingKey10to_edwards
FNDA:0,_RNvMs5_NtCs7KSaGTpB2VC_13ed25519_dalek9verifyingNtB5_12VerifyingKey13to_montgomery
FNDA:0,_RNvMs5_NtCs7KSaGTpB2VC_13ed25519_dalek9verifyingNtB5_12VerifyingKey13verify_strict
FNDA:0,_RNvMs5_NtCs7KSaGTpB2VC_13ed25519_dalek9verifyingNtB5_12VerifyingKey7is_weak
FNDA:0,_RNvMs5_NtCs7KSaGTpB2VC_13ed25519_dalek9verifyingNtB5_12VerifyingKey8as_bytesB7_
FNDA:0,_RNvMs6_NtCs7KSaGTpB2VC_13ed25519_dalek9verifyingINtB5_8RComputeINtNtNtCs8hrGzK1ZDm1_6digest8core_api7wrapper11CoreWrapperINtNtB14_11ct_variable21CtVariableCoreWrapperNtNtCs2jU7EytItPK_4sha28core_api13Sha512VarCoreINtNtCsdOIG378uWuC_7typenum4uint4UIntIB3q_IB3q_IB3q_IB3q_IB3q_IB3q_NtB3s_5UTermNtNtB3u_3bit2B1ENtB4I_2B0EB4W_EB4W_EB4W_EB4W_EB4W_ENtB2I_9OidSha512EEE3newB7_
FNDA:0,_RNvMs6_NtCs7KSaGTpB2VC_13ed25519_dalek9verifyingINtB5_8RComputeINtNtNtCs8hrGzK1ZDm1_6digest8core_api7wrapper11CoreWrapperINtNtB14_11ct_variable21CtVariableCoreWrapperNtNtCs2jU7EytItPK_4sha28core_api13Sha512VarCoreINtNtCsdOIG378uWuC_7typenum4uint4UIntIB3q_IB3q_IB3q_IB3q_IB3q_IB3q_NtB3s_5UTermNtNtB3u_3bit2B1ENtB4I_2B0EB4W_EB4W_EB4W_EB4W_EB4W_ENtB2I_9OidSha512EEE6finishB7_
FNDA:0,_RNvMs6_NtCs7KSaGTpB2VC_13ed25519_dalek9verifyingINtB5_8RComputeINtNtNtCs8hrGzK1ZDm1_6digest8core_api7wrapper11CoreWrapperINtNtB14_11ct_variable21CtVariableCoreWrapperNtNtCs2jU7EytItPK_4sha28core_api13Sha512VarCoreINtNtCsdOIG378uWuC_7typenum4uint4UIntIB3q_IB3q_IB3q_IB3q_IB3q_IB3q_NtB3s_5UTermNtNtB3u_3bit2B1ENtB4I_2B0EB4W_EB4W_EB4W_EB4W_EB4W_ENtB2I_9OidSha512EEE6updateB7_
FNDA:0,_RNvMs6_NtCs7KSaGTpB2VC_13ed25519_dalek9verifyingINtB5_8RComputeINtNtNtCs8hrGzK1ZDm1_6digest8core_api7wrapper11CoreWrapperINtNtB14_11ct_variable21CtVariableCoreWrapperNtNtCs2jU7EytItPK_4sha28core_api13Sha512VarCoreINtNtCsdOIG378uWuC_7typenum4uint4UIntIB3q_IB3q_IB3q_IB3q_IB3q_IB3q_NtB3s_5UTermNtNtB3u_3bit2B1ENtB4I_2B0EB4W_EB4W_EB4W_EB4W_EB4W_ENtB2I_9OidSha512EEE7computeB7_
FNDA:0,_RNvXNtCs7KSaGTpB2VC_13ed25519_dalek9verifyingNtB2_12VerifyingKeyNtNtCskumHb0IaX0X_4core3fmt5Debug3fmt
FNDA:0,_RNvXs1_NtCs7KSaGTpB2VC_13ed25519_dalek9verifyingNtB5_12VerifyingKeyNtNtCskumHb0IaX0X_4core3cmp9PartialEq2eq
FNDA:0,_RNvXs2_NtCs7KSaGTpB2VC_13ed25519_dalek9verifyingNtB5_12VerifyingKeyINtNtCskumHb0IaX0X_4core7convert4FromRNtNtB7_6hazmat17ExpandedSecretKeyE4from
FNDA:0,_RNvXs3_NtCs7KSaGTpB2VC_13ed25519_dalek9verifyingNtB5_12VerifyingKeyINtNtCskumHb0IaX0X_4core7convert4FromRNtNtB7_7signing10SigningKeyE4from
FNDA:0,_RNvXs4_NtCs7KSaGTpB2VC_13ed25519_dalek9verifyingNtB5_12VerifyingKeyINtNtCskumHb0IaX0X_4core7convert4FromNtNtCs1FafBRGY5sc_16curve25519_dalek7edwards12EdwardsPointE4from
FNDA:0,_RNvXs7_NtCs7KSaGTpB2VC_13ed25519_dalek9verifyingNtB5_12VerifyingKeyINtNtCsfNRf3YCEJdo_9signature8verifier8VerifierNtCs1q1lLFCBja4_7ed255199SignatureE6verify
FNDA:0,_RNvXs9_NtCs7KSaGTpB2VC_13ed25519_dalek9verifyingNtNtCs1FafBRGY5sc_16curve25519_dalek7edwards12EdwardsPointINtNtCskumHb0IaX0X_4core7convert4FromNtB5_12VerifyingKeyE4from
FNDA:0,_RNvXs_NtCs7KSaGTpB2VC_13ed25519_dalek9verifyingNtB4_12VerifyingKeyINtNtCskumHb0IaX0X_4core7convert5AsRefShE6as_ref
FNDA:0,_RINvXs0_NtCs7KSaGTpB2VC_13ed25519_dalek9verifyingNtB6_12VerifyingKeyNtNtCskumHb0IaX0X_4core4hash4Hash4hashpEB8_
FNDA:0,_RNCNvXs8_NtCs7KSaGTpB2VC_13ed25519_dalek9verifyingNtB7_12VerifyingKeyINtNtCskumHb0IaX0X_4core7convert7TryFromRShE8try_from0B9_
FNDA:0,_RNvMs5_NtCs7KSaGTpB2VC_13ed25519_dalek9verifyingNtB5_12VerifyingKey10from_bytesB7_
FNDA:0,_RNvMs5_NtCs7KSaGTpB2VC_13ed25519_dalek9verifyingNtB5_12VerifyingKey8to_bytesB7_
FNDA:0,_RNvXs8_NtCs7KSaGTpB2VC_13ed25519_dalek9verifyingNtB5_12VerifyingKeyINtNtCskumHb0IaX0X_4core7convert7TryFromRShE8try_fromB7_
FNF:24
FNH:0
DA:72,0
DA:73,0
DA:74,0
DA:78,0
DA:79,0
DA:80,0
DA:84,0
DA:85,0
DA:86,0
DA:90,0
DA:91,0
DA:92,0
DA:97,0
DA:98,0
DA:99,0
DA:103,0
DA:104,0
DA:105,0
DA:109,0
DA:110,0
DA:111,0
DA:112,0
DA:113,0
DA:114,0
DA:120,0
DA:121,0
DA:122,0
DA:126,0
DA:127,0
DA:128,0
DA:165,0
DA:166,0
DA:167,0
DA:168,0
DA:169,0
DA:172,0
DA:173,0
DA:190,0
DA:191,0
DA:192,0
DA:201,0
DA:202,0
DA:203,0
DA:204,0
DA:205,0
DA:206,0
DA:207,0
DA:209,0
DA:211,0
DA:212,0
DA:213,0
DA:215,0
DA:217,0
DA:357,0
DA:358,0
DA:359,0
DA:360,0
DA:361,0
DA:362,0
DA:364,0
DA:365,0
DA:366,0
DA:367,0
DA:370,0
DA:371,0
DA:372,0
DA:374,0
DA:375,0
DA:376,0
DA:378,0
DA:380,0
DA:474,0
DA:475,0
DA:476,0
DA:479,0
DA:480,0
DA:481,0
DA:507,0
DA:508,0
DA:509,0
DA:510,0
DA:511,0
DA:512,0
DA:513,0
DA:514,0
DA:515,0
DA:516,0
DA:518,0
DA:519,0
DA:520,0
DA:521,0
DA:522,0
DA:523,0
DA:524,0
DA:526,0
DA:527,0
DA:528,0
DA:529,0
DA:530,0
DA:531,0
DA:532,0
DA:534,0
DA:535,0
DA:536,0
DA:537,0
DA:538,0
DA:539,0
DA:540,0
DA:541,0
DA:543,0
DA:544,0
DA:545,0
DA:547,0
DA:548,0
DA:550,0
DA:552,0
DA:553,0
DA:554,0
DA:563,0
DA:564,0
DA:565,0
DA:604,0
DA:605,0
DA:608,0
DA:609,0
DA:610,0
DA:614,0
DA:615,0
DA:616,0
BRF:0
BRH:0
LF:131
LH:0
end_of_record
SF:/Users/kuangtalin/.cargo/registry/src/index.crates.io-1949cf8c6b5b557f/generic-array-0.14.7/src/functional.rs
FN:48,_RINvYpINtNtCsek14CzwTA2s_13generic_array10functional18FunctionalSequencepE3mapppEB9_
FN:63,_RINvYpINtNtCsek14CzwTA2s_13generic_array10functional18FunctionalSequencepE3zipppppEB9_
FN:77,_RINvYpINtNtCsek14CzwTA2s_13generic_array10functional18FunctionalSequencepE4foldppEB9_
FNDA:0,_RINvYpINtNtCsek14CzwTA2s_13generic_array10functional18FunctionalSequencepE3mapppEB9_
FNDA:0,_RINvYpINtNtCsek14CzwTA2s_13generic_array10functional18FunctionalSequencepE3zipppppEB9_
FNDA:0,_RINvYpINtNtCsek14CzwTA2s_13generic_array10functional18FunctionalSequencepE4foldppEB9_
FNF:3
FNH:0
DA:48,0
DA:49,0
DA:50,0
DA:51,0
DA:52,0
DA:54,0
DA:55,0
DA:63,0
DA:64,0
DA:65,0
DA:66,0
DA:67,0
DA:68,0
DA:69,0
DA:71,0
DA:72,0
DA:77,0
DA:78,0
DA:79,0
DA:81,0
DA:82,0
BRF:0
BRH:0
LF:21
LH:0
end_of_record
SF:/Users/kuangtalin/.cargo/registry/src/index.crates.io-1949cf8c6b5b557f/generic-array-0.14.7/src/hex.rs
FN:33,_RNCNvXININtCsek14CzwTA2s_13generic_array3hex0pEINtB9_12GenericArrayhpENtNtCskumHb0IaX0X_4core3fmt8LowerHex3fmt0B9_
FN:53,_RNCNvXININtCsek14CzwTA2s_13generic_array3hex0pEINtB9_12GenericArrayhpENtNtCskumHb0IaX0X_4core3fmt8LowerHex3fmts0_0B9_
FN:41,_RNCNvXININtCsek14CzwTA2s_13generic_array3hex0pEINtB9_12GenericArrayhpENtNtCskumHb0IaX0X_4core3fmt8LowerHex3fmts_0B9_
FN:73,_RNCNvXININtCsek14CzwTA2s_13generic_array3hexs_0pEINtB9_12GenericArrayhpENtNtCskumHb0IaX0X_4core3fmt8UpperHex3fmt0B9_
FN:93,_RNCNvXININtCsek14CzwTA2s_13generic_array3hexs_0pEINtB9_12GenericArrayhpENtNtCskumHb0IaX0X_4core3fmt8UpperHex3fmts0_0B9_
FN:81,_RNCNvXININtCsek14CzwTA2s_13generic_array3hexs_0pEINtB9_12GenericArrayhpENtNtCskumHb0IaX0X_4core3fmt8UpperHex3fmts_0B9_
FN:32,_RNvXININtCsek14CzwTA2s_13generic_array3hex0pEINtB7_12GenericArrayhpENtNtCskumHb0IaX0X_4core3fmt8LowerHex3fmtB7_
FN:72,_RNvXININtCsek14CzwTA2s_13generic_array3hexs_0pEINtB7_12GenericArrayhpENtNtCskumHb0IaX0X_4core3fmt8UpperHex3fmtB7_
FNDA:0,_RNCNvXININtCsek14CzwTA2s_13generic_array3hex0pEINtB9_12GenericArrayhpENtNtCskumHb0IaX0X_4core3fmt8LowerHex3fmt0B9_
FNDA:0,_RNCNvXININtCsek14CzwTA2s_13generic_array3hex0pEINtB9_12GenericArrayhpENtNtCskumHb0IaX0X_4core3fmt8LowerHex3fmts0_0B9_
FNDA:0,_RNCNvXININtCsek14CzwTA2s_13generic_array3hex0pEINtB9_12GenericArrayhpENtNtCskumHb0IaX0X_4core3fmt8LowerHex3fmts_0B9_
FNDA:0,_RNCNvXININtCsek14CzwTA2s_13generic_array3hexs_0pEINtB9_12GenericArrayhpENtNtCskumHb0IaX0X_4core3fmt8UpperHex3fmt0B9_
FNDA:0,_RNCNvXININtCsek14CzwTA2s_13generic_array3hexs_0pEINtB9_12GenericArrayhpENtNtCskumHb0IaX0X_4core3fmt8UpperHex3fmts0_0B9_
FNDA:0,_RNCNvXININtCsek14CzwTA2s_13generic_array3hexs_0pEINtB9_12GenericArrayhpENtNtCskumHb0IaX0X_4core3fmt8UpperHex3fmts_0B9_
FNDA:0,_RNvXININtCsek14CzwTA2s_13generic_array3hex0pEINtB7_12GenericArrayhpENtNtCskumHb0IaX0X_4core3fmt8LowerHex3fmtB7_
FNDA:0,_RNvXININtCsek14CzwTA2s_13generic_array3hexs_0pEINtB7_12GenericArrayhpENtNtCskumHb0IaX0X_4core3fmt8UpperHex3fmtB7_
FNF:8
FNH:0
DA:32,0
DA:33,0
DA:34,0
DA:36,0
DA:39,0
DA:41,0
DA:42,0
DA:43,0
DA:44,0
DA:46,0
DA:49,0
DA:50,0
DA:52,0
DA:53,0
DA:54,0
DA:55,0
DA:56,0
DA:58,0
DA:59,0
DA:60,0
DA:63,0
DA:64,0
DA:72,0
DA:73,0
DA:74,0
DA:76,0
DA:79,0
DA:81,0
DA:82,0
DA:83,0
DA:84,0
DA:86,0
DA:89,0
DA:90,0
DA:92,0
DA:93,0
DA:94,0
DA:95,0
DA:96,0
DA:98,0
DA:99,0
DA:100,0
DA:103,0
DA:104,0
BRF:0
BRH:0
LF:50
LH:0
end_of_record
SF:/Users/kuangtalin/.cargo/registry/src/index.crates.io-1949cf8c6b5b557f/generic-array-0.14.7/src/impls.rs
FN:17,_RNCNvXNtCsek14CzwTA2s_13generic_array5implsINtB6_12GenericArrayhINtNtCsdOIG378uWuC_7typenum4uint4UIntIB11_IB11_IB11_IB11_IB11_IB11_IB11_NtB13_5UTermNtNtB15_3bit2B1ENtB2o_2B0EB2C_EB2C_EB2C_EB2C_EB2C_EB2C_EENtNtCskumHb0IaX0X_4core7default7Default7default0Cs7KSaGTpB2VC_13ed25519_dalek
FN:17,_RNCNvXNtCsek14CzwTA2s_13generic_array5implsINtB6_12GenericArrayhINtNtCsdOIG378uWuC_7typenum4uint4UIntIB11_IB11_IB11_IB11_IB11_IB11_NtB13_5UTermNtNtB15_3bit2B1ENtB2j_2B0EB2x_EB2x_EB2x_EB2x_EB2x_EENtNtCskumHb0IaX0X_4core7default7Default7default0Cs7KSaGTpB2VC_13ed25519_dalek
FN:16,_RNvXNtCsek14CzwTA2s_13generic_array5implsINtB4_12GenericArrayhINtNtCsdOIG378uWuC_7typenum4uint4UIntIBZ_IBZ_IBZ_IBZ_IBZ_IBZ_IBZ_NtB11_5UTermNtNtB13_3bit2B1ENtB2f_2B0EB2t_EB2t_EB2t_EB2t_EB2t_EB2t_EENtNtCskumHb0IaX0X_4core7default7Default7defaultCs7KSaGTpB2VC_13ed25519_dalek
FN:16,_RNvXNtCsek14CzwTA2s_13generic_array5implsINtB4_12GenericArrayhINtNtCsdOIG378uWuC_7typenum4uint4UIntIBZ_IBZ_IBZ_IBZ_IBZ_IBZ_NtB11_5UTermNtNtB13_3bit2B1ENtB2b_2B0EB2p_EB2p_EB2p_EB2p_EB2p_EENtNtCskumHb0IaX0X_4core7default7Default7defaultCs7KSaGTpB2VC_13ed25519_dalek
FN:168,_RNvXs6l_NtCsek14CzwTA2s_13generic_array5implsINtB8_12GenericArrayhINtNtCsdOIG378uWuC_7typenum4uint4UIntIB13_IB13_IB13_IB13_IB13_IB13_NtB15_5UTermNtNtB17_3bit2B1ENtB2l_2B0EB2z_EB2z_EB2z_EB2z_EB2z_EEINtNtCskumHb0IaX0X_4core7convert5AsRefAhj40_E6as_refCs7KSaGTpB2VC_13ed25519_dalek
FN:118,_RINvXININtCsek14CzwTA2s_13generic_array5implssa_0ppEINtB8_12GenericArrayppENtNtCskumHb0IaX0X_4core4hash4Hash4hashpEB8_
FN:17,_RNCNvXININtCsek14CzwTA2s_13generic_array5impls0ppEINtB9_12GenericArrayppENtNtCskumHb0IaX0X_4core7default7Default7default0B9_
FN:16,_RNvXININtCsek14CzwTA2s_13generic_array5impls0ppEINtB7_12GenericArrayppENtNtCskumHb0IaX0X_4core7default7Default7defaultB7_
FN:153,_RNvXININtCsek14CzwTA2s_13generic_array5implss10_0pEQINtB7_12GenericArraypINtNtCsdOIG378uWuC_7typenum4uint4UIntIB1a_IB1a_IB1a_NtB1c_5UTermNtNtB1e_3bit2B1ENtB2d_2B0EB2r_EB2b_EEINtNtCskumHb0IaX0X_4core7convert4FromQApj9_E4fromB7_
FN:168,_RNvXININtCsek14CzwTA2s_13generic_array5implss11_0pEINtB7_12GenericArraypINtNtCsdOIG378uWuC_7typenum4uint4UIntIB19_IB19_IB19_NtB1b_5UTermNtNtB1d_3bit2B1ENtB2c_2B0EB2q_EB2a_EEINtNtCskumHb0IaX0X_4core7convert5AsRefApj9_E6as_refB7_
FN:175,_RNvXININtCsek14CzwTA2s_13generic_array5implss12_0pEINtB7_12GenericArraypINtNtCsdOIG378uWuC_7typenum4uint4UIntIB19_IB19_IB19_NtB1b_5UTermNtNtB1d_3bit2B1ENtB2c_2B0EB2q_EB2a_EEINtNtCskumHb0IaX0X_4core7convert5AsMutApj9_E6as_mutB7_
FN:131,_RNvXININtCsek14CzwTA2s_13generic_array5implss13_0pEINtB7_12GenericArraypINtNtCsdOIG378uWuC_7typenum4uint4UIntIB19_IB19_IB19_NtB1b_5UTermNtNtB1d_3bit2B1ENtB2c_2B0EB2a_EB2q_EEINtNtCskumHb0IaX0X_4core7convert4FromApja_E4fromB7_
FN:139,_RNvXININtCsek14CzwTA2s_13generic_array5implss14_0pEApja_INtNtCskumHb0IaX0X_4core7convert4FromINtB7_12GenericArraypINtNtCsdOIG378uWuC_7typenum4uint4UIntIB1P_IB1P_IB1P_NtB1R_5UTermNtNtB1T_3bit2B1ENtB2S_2B0EB2Q_EB36_EEE4fromB7_
FN:146,_RNvXININtCsek14CzwTA2s_13generic_array5implss15_0pERINtB7_12GenericArraypINtNtCsdOIG378uWuC_7typenum4uint4UIntIB1a_IB1a_IB1a_NtB1c_5UTermNtNtB1e_3bit2B1ENtB2d_2B0EB2b_EB2r_EEINtNtCskumHb0IaX0X_4core7convert4FromRApja_E4fromB7_
FN:153,_RNvXININtCsek14CzwTA2s_13generic_array5implss16_0pEQINtB7_12GenericArraypINtNtCsdOIG378uWuC_7typenum4uint4UIntIB1a_IB1a_IB1a_NtB1c_5UTermNtNtB1e_3bit2B1ENtB2d_2B0EB2b_EB2r_EEINtNtCskumHb0IaX0X_4core7convert4FromQApja_E4fromB7_
FN:168,_RNvXININtCsek14CzwTA2s_13generic_array5implss17_0pEINtB7_12GenericArraypINtNtCsdOIG378uWuC_7typenum4uint4UIntIB19_IB19_IB19_NtB1b_5UTermNtNtB1d_3bit2B1ENtB2c_2B0EB2a_EB2q_EEINtNtCskumHb0IaX0X_4core7convert5AsRefApja_E6as_refB7_
FN:175,_RNvXININtCsek14CzwTA2s_13generic_array5implss18_0pEINtB7_12GenericArraypINtNtCsdOIG378uWuC_7typenum4uint4UIntIB19_IB19_IB19_NtB1b_5UTermNtNtB1d_3bit2B1ENtB2c_2B0EB2a_EB2q_EEINtNtCskumHb0IaX0X_4core7convert5AsMutApja_E6as_mutB7_
FN:131,_RNvXININtCsek14CzwTA2s_13generic_array5implss19_0pEINtB7_12GenericArraypINtNtCsdOIG378uWuC_7typenum4uint4UIntIB19_IB19_IB19_NtB1b_5UTermNtNtB1d_3bit2B1ENtB2c_2B0EB2a_EB2a_EEINtNtCskumHb0IaX0X_4core7convert4FromApjb_E4fromB7_
FN:153,_RNvXININtCsek14CzwTA2s_13generic_array5implss1A_0pEQINtB7_12GenericArraypINtNtCsdOIG378uWuC_7typenum4uint4UIntIB1a_IB1a_IB1a_NtB1c_5UTermNtNtB1e_3bit2B1EB2b_EB2b_EB2b_EEINtNtCskumHb0IaX0X_4core7convert4FromQApjf_E4fromB7_
FN:168,_RNvXININtCsek14CzwTA2s_13generic_array5implss1B_0pEINtB7_12GenericArraypINtNtCsdOIG378uWuC_7typenum4uint4UIntIB19_IB19_IB19_NtB1b_5UTermNtNtB1d_3bit2B1EB2a_EB2a_EB2a_EEINtNtCskumHb0IaX0X_4core7convert5AsRefApjf_E6as_refB7_
FN:175,_RNvXININtCsek14CzwTA2s_13generic_array5implss1C_0pEINtB7_12GenericArraypINtNtCsdOIG378uWuC_7typenum4uint4UIntIB19_IB19_IB19_NtB1b_5UTermNtNtB1d_3bit2B1EB2a_EB2a_EB2a_EEINtNtCskumHb0IaX0X_4core7convert5AsMutApjf_E6as_mutB7_
FN:131,_RNvXININtCsek14CzwTA2s_13generic_array5implss1D_0pEINtB7_12GenericArraypINtNtCsdOIG378uWuC_7typenum4uint4UIntIB19_IB19_IB19_IB19_NtB1b_5UTermNtNtB1d_3bit2B1ENtB2h_2B0EB2v_EB2v_EB2v_EEINtNtCskumHb0IaX0X_4core7convert4FromApj10_E4fromB7_
FN:139,_RNvXININtCsek14CzwTA2s_13generic_array5implss1E_0pEApj10_INtNtCskumHb0IaX0X_4core7convert4FromINtB7_12GenericArraypINtNtCsdOIG378uWuC_7typenum4uint4UIntIB1Q_IB1Q_IB1Q_IB1Q_NtB1S_5UTermNtNtB1U_3bit2B1ENtB2Y_2B0EB3c_EB3c_EB3c_EEE4fromB7_
FN:146,_RNvXININtCsek14CzwTA2s_13generic_array5implss1F_0pERINtB7_12GenericArraypINtNtCsdOIG378uWuC_7typenum4uint4UIntIB1a_IB1a_IB1a_IB1a_NtB1c_5UTermNtNtB1e_3bit2B1ENtB2i_2B0EB2w_EB2w_EB2w_EEINtNtCskumHb0IaX0X_4core7convert4FromRApj10_E4fromB7_
FN:153,_RNvXININtCsek14CzwTA2s_13generic_array5implss1G_0pEQINtB7_12GenericArraypINtNtCsdOIG378uWuC_7typenum4uint4UIntIB1a_IB1a_IB1a_IB1a_NtB1c_5UTermNtNtB1e_3bit2B1ENtB2i_2B0EB2w_EB2w_EB2w_EEINtNtCskumHb0IaX0X_4core7convert4FromQApj10_E4fromB7_
FN:168,_RNvXININtCsek14CzwTA2s_13generic_array5implss1H_0pEINtB7_12GenericArraypINtNtCsdOIG378uWuC_7typenum4uint4UIntIB19_IB19_IB19_IB19_NtB1b_5UTermNtNtB1d_3bit2B1ENtB2h_2B0EB2v_EB2v_EB2v_EEINtNtCskumHb0IaX0X_4core7convert5AsRefApj10_E6as_refB7_
FN:175,_RNvXININtCsek14CzwTA2s_13generic_array5implss1I_0pEINtB7_12GenericArraypINtNtCsdOIG378uWuC_7typenum4uint4UIntIB19_IB19_IB19_IB19_NtB1b_5UTermNtNtB1d_3bit2B1ENtB2h_2B0EB2v_EB2v_EB2v_EEINtNtCskumHb0IaX0X_4core7convert5AsMutApj10_E6as_mutB7_
FN:131,_RNvXININtCsek14CzwTA2s_13generic_array5implss1J_0pEINtB7_12GenericArraypINtNtCsdOIG378uWuC_7typenum4uint4UIntIB19_IB19_IB19_IB19_NtB1b_5UTermNtNtB1d_3bit2B1ENtB2h_2B0EB2v_EB2v_EB2f_EEINtNtCskumHb0IaX0X_4core7convert4FromApj11_E4fromB7_
FN:139,_RNvXININtCsek14CzwTA2s_13generic_array5implss1K_0pEApj11_INtNtCskumHb0IaX0X_4core7convert4FromINtB7_12GenericArraypINtNtCsdOIG378uWuC_7typenum4uint4UIntIB1Q_IB1Q_IB1Q_IB1Q_NtB1S_5UTermNtNtB1U_3bit2B1ENtB2Y_2B0EB3c_EB3c_EB2W_EEE4fromB7_
FN:146,_RNvXININtCsek14CzwTA2s_13generic_array5implss1L_0pERINtB7_12GenericArraypINtNtCsdOIG378uWuC_7typenum4uint4UIntIB1a_IB1a_IB1a_IB1a_NtB1c_5UTermNtNtB1e_3bit2B1ENtB2i_2B0EB2w_EB2w_EB2g_EEINtNtCskumHb0IaX0X_4core7convert4FromRApj11_E4fromB7_
FN:153,_RNvXININtCsek14CzwTA2s_13generic_array5implss1M_0pEQINtB7_12GenericArraypINtNtCsdOIG378uWuC_7typenum4uint4UIntIB1a_IB1a_IB1a_IB1a_NtB1c_5UTermNtNtB1e_3bit2B1ENtB2i_2B0EB2w_EB2w_EB2g_EEINtNtCskumHb0IaX0X_4core7convert4FromQApj11_E4fromB7_
FN:168,_RNvXININtCsek14CzwTA2s_13generic_array5implss1N_0pEINtB7_12GenericArraypINtNtCsdOIG378uWuC_7typenum4uint4UIntIB19_IB19_IB19_IB19_NtB1b_5UTermNtNtB1d_3bit2B1ENtB2h_2B0EB2v_EB2v_EB2f_EEINtNtCskumHb0IaX0X_4core7convert5AsRefApj11_E6as_refB7_
FN:175,_RNvXININtCsek14CzwTA2s_13generic_array5implss1O_0pEINtB7_12GenericArraypINtNtCsdOIG378uWuC_7typenum4uint4UIntIB19_IB19_IB19_IB19_NtB1b_5UTermNtNtB1d_3bit2B1ENtB2h_2B0EB2v_EB2v_EB2f_EEINtNtCskumHb0IaX0X_4core7convert5AsMutApj11_E6as_mutB7_
FN:131,_RNvXININtCsek14CzwTA2s_13generic_array5implss1P_0pEINtB7_12GenericArraypINtNtCsdOIG378uWuC_7typenum4uint4UIntIB19_IB19_IB19_IB19_NtB1b_5UTermNtNtB1d_3bit2B1ENtB2h_2B0EB2v_EB2f_EB2v_EEINtNtCskumHb0IaX0X_4core7convert4FromApj12_E4fromB7_
FN:139,_RNvXININtCsek14CzwTA2s_13generic_array5implss1Q_0pEApj12_INtNtCskumHb0IaX0X_4core7convert4FromINtB7_12GenericArraypINtNtCsdOIG378uWuC_7typenum4uint4UIntIB1Q_IB1Q_IB1Q_IB1Q_NtB1S_5UTermNtNtB1U_3bit2B1ENtB2Y_2B0EB3c_EB2W_EB3c_EEE4fromB7_
FN:146,_RNvXININtCsek14CzwTA2s_13generic_array5implss1R_0pERINtB7_12GenericArraypINtNtCsdOIG378uWuC_7typenum4uint4UIntIB1a_IB1a_IB1a_IB1a_NtB1c_5UTermNtNtB1e_3bit2B1ENtB2i_2B0EB2w_EB2g_EB2w_EEINtNtCskumHb0IaX0X_4core7convert4FromRApj12_E4fromB7_
FN:153,_RNvXININtCsek14CzwTA2s_13generic_array5implss1S_0pEQINtB7_12GenericArraypINtNtCsdOIG378uWuC_7typenum4uint4UIntIB1a_IB1a_IB1a_IB1a_NtB1c_5UTermNtNtB1e_3bit2B1ENtB2i_2B0EB2w_EB2g_EB2w_EEINtNtCskumHb0IaX0X_4core7convert4FromQApj12_E4fromB7_
FN:168,_RNvXININtCsek14CzwTA2s_13generic_array5implss1T_0pEINtB7_12GenericArraypINtNtCsdOIG378uWuC_7typenum4uint4UIntIB19_IB19_IB19_IB19_NtB1b_5UTermNtNtB1d_3bit2B1ENtB2h_2B0EB2v_EB2f_EB2v_EEINtNtCskumHb0IaX0X_4core7convert5AsRefApj12_E6as_refB7_
FN:175,_RNvXININtCsek14CzwTA2s_13generic_array5implss1U_0pEINtB7_12GenericArraypINtNtCsdOIG378uWuC_7typenum4uint4UIntIB19_IB19_IB19_IB19_NtB1b_5UTermNtNtB1d_3bit2B1ENtB2h_2B0EB2v_EB2f_EB2v_EEINtNtCskumHb0IaX0X_4core7convert5AsMutApj12_E6as_mutB7_
FN:131,_RNvXININtCsek14CzwTA2s_13generic_array5implss1V_0pEINtB7_12GenericArraypINtNtCsdOIG378uWuC_7typenum4uint4UIntIB19_IB19_IB19_IB19_NtB1b_5UTermNtNtB1d_3bit2B1ENtB2h_2B0EB2v_EB2f_EB2f_EEINtNtCskumHb0IaX0X_4core7convert4FromApj13_E4fromB7_
FN:139,_RNvXININtCsek14CzwTA2s_13generic_array5implss1W_0pEApj13_INtNtCskumHb0IaX0X_4core7convert4FromINtB7_12GenericArraypINtNtCsdOIG378uWuC_7typenum4uint4UIntIB1Q_IB1Q_IB1Q_IB1Q_NtB1S_5UTermNtNtB1U_3bit2B1ENtB2Y_2B0EB3c_EB2W_EB2W_EEE4fromB7_
FN:146,_RNvXININtCsek14CzwTA2s_13generic_array5implss1X_0pERINtB7_12GenericArraypINtNtCsdOIG378uWuC_7typenum4uint4UIntIB1a_IB1a_IB1a_IB1a_NtB1c_5UTermNtNtB1e_3bit2B1ENtB2i_2B0EB2w_EB2g_EB2g_EEINtNtCskumHb0IaX0X_4core7convert4FromRApj13_E4fromB7_
FN:153,_RNvXININtCsek14CzwTA2s_13generic_array5implss1Y_0pEQINtB7_12GenericArraypINtNtCsdOIG378uWuC_7typenum4uint4UIntIB1a_IB1a_IB1a_IB1a_NtB1c_5UTermNtNtB1e_3bit2B1ENtB2i_2B0EB2w_EB2g_EB2g_EEINtNtCskumHb0IaX0X_4core7convert4FromQApj13_E4fromB7_
FN:168,_RNvXININtCsek14CzwTA2s_13generic_array5implss1Z_0pEINtB7_12GenericArraypINtNtCsdOIG378uWuC_7typenum4uint4UIntIB19_IB19_IB19_IB19_NtB1b_5UTermNtNtB1d_3bit2B1ENtB2h_2B0EB2v_EB2f_EB2f_EEINtNtCskumHb0IaX0X_4core7convert5AsRefApj13_E6as_refB7_
FN:41,_RNvXININtCsek14CzwTA2s_13generic_array5implss1_0ppEINtB7_12GenericArrayppENtNtCskumHb0IaX0X_4core3cmp9PartialEq2eqB7_
FN:139,_RNvXININtCsek14CzwTA2s_13generic_array5implss1a_0pEApjb_INtNtCskumHb0IaX0X_4core7convert4FromINtB7_12GenericArraypINtNtCsdOIG378uWuC_7typenum4uint4UIntIB1P_IB1P_IB1P_NtB1R_5UTermNtNtB1T_3bit2B1ENtB2S_2B0EB2Q_EB2Q_EEE4fromB7_
FN:146,_RNvXININtCsek14CzwTA2s_13generic_array5implss1b_0pERINtB7_12GenericArraypINtNtCsdOIG378uWuC_7typenum4uint4UIntIB1a_IB1a_IB1a_NtB1c_5UTermNtNtB1e_3bit2B1ENtB2d_2B0EB2b_EB2b_EEINtNtCskumHb0IaX0X_4core7convert4FromRApjb_E4fromB7_
FN:153,_RNvXININtCsek14CzwTA2s_13generic_array5implss1c_0pEQINtB7_12GenericArraypINtNtCsdOIG378uWuC_7typenum4uint4UIntIB1a_IB1a_IB1a_NtB1c_5UTermNtNtB1e_3bit2B1ENtB2d_2B0EB2b_EB2b_EEINtNtCskumHb0IaX0X_4core7convert4FromQApjb_E4fromB7_
FN:168,_RNvXININtCsek14CzwTA2s_13generic_array5implss1d_0pEINtB7_12GenericArraypINtNtCsdOIG378uWuC_7typenum4uint4UIntIB19_IB19_IB19_NtB1b_5UTermNtNtB1d_3bit2B1ENtB2c_2B0EB2a_EB2a_EEINtNtCskumHb0IaX0X_4core7convert5AsRefApjb_E6as_refB7_
FN:175,_RNvXININtCsek14CzwTA2s_13generic_array5implss1e_0pEINtB7_12GenericArraypINtNtCsdOIG378uWuC_7typenum4uint4UIntIB19_IB19_IB19_NtB1b_5UTermNtNtB1d_3bit2B1ENtB2c_2B0EB2a_EB2a_EEINtNtCskumHb0IaX0X_4core7convert5AsMutApjb_E6as_mutB7_
FN:131,_RNvXININtCsek14CzwTA2s_13generic_array5implss1f_0pEINtB7_12GenericArraypINtNtCsdOIG378uWuC_7typenum4uint4UIntIB19_IB19_IB19_NtB1b_5UTermNtNtB1d_3bit2B1EB2a_ENtB2c_2B0EB2v_EEINtNtCskumHb0IaX0X_4core7convert4FromApjc_E4fromB7_
FN:139,_RNvXININtCsek14CzwTA2s_13generic_array5implss1g_0pEApjc_INtNtCskumHb0IaX0X_4core7convert4FromINtB7_12GenericArraypINtNtCsdOIG378uWuC_7typenum4uint4UIntIB1P_IB1P_IB1P_NtB1R_5UTermNtNtB1T_3bit2B1EB2Q_ENtB2S_2B0EB3b_EEE4fromB7_
FN:146,_RNvXININtCsek14CzwTA2s_13generic_array5implss1h_0pERINtB7_12GenericArraypINtNtCsdOIG378uWuC_7typenum4uint4UIntIB1a_IB1a_IB1a_NtB1c_5UTermNtNtB1e_3bit2B1EB2b_ENtB2d_2B0EB2w_EEINtNtCskumHb0IaX0X_4core7convert4FromRApjc_E4fromB7_
FN:153,_RNvXININtCsek14CzwTA2s_13generic_array5implss1i_0pEQINtB7_12GenericArraypINtNtCsdOIG378uWuC_7typenum4uint4UIntIB1a_IB1a_IB1a_NtB1c_5UTermNtNtB1e_3bit2B1EB2b_ENtB2d_2B0EB2w_EEINtNtCskumHb0IaX0X_4core7convert4FromQApjc_E4fromB7_
FN:168,_RNvXININtCsek14CzwTA2s_13generic_array5implss1j_0pEINtB7_12GenericArraypINtNtCsdOIG378uWuC_7typenum4uint4UIntIB19_IB19_IB19_NtB1b_5UTermNtNtB1d_3bit2B1EB2a_ENtB2c_2B0EB2v_EEINtNtCskumHb0IaX0X_4core7convert5AsRefApjc_E6as_refB7_
FN:175,_RNvXININtCsek14CzwTA2s_13generic_array5implss1k_0pEINtB7_12GenericArraypINtNtCsdOIG378uWuC_7typenum4uint4UIntIB19_IB19_IB19_NtB1b_5UTermNtNtB1d_3bit2B1EB2a_ENtB2c_2B0EB2v_EEINtNtCskumHb0IaX0X_4core7convert5AsMutApjc_E6as_mutB7_
FN:131,_RNvXININtCsek14CzwTA2s_13generic_array5implss1l_0pEINtB7_12GenericArraypINtNtCsdOIG378uWuC_7typenum4uint4UIntIB19_IB19_IB19_NtB1b_5UTermNtNtB1d_3bit2B1EB2a_ENtB2c_2B0EB2a_EEINtNtCskumHb0IaX0X_4core7convert4FromApjd_E4fromB7_
FN:139,_RNvXININtCsek14CzwTA2s_13generic_array5implss1m_0pEApjd_INtNtCskumHb0IaX0X_4core7convert4FromINtB7_12GenericArraypINtNtCsdOIG378uWuC_7typenum4uint4UIntIB1P_IB1P_IB1P_NtB1R_5UTermNtNtB1T_3bit2B1EB2Q_ENtB2S_2B0EB2Q_EEE4fromB7_
FN:146,_RNvXININtCsek14CzwTA2s_13generic_array5implss1n_0pERINtB7_12GenericArraypINtNtCsdOIG378uWuC_7typenum4uint4UIntIB1a_IB1a_IB1a_NtB1c_5UTermNtNtB1e_3bit2B1EB2b_ENtB2d_2B0EB2b_EEINtNtCskumHb0IaX0X_4core7convert4FromRApjd_E4fromB7_
FN:153,_RNvXININtCsek14CzwTA2s_13generic_array5implss1o_0pEQINtB7_12GenericArraypINtNtCsdOIG378uWuC_7typenum4uint4UIntIB1a_IB1a_IB1a_NtB1c_5UTermNtNtB1e_3bit2B1EB2b_ENtB2d_2B0EB2b_EEINtNtCskumHb0IaX0X_4core7convert4FromQApjd_E4fromB7_
FN:168,_RNvXININtCsek14CzwTA2s_13generic_array5implss1p_0pEINtB7_12GenericArraypINtNtCsdOIG378uWuC_7typenum4uint4UIntIB19_IB19_IB19_NtB1b_5UTermNtNtB1d_3bit2B1EB2a_ENtB2c_2B0EB2a_EEINtNtCskumHb0IaX0X_4core7convert5AsRefApjd_E6as_refB7_
FN:175,_RNvXININtCsek14CzwTA2s_13generic_array5implss1q_0pEINtB7_12GenericArraypINtNtCsdOIG378uWuC_7typenum4uint4UIntIB19_IB19_IB19_NtB1b_5UTermNtNtB1d_3bit2B1EB2a_ENtB2c_2B0EB2a_EEINtNtCskumHb0IaX0X_4core7convert5AsMutApjd_E6as_mutB7_
FN:131,_RNvXININtCsek14CzwTA2s_13generic_array5implss1r_0pEINtB7_12GenericArraypINtNtCsdOIG378uWuC_7typenum4uint4UIntIB19_IB19_IB19_NtB1b_5UTermNtNtB1d_3bit2B1EB2a_EB2a_ENtB2c_2B0EEINtNtCskumHb0IaX0X_4core7convert4FromApje_E4fromB7_
FN:139,_RNvXININtCsek14CzwTA2s_13generic_array5implss1s_0pEApje_INtNtCskumHb0IaX0X_4core7convert4FromINtB7_12GenericArraypINtNtCsdOIG378uWuC_7typenum4uint4UIntIB1P_IB1P_IB1P_NtB1R_5UTermNtNtB1T_3bit2B1EB2Q_EB2Q_ENtB2S_2B0EEE4fromB7_
FN:146,_RNvXININtCsek14CzwTA2s_13generic_array5implss1t_0pERINtB7_12GenericArraypINtNtCsdOIG378uWuC_7typenum4uint4UIntIB1a_IB1a_IB1a_NtB1c_5UTermNtNtB1e_3bit2B1EB2b_EB2b_ENtB2d_2B0EEINtNtCskumHb0IaX0X_4core7convert4FromRApje_E4fromB7_
FN:153,_RNvXININtCsek14CzwTA2s_13generic_array5implss1u_0pEQINtB7_12GenericArraypINtNtCsdOIG378uWuC_7typenum4uint4UIntIB1a_IB1a_IB1a_NtB1c_5UTermNtNtB1e_3bit2B1EB2b_EB2b_ENtB2d_2B0EEINtNtCskumHb0IaX0X_4core7convert4FromQApje_E4fromB7_
FN:168,_RNvXININtCsek14CzwTA2s_13generic_array5implss1v_0pEINtB7_12GenericArraypINtNtCsdOIG378uWuC_7typenum4uint4UIntIB19_IB19_IB19_NtB1b_5UTermNtNtB1d_3bit2B1EB2a_EB2a_ENtB2c_2B0EEINtNtCskumHb0IaX0X_4core7convert5AsRefApje_E6as_refB7_
FN:175,_RNvXININtCsek14CzwTA2s_13generic_array5implss1w_0pEINtB7_12GenericArraypINtNtCsdOIG378uWuC_7typenum4uint4UIntIB19_IB19_IB19_NtB1b_5UTermNtNtB1d_3bit2B1EB2a_EB2a_ENtB2c_2B0EEINtNtCskumHb0IaX0X_4core7convert5AsMutApje_E6as_mutB7_
FN:131,_RNvXININtCsek14CzwTA2s_13generic_array5implss1x_0pEINtB7_12GenericArraypINtNtCsdOIG378uWuC_7typenum4uint4UIntIB19_IB19_IB19_NtB1b_5UTermNtNtB1d_3bit2B1EB2a_EB2a_EB2a_EEINtNtCskumHb0IaX0X_4core7convert4FromApjf_E4fromB7_
FN:139,_RNvXININtCsek14CzwTA2s_13generic_array5implss1y_0pEApjf_INtNtCskumHb0IaX0X_4core7convert4FromINtB7_12GenericArraypINtNtCsdOIG378uWuC_7typenum4uint4UIntIB1P_IB1P_IB1P_NtB1R_5UTermNtNtB1T_3bit2B1EB2Q_EB2Q_EB2Q_EEE4fromB7_
FN:146,_RNvXININtCsek14CzwTA2s_13generic_array5implss1z_0pERINtB7_12GenericArraypINtNtCsdOIG378uWuC_7typenum4uint4UIntIB1a_IB1a_IB1a_NtB1c_5UTermNtNtB1e_3bit2B1EB2b_EB2b_EB2b_EEINtNtCskumHb0IaX0X_4core7convert4FromRApjf_E4fromB7_
FN:175,_RNvXININtCsek14CzwTA2s_13generic_array5implss20_0pEINtB7_12GenericArraypINtNtCsdOIG378uWuC_7typenum4uint4UIntIB19_IB19_IB19_IB19_NtB1b_5UTermNtNtB1d_3bit2B1ENtB2h_2B0EB2v_EB2f_EB2f_EEINtNtCskumHb0IaX0X_4core7convert5AsMutApj13_E6as_mutB7_
FN:131,_RNvXININtCsek14CzwTA2s_13generic_array5implss21_0pEINtB7_12GenericArraypINtNtCsdOIG378uWuC_7typenum4uint4UIntIB19_IB19_IB19_IB19_NtB1b_5UTermNtNtB1d_3bit2B1ENtB2h_2B0EB2f_EB2v_EB2v_EEINtNtCskumHb0IaX0X_4core7convert4FromApj14_E4fromB7_
FN:139,_RNvXININtCsek14CzwTA2s_13generic_array5implss22_0pEApj14_INtNtCskumHb0IaX0X_4core7convert4FromINtB7_12GenericArraypINtNtCsdOIG378uWuC_7typenum4uint4UIntIB1Q_IB1Q_IB1Q_IB1Q_NtB1S_5UTermNtNtB1U_3bit2B1ENtB2Y_2B0EB2W_EB3c_EB3c_EEE4fromB7_
FN:146,_RNvXININtCsek14CzwTA2s_13generic_array5implss23_0pERINtB7_12GenericArraypINtNtCsdOIG378uWuC_7typenum4uint4UIntIB1a_IB1a_IB1a_IB1a_NtB1c_5UTermNtNtB1e_3bit2B1ENtB2i_2B0EB2g_EB2w_EB2w_EEINtNtCskumHb0IaX0X_4core7convert4FromRApj14_E4fromB7_
FN:153,_RNvXININtCsek14CzwTA2s_13generic_array5implss24_0pEQINtB7_12GenericArraypINtNtCsdOIG378uWuC_7typenum4uint4UIntIB1a_IB1a_IB1a_IB1a_NtB1c_5UTermNtNtB1e_3bit2B1ENtB2i_2B0EB2g_EB2w_EB2w_EEINtNtCskumHb0IaX0X_4core7convert4FromQApj14_E4fromB7_
FN:168,_RNvXININtCsek14CzwTA2s_13generic_array5implss25_0pEINtB7_12GenericArraypINtNtCsdOIG378uWuC_7typenum4uint4UIntIB19_IB19_IB19_IB19_NtB1b_5UTermNtNtB1d_3bit2B1ENtB2h_2B0EB2f_EB2v_EB2v_EEINtNtCskumHb0IaX0X_4core7convert5AsRefApj14_E6as_refB7_
FN:175,_RNvXININtCsek14CzwTA2s_13generic_array5implss26_0pEINtB7_12GenericArraypINtNtCsdOIG378uWuC_7typenum4uint4UIntIB19_IB19_IB19_IB19_NtB1b_5UTermNtNtB1d_3bit2B1ENtB2h_2B0EB2f_EB2v_EB2v_EEINtNtCskumHb0IaX0X_4core7convert5AsMutApj14_E6as_mutB7_
FN:131,_RNvXININtCsek14CzwTA2s_13generic_array5implss27_0pEINtB7_12GenericArraypINtNtCsdOIG378uWuC_7typenum4uint4UIntIB19_IB19_IB19_IB19_NtB1b_5UTermNtNtB1d_3bit2B1ENtB2h_2B0EB2f_EB2v_EB2f_EEINtNtCskumHb0IaX0X_4core7convert4FromApj15_E4fromB7_
FN:139,_RNvXININtCsek14CzwTA2s_13generic_array5implss28_0pEApj15_INtNtCskumHb0IaX0X_4core7convert4FromINtB7_12GenericArraypINtNtCsdOIG378uWuC_7typenum4uint4UIntIB1Q_IB1Q_IB1Q_IB1Q_NtB1S_5UTermNtNtB1U_3bit2B1ENtB2Y_2B0EB2W_EB3c_EB2W_EEE4fromB7_
FN:146,_RNvXININtCsek14CzwTA2s_13generic_array5implss29_0pERINtB7_12GenericArraypINtNtCsdOIG378uWuC_7typenum4uint4UIntIB1a_IB1a_IB1a_IB1a_NtB1c_5UTermNtNtB1e_3bit2B1ENtB2i_2B0EB2g_EB2w_EB2g_EEINtNtCskumHb0IaX0X_4core7convert4FromRApj15_E4fromB7_
FN:175,_RNvXININtCsek14CzwTA2s_13generic_array5implss2A_0pEINtB7_12GenericArraypINtNtCsdOIG378uWuC_7typenum4uint4UIntIB19_IB19_IB19_IB19_NtB1b_5UTermNtNtB1d_3bit2B1EB2f_ENtB2h_2B0EB2A_EB2f_EEINtNtCskumHb0IaX0X_4core7convert5AsMutApj19_E6as_mutB7_
FN:131,_RNvXININtCsek14CzwTA2s_13generic_array5implss2B_0pEINtB7_12GenericArraypINtNtCsdOIG378uWuC_7typenum4uint4UIntIB19_IB19_IB19_IB19_NtB1b_5UTermNtNtB1d_3bit2B1EB2f_ENtB2h_2B0EB2f_EB2A_EEINtNtCskumHb0IaX0X_4core7convert4FromApj1a_E4fromB7_
FN:139,_RNvXININtCsek14CzwTA2s_13generic_array5implss2C_0pEApj1a_INtNtCskumHb0IaX0X_4core7convert4FromINtB7_12GenericArraypINtNtCsdOIG378uWuC_7typenum4uint4UIntIB1Q_IB1Q_IB1Q_IB1Q_NtB1S_5UTermNtNtB1U_3bit2B1EB2W_ENtB2Y_2B0EB2W_EB3h_EEE4fromB7_
FN:146,_RNvXININtCsek14CzwTA2s_13generic_array5implss2D_0pERINtB7_12GenericArraypINtNtCsdOIG378uWuC_7typenum4uint4UIntIB1a_IB1a_IB1a_IB1a_NtB1c_5UTermNtNtB1e_3bit2B1EB2g_ENtB2i_2B0EB2g_EB2B_EEINtNtCskumHb0IaX0X_4core7convert4FromRApj1a_E4fromB7_
FN:153,_RNvXININtCsek14CzwTA2s_13generic_array5implss2E_0pEQINtB7_12GenericArraypINtNtCsdOIG378uWuC_7typenum4uint4UIntIB1a_IB1a_IB1a_IB1a_NtB1c_5UTermNtNtB1e_3bit2B1EB2g_ENtB2i_2B0EB2g_EB2B_EEINtNtCskumHb0IaX0X_4core7convert4FromQApj1a_E4fromB7_
FN:168,_RNvXININtCsek14CzwTA2s_13generic_array5implss2F_0pEINtB7_12GenericArraypINtNtCsdOIG378uWuC_7typenum4uint4UIntIB19_IB19_IB19_IB19_NtB1b_5UTermNtNtB1d_3bit2B1EB2f_ENtB2h_2B0EB2f_EB2A_EEINtNtCskumHb0IaX0X_4core7convert5AsRefApj1a_E6as_refB7_
FN:175,_RNvXININtCsek14CzwTA2s_13generic_array5implss2G_0pEINtB7_12GenericArraypINtNtCsdOIG378uWuC_7typenum4uint4UIntIB19_IB19_IB19_IB19_NtB1b_5UTermNtNtB1d_3bit2B1EB2f_ENtB2h_2B0EB2f_EB2A_EEINtNtCskumHb0IaX0X_4core7convert5AsMutApj1a_E6as_mutB7_
FN:131,_RNvXININtCsek14CzwTA2s_13generic_array5implss2H_0pEINtB7_12GenericArraypINtNtCsdOIG378uWuC_7typenum4uint4UIntIB19_IB19_IB19_IB19_NtB1b_5UTermNtNtB1d_3bit2B1EB2f_ENtB2h_2B0EB2f_EB2f_EEINtNtCskumHb0IaX0X_4core7convert4FromApj1b_E4fromB7_
FN:139,_RNvXININtCsek14CzwTA2s_13generic_array5implss2I_0pEApj1b_INtNtCskumHb0IaX0X_4core7convert4FromINtB7_12GenericArraypINtNtCsdOIG378uWuC_7typenum4uint4UIntIB1Q_IB1Q_IB1Q_IB1Q_NtB1S_5UTermNtNtB1U_3bit2B1EB2W_ENtB2Y_2B0EB2W_EB2W_EEE4fromB7_
FN:146,_RNvXININtCsek14CzwTA2s_13generic_array5implss2J_0pERINtB7_12GenericArraypINtNtCsdOIG378uWuC_7typenum4uint4UIntIB1a_IB1a_IB1a_IB1a_NtB1c_5UTermNtNtB1e_3bit2B1EB2g_ENtB2i_2B0EB2g_EB2g_EEINtNtCskumHb0IaX0X_4core7convert4FromRApj1b_E4fromB7_
FN:153,_RNvXININtCsek14CzwTA2s_13generic_array5implss2K_0pEQINtB7_12GenericArraypINtNtCsdOIG378uWuC_7typenum4uint4UIntIB1a_IB1a_IB1a_IB1a_NtB1c_5UTermNtNtB1e_3bit2B1EB2g_ENtB2i_2B0EB2g_EB2g_EEINtNtCskumHb0IaX0X_4core7convert4FromQApj1b_E4fromB7_
FN:168,_RNvXININtCsek14CzwTA2s_13generic_array5implss2L_0pEINtB7_12GenericArraypINtNtCsdOIG378uWuC_7typenum4uint4UIntIB19_IB19_IB19_IB19_NtB1b_5UTermNtNtB1d_3bit2B1EB2f_ENtB2h_2B0EB2f_EB2f_EEINtNtCskumHb0IaX0X_4core7convert5AsRefApj1b_E6as_refB7_
FN:175,_RNvXININtCsek14CzwTA2s_13generic_array5implss2M_0pEINtB7_12GenericArraypINtNtCsdOIG378uWuC_7typenum4uint4UIntIB19_IB19_IB19_IB19_NtB1b_5UTermNtNtB1d_3bit2B1EB2f_ENtB2h_2B0EB2f_EB2f_EEINtNtCskumHb0IaX0X_4core7convert5AsMutApj1b_E6as_mutB7_
FN:131,_RNvXININtCsek14CzwTA2s_13generic_array5implss2N_0pEINtB7_12GenericArraypINtNtCsdOIG378uWuC_7typenum4uint4UIntIB19_IB19_IB19_IB19_NtB1b_5UTermNtNtB1d_3bit2B1EB2f_EB2f_ENtB2h_2B0EB2F_EEINtNtCskumHb0IaX0X_4core7convert4FromApj1c_E4fromB7_
FN:139,_RNvXININtCsek14CzwTA2s_13generic_array5implss2O_0pEApj1c_INtNtCskumHb0IaX0X_4core7convert4FromINtB7_12GenericArraypINtNtCsdOIG378uWuC_7typenum4uint4UIntIB1Q_IB1Q_IB1Q_IB1Q_NtB1S_5UTermNtNtB1U_3bit2B1EB2W_EB2W_ENtB2Y_2B0EB3m_EEE4fromB7_
FN:146,_RNvXININtCsek14CzwTA2s_13generic_array5implss2P_0pERINtB7_12GenericArraypINtNtCsdOIG378uWuC_7typenum4uint4UIntIB1a_IB1a_IB1a_IB1a_NtB1c_5UTermNtNtB1e_3bit2B1EB2g_EB2g_ENtB2i_2B0EB2G_EEINtNtCskumHb0IaX0X_4core7convert4FromRApj1c_E4fromB7_
FN:153,_RNvXININtCsek14CzwTA2s_13generic_array5implss2Q_0pEQINtB7_12GenericArraypINtNtCsdOIG378uWuC_7typenum4uint4UIntIB1a_IB1a_IB1a_IB1a_NtB1c_5UTermNtNtB1e_3bit2B1EB2g_EB2g_ENtB2i_2B0EB2G_EEINtNtCskumHb0IaX0X_4core7convert4FromQApj1c_E4fromB7_
FN:168,_RNvXININtCsek14CzwTA2s_13generic_array5implss2R_0pEINtB7_12GenericArraypINtNtCsdOIG378uWuC_7typenum4uint4UIntIB19_IB19_IB19_IB19_NtB1b_5UTermNtNtB1d_3bit2B1EB2f_EB2f_ENtB2h_2B0EB2F_EEINtNtCskumHb0IaX0X_4core7convert5AsRefApj1c_E6as_refB7_
FN:175,_RNvXININtCsek14CzwTA2s_13generic_array5implss2S_0pEINtB7_12GenericArraypINtNtCsdOIG378uWuC_7typenum4uint4UIntIB19_IB19_IB19_IB19_NtB1b_5UTermNtNtB1d_3bit2B1EB2f_EB2f_ENtB2h_2B0EB2F_EEINtNtCskumHb0IaX0X_4core7convert5AsMutApj1c_E6as_mutB7_
FN:131,_RNvXININtCsek14CzwTA2s_13generic_array5implss2T_0pEINtB7_12GenericArraypINtNtCsdOIG378uWuC_7typenum4uint4UIntIB19_IB19_IB19_IB19_NtB1b_5UTermNtNtB1d_3bit2B1EB2f_EB2f_ENtB2h_2B0EB2f_EEINtNtCskumHb0IaX0X_4core7convert4FromApj1d_E4fromB7_
FN:139,_RNvXININtCsek14CzwTA2s_13generic_array5implss2U_0pEApj1d_INtNtCskumHb0IaX0X_4core7convert4FromINtB7_12GenericArraypINtNtCsdOIG378uWuC_7typenum4uint4UIntIB1Q_IB1Q_IB1Q_IB1Q_NtB1S_5UTermNtNtB1U_3bit2B1EB2W_EB2W_ENtB2Y_2B0EB2W_EEE4fromB7_
FN:146,_RNvXININtCsek14CzwTA2s_13generic_array5implss2V_0pERINtB7_12GenericArraypINtNtCsdOIG378uWuC_7typenum4uint4UIntIB1a_IB1a_IB1a_IB1a_NtB1c_5UTermNtNtB1e_3bit2B1EB2g_EB2g_ENtB2i_2B0EB2g_EEINtNtCskumHb0IaX0X_4core7convert4FromRApj1d_E4fromB7_
FN:153,_RNvXININtCsek14CzwTA2s_13generic_array5implss2W_0pEQINtB7_12GenericArraypINtNtCsdOIG378uWuC_7typenum4uint4UIntIB1a_IB1a_IB1a_IB1a_NtB1c_5UTermNtNtB1e_3bit2B1EB2g_EB2g_ENtB2i_2B0EB2g_EEINtNtCskumHb0IaX0X_4core7convert4FromQApj1d_E4fromB7_
FN:168,_RNvXININtCsek14CzwTA2s_13generic_array5implss2X_0pEINtB7_12GenericArraypINtNtCsdOIG378uWuC_7typenum4uint4UIntIB19_IB19_IB19_IB19_NtB1b_5UTermNtNtB1d_3bit2B1EB2f_EB2f_ENtB2h_2B0EB2f_EEINtNtCskumHb0IaX0X_4core7convert5AsRefApj1d_E6as_refB7_
FN:175,_RNvXININtCsek14CzwTA2s_13generic_array5implss2Y_0pEINtB7_12GenericArraypINtNtCsdOIG378uWuC_7typenum4uint4UIntIB19_IB19_IB19_IB19_NtB1b_5UTermNtNtB1d_3bit2B1EB2f_EB2f_ENtB2h_2B0EB2f_EEINtNtCskumHb0IaX0X_4core7convert5AsMutApj1d_E6as_mutB7_
FN:131,_RNvXININtCsek14CzwTA2s_13generic_array5implss2Z_0pEINtB7_12GenericArraypINtNtCsdOIG378uWuC_7typenum4uint4UIntIB19_IB19_IB19_IB19_NtB1b_5UTermNtNtB1d_3bit2B1EB2f_EB2f_EB2f_ENtB2h_2B0EEINtNtCskumHb0IaX0X_4core7convert4FromApj1e_E4fromB7_
FN:153,_RNvXININtCsek14CzwTA2s_13generic_array5implss2a_0pEQINtB7_12GenericArraypINtNtCsdOIG378uWuC_7typenum4uint4UIntIB1a_IB1a_IB1a_IB1a_NtB1c_5UTermNtNtB1e_3bit2B1ENtB2i_2B0EB2g_EB2w_EB2g_EEINtNtCskumHb0IaX0X_4core7convert4FromQApj15_E4fromB7_
FN:168,_RNvXININtCsek14CzwTA2s_13generic_array5implss2b_0pEINtB7_12GenericArraypINtNtCsdOIG378uWuC_7typenum4uint4UIntIB19_IB19_IB19_IB19_NtB1b_5UTermNtNtB1d_3bit2B1ENtB2h_2B0EB2f_EB2v_EB2f_EEINtNtCskumHb0IaX0X_4core7convert5AsRefApj15_E6as_refB7_
FN:175,_RNvXININtCsek14CzwTA2s_13generic_array5implss2c_0pEINtB7_12GenericArraypINtNtCsdOIG378uWuC_7typenum4uint4UIntIB19_IB19_IB19_IB19_NtB1b_5UTermNtNtB1d_3bit2B1ENtB2h_2B0EB2f_EB2v_EB2f_EEINtNtCskumHb0IaX0X_4core7convert5AsMutApj15_E6as_mutB7_
FN:131,_RNvXININtCsek14CzwTA2s_13generic_array5implss2d_0pEINtB7_12GenericArraypINtNtCsdOIG378uWuC_7typenum4uint4UIntIB19_IB19_IB19_IB19_NtB1b_5UTermNtNtB1d_3bit2B1ENtB2h_2B0EB2f_EB2f_EB2v_EEINtNtCskumHb0IaX0X_4core7convert4FromApj16_E4fromB7_
FN:139,_RNvXININtCsek14CzwTA2s_13generic_array5implss2e_0pEApj16_INtNtCskumHb0IaX0X_4core7convert4FromINtB7_12GenericArraypINtNtCsdOIG378uWuC_7typenum4uint4UIntIB1Q_IB1Q_IB1Q_IB1Q_NtB1S_5UTermNtNtB1U_3bit2B1ENtB2Y_2B0EB2W_EB2W_EB3c_EEE4fromB7_
FN:146,_RNvXININtCsek14CzwTA2s_13generic_array5implss2f_0pERINtB7_12GenericArraypINtNtCsdOIG378uWuC_7typenum4uint4UIntIB1a_IB1a_IB1a_IB1a_NtB1c_5UTermNtNtB1e_3bit2B1ENtB2i_2B0EB2g_EB2g_EB2w_EEINtNtCskumHb0IaX0X_4core7convert4FromRApj16_E4fromB7_
FN:153,_RNvXININtCsek14CzwTA2s_13generic_array5implss2g_0pEQINtB7_12GenericArraypINtNtCsdOIG378uWuC_7typenum4uint4UIntIB1a_IB1a_IB1a_IB1a_NtB1c_5UTermNtNtB1e_3bit2B1ENtB2i_2B0EB2g_EB2g_EB2w_EEINtNtCskumHb0IaX0X_4core7convert4FromQApj16_E4fromB7_
FN:168,_RNvXININtCsek14CzwTA2s_13generic_array5implss2h_0pEINtB7_12GenericArraypINtNtCsdOIG378uWuC_7typenum4uint4UIntIB19_IB19_IB19_IB19_NtB1b_5UTermNtNtB1d_3bit2B1ENtB2h_2B0EB2f_EB2f_EB2v_EEINtNtCskumHb0IaX0X_4core7convert5AsRefApj16_E6as_refB7_
FN:175,_RNvXININtCsek14CzwTA2s_13generic_array5implss2i_0pEINtB7_12GenericArraypINtNtCsdOIG378uWuC_7typenum4uint4UIntIB19_IB19_IB19_IB19_NtB1b_5UTermNtNtB1d_3bit2B1ENtB2h_2B0EB2f_EB2f_EB2v_EEINtNtCskumHb0IaX0X_4core7convert5AsMutApj16_E6as_mutB7_
FN:131,_RNvXININtCsek14CzwTA2s_13generic_array5implss2j_0pEINtB7_12GenericArraypINtNtCsdOIG378uWuC_7typenum4uint4UIntIB19_IB19_IB19_IB19_NtB1b_5UTermNtNtB1d_3bit2B1ENtB2h_2B0EB2f_EB2f_EB2f_EEINtNtCskumHb0IaX0X_4core7convert4FromApj17_E4fromB7_
FN:139,_RNvXININtCsek14CzwTA2s_13generic_array5implss2k_0pEApj17_INtNtCskumHb0IaX0X_4core7convert4FromINtB7_12GenericArraypINtNtCsdOIG378uWuC_7typenum4uint4UIntIB1Q_IB1Q_IB1Q_IB1Q_NtB1S_5UTermNtNtB1U_3bit2B1ENtB2Y_2B0EB2W_EB2W_EB2W_EEE4fromB7_
FN:146,_RNvXININtCsek14CzwTA2s_13generic_array5implss2l_0pERINtB7_12GenericArraypINtNtCsdOIG378uWuC_7typenum4uint4UIntIB1a_IB1a_IB1a_IB1a_NtB1c_5UTermNtNtB1e_3bit2B1ENtB2i_2B0EB2g_EB2g_EB2g_EEINtNtCskumHb0IaX0X_4core7convert4FromRApj17_E4fromB7_
FN:153,_RNvXININtCsek14CzwTA2s_13generic_array5implss2m_0pEQINtB7_12GenericArraypINtNtCsdOIG378uWuC_7typenum4uint4UIntIB1a_IB1a_IB1a_IB1a_NtB1c_5UTermNtNtB1e_3bit2B1ENtB2i_2B0EB2g_EB2g_EB2g_EEINtNtCskumHb0IaX0X_4core7convert4FromQApj17_E4fromB7_
FN:168,_RNvXININtCsek14CzwTA2s_13generic_array5implss2n_0pEINtB7_12GenericArraypINtNtCsdOIG378uWuC_7typenum4uint4UIntIB19_IB19_IB19_IB19_NtB1b_5UTermNtNtB1d_3bit2B1ENtB2h_2B0EB2f_EB2f_EB2f_EEINtNtCskumHb0IaX0X_4core7convert5AsRefApj17_E6as_refB7_
FN:175,_RNvXININtCsek14CzwTA2s_13generic_array5implss2o_0pEINtB7_12GenericArraypINtNtCsdOIG378uWuC_7typenum4uint4UIntIB19_IB19_IB19_IB19_NtB1b_5UTermNtNtB1d_3bit2B1ENtB2h_2B0EB2f_EB2f_EB2f_EEINtNtCskumHb0IaX0X_4core7convert5AsMutApj17_E6as_mutB7_
FN:131,_RNvXININtCsek14CzwTA2s_13generic_array5implss2p_0pEINtB7_12GenericArraypINtNtCsdOIG378uWuC_7typenum4uint4UIntIB19_IB19_IB19_IB19_NtB1b_5UTermNtNtB1d_3bit2B1EB2f_ENtB2h_2B0EB2A_EB2A_EEINtNtCskumHb0IaX0X_4core7convert4FromApj18_E4fromB7_
FN:139,_RNvXININtCsek14CzwTA2s_13generic_array5implss2q_0pEApj18_INtNtCskumHb0IaX0X_4core7convert4FromINtB7_12GenericArraypINtNtCsdOIG378uWuC_7typenum4uint4UIntIB1Q_IB1Q_IB1Q_IB1Q_NtB1S_5UTermNtNtB1U_3bit2B1EB2W_ENtB2Y_2B0EB3h_EB3h_EEE4fromB7_
FN:146,_RNvXININtCsek14CzwTA2s_13generic_array5implss2r_0pERINtB7_12GenericArraypINtNtCsdOIG378uWuC_7typenum4uint4UIntIB1a_IB1a_IB1a_IB1a_NtB1c_5UTermNtNtB1e_3bit2B1EB2g_ENtB2i_2B0EB2B_EB2B_EEINtNtCskumHb0IaX0X_4core7convert4FromRApj18_E4fromB7_
FN:153,_RNvXININtCsek14CzwTA2s_13generic_array5implss2s_0pEQINtB7_12GenericArraypINtNtCsdOIG378uWuC_7typenum4uint4UIntIB1a_IB1a_IB1a_IB1a_NtB1c_5UTermNtNtB1e_3bit2B1EB2g_ENtB2i_2B0EB2B_EB2B_EEINtNtCskumHb0IaX0X_4core7convert4FromQApj18_E4fromB7_
FN:168,_RNvXININtCsek14CzwTA2s_13generic_array5implss2t_0pEINtB7_12GenericArraypINtNtCsdOIG378uWuC_7typenum4uint4UIntIB19_IB19_IB19_IB19_NtB1b_5UTermNtNtB1d_3bit2B1EB2f_ENtB2h_2B0EB2A_EB2A_EEINtNtCskumHb0IaX0X_4core7convert5AsRefApj18_E6as_refB7_
FN:175,_RNvXININtCsek14CzwTA2s_13generic_array5implss2u_0pEINtB7_12GenericArraypINtNtCsdOIG378uWuC_7typenum4uint4UIntIB19_IB19_IB19_IB19_NtB1b_5UTermNtNtB1d_3bit2B1EB2f_ENtB2h_2B0EB2A_EB2A_EEINtNtCskumHb0IaX0X_4core7convert5AsMutApj18_E6as_mutB7_
FN:131,_RNvXININtCsek14CzwTA2s_13generic_array5implss2v_0pEINtB7_12GenericArraypINtNtCsdOIG378uWuC_7typenum4uint4UIntIB19_IB19_IB19_IB19_NtB1b_5UTermNtNtB1d_3bit2B1EB2f_ENtB2h_2B0EB2A_EB2f_EEINtNtCskumHb0IaX0X_4core7convert4FromApj19_E4fromB7_
FN:139,_RNvXININtCsek14CzwTA2s_13generic_array5implss2w_0pEApj19_INtNtCskumHb0IaX0X_4core7convert4FromINtB7_12GenericArraypINtNtCsdOIG378uWuC_7typenum4uint4UIntIB1Q_IB1Q_IB1Q_IB1Q_NtB1S_5UTermNtNtB1U_3bit2B1EB2W_ENtB2Y_2B0EB3h_EB2W_EEE4fromB7_
FN:146,_RNvXININtCsek14CzwTA2s_13generic_array5implss2x_0pERINtB7_12GenericArraypINtNtCsdOIG378uWuC_7typenum4uint4UIntIB1a_IB1a_IB1a_IB1a_NtB1c_5UTermNtNtB1e_3bit2B1EB2g_ENtB2i_2B0EB2B_EB2g_EEINtNtCskumHb0IaX0X_4core7convert4FromRApj19_E4fromB7_
FN:153,_RNvXININtCsek14CzwTA2s_13generic_array5implss2y_0pEQINtB7_12GenericArraypINtNtCsdOIG378uWuC_7typenum4uint4UIntIB1a_IB1a_IB1a_IB1a_NtB1c_5UTermNtNtB1e_3bit2B1EB2g_ENtB2i_2B0EB2B_EB2g_EEINtNtCskumHb0IaX0X_4core7convert4FromQApj19_E4fromB7_
FN:168,_RNvXININtCsek14CzwTA2s_13generic_array5implss2z_0pEINtB7_12GenericArraypINtNtCsdOIG378uWuC_7typenum4uint4UIntIB19_IB19_IB19_IB19_NtB1b_5UTermNtNtB1d_3bit2B1EB2f_ENtB2h_2B0EB2A_EB2f_EEINtNtCskumHb0IaX0X_4core7convert5AsRefApj19_E6as_refB7_
FN:139,_RNvXININtCsek14CzwTA2s_13generic_array5implss30_0pEApj1e_INtNtCskumHb0IaX0X_4core7convert4FromINtB7_12GenericArraypINtNtCsdOIG378uWuC_7typenum4uint4UIntIB1Q_IB1Q_IB1Q_IB1Q_NtB1S_5UTermNtNtB1U_3bit2B1EB2W_EB2W_EB2W_ENtB2Y_2B0EEE4fromB7_
FN:146,_RNvXININtCsek14CzwTA2s_13generic_array5implss31_0pERINtB7_12GenericArraypINtNtCsdOIG378uWuC_7typenum4uint4UIntIB1a_IB1a_IB1a_IB1a_NtB1c_5UTermNtNtB1e_3bit2B1EB2g_EB2g_EB2g_ENtB2i_2B0EEINtNtCskumHb0IaX0X_4core7convert4FromRApj1e_E4fromB7_
FN:153,_RNvXININtCsek14CzwTA2s_13generic_array5implss32_0pEQINtB7_12GenericArraypINtNtCsdOIG378uWuC_7typenum4uint4UIntIB1a_IB1a_IB1a_IB1a_NtB1c_5UTermNtNtB1e_3bit2B1EB2g_EB2g_EB2g_ENtB2i_2B0EEINtNtCskumHb0IaX0X_4core7convert4FromQApj1e_E4fromB7_
FN:168,_RNvXININtCsek14CzwTA2s_13generic_array5implss33_0pEINtB7_12GenericArraypINtNtCsdOIG378uWuC_7typenum4uint4UIntIB19_IB19_IB19_IB19_NtB1b_5UTermNtNtB1d_3bit2B1EB2f_EB2f_EB2f_ENtB2h_2B0EEINtNtCskumHb0IaX0X_4core7convert5AsRefApj1e_E6as_refB7_
FN:175,_RNvXININtCsek14CzwTA2s_13generic_array5implss34_0pEINtB7_12GenericArraypINtNtCsdOIG378uWuC_7typenum4uint4UIntIB19_IB19_IB19_IB19_NtB1b_5UTermNtNtB1d_3bit2B1EB2f_EB2f_EB2f_ENtB2h_2B0EEINtNtCskumHb0IaX0X_4core7convert5AsMutApj1e_E6as_mutB7_
FN:131,_RNvXININtCsek14CzwTA2s_13generic_array5implss35_0pEINtB7_12GenericArraypINtNtCsdOIG378uWuC_7typenum4uint4UIntIB19_IB19_IB19_IB19_NtB1b_5UTermNtNtB1d_3bit2B1EB2f_EB2f_EB2f_EB2f_EEINtNtCskumHb0IaX0X_4core7convert4FromApj1f_E4fromB7_
FN:139,_RNvXININtCsek14CzwTA2s_13generic_array5implss36_0pEApj1f_INtNtCskumHb0IaX0X_4core7convert4FromINtB7_12GenericArraypINtNtCsdOIG378uWuC_7typenum4uint4UIntIB1Q_IB1Q_IB1Q_IB1Q_NtB1S_5UTermNtNtB1U_3bit2B1EB2W_EB2W_EB2W_EB2W_EEE4fromB7_
FN:146,_RNvXININtCsek14CzwTA2s_13generic_array5implss37_0pERINtB7_12GenericArraypINtNtCsdOIG378uWuC_7typenum4uint4UIntIB1a_IB1a_IB1a_IB1a_NtB1c_5UTermNtNtB1e_3bit2B1EB2g_EB2g_EB2g_EB2g_EEINtNtCskumHb0IaX0X_4core7convert4FromRApj1f_E4fromB7_
FN:153,_RNvXININtCsek14CzwTA2s_13generic_array5implss38_0pEQINtB7_12GenericArraypINtNtCsdOIG378uWuC_7typenum4uint4UIntIB1a_IB1a_IB1a_IB1a_NtB1c_5UTermNtNtB1e_3bit2B1EB2g_EB2g_EB2g_EB2g_EEINtNtCskumHb0IaX0X_4core7convert4FromQApj1f_E4fromB7_
FN:168,_RNvXININtCsek14CzwTA2s_13generic_array5implss39_0pEINtB7_12GenericArraypINtNtCsdOIG378uWuC_7typenum4uint4UIntIB19_IB19_IB19_IB19_NtB1b_5UTermNtNtB1d_3bit2B1EB2f_EB2f_EB2f_EB2f_EEINtNtCskumHb0IaX0X_4core7convert5AsRefApj1f_E6as_refB7_
FN:139,_RNvXININtCsek14CzwTA2s_13generic_array5implss3A_0pEApj24_INtNtCskumHb0IaX0X_4core7convert4FromINtB7_12GenericArraypINtNtCsdOIG378uWuC_7typenum4uint4UIntIB1Q_IB1Q_IB1Q_IB1Q_IB1Q_NtB1S_5UTermNtNtB1U_3bit2B1ENtB33_2B0EB3h_EB31_EB3h_EB3h_EEE4fromB7_
FN:146,_RNvXININtCsek14CzwTA2s_13generic_array5implss3B_0pERINtB7_12GenericArraypINtNtCsdOIG378uWuC_7typenum4uint4UIntIB1a_IB1a_IB1a_IB1a_IB1a_NtB1c_5UTermNtNtB1e_3bit2B1ENtB2n_2B0EB2B_EB2l_EB2B_EB2B_EEINtNtCskumHb0IaX0X_4core7convert4FromRApj24_E4fromB7_
FN:153,_RNvXININtCsek14CzwTA2s_13generic_array5implss3C_0pEQINtB7_12GenericArraypINtNtCsdOIG378uWuC_7typenum4uint4UIntIB1a_IB1a_IB1a_IB1a_IB1a_NtB1c_5UTermNtNtB1e_3bit2B1ENtB2n_2B0EB2B_EB2l_EB2B_EB2B_EEINtNtCskumHb0IaX0X_4core7convert4FromQApj24_E4fromB7_
FN:168,_RNvXININtCsek14CzwTA2s_13generic_array5implss3D_0pEINtB7_12GenericArraypINtNtCsdOIG378uWuC_7typenum4uint4UIntIB19_IB19_IB19_IB19_IB19_NtB1b_5UTermNtNtB1d_3bit2B1ENtB2m_2B0EB2A_EB2k_EB2A_EB2A_EEINtNtCskumHb0IaX0X_4core7convert5AsRefApj24_E6as_refB7_
FN:175,_RNvXININtCsek14CzwTA2s_13generic_array5implss3E_0pEINtB7_12GenericArraypINtNtCsdOIG378uWuC_7typenum4uint4UIntIB19_IB19_IB19_IB19_IB19_NtB1b_5UTermNtNtB1d_3bit2B1ENtB2m_2B0EB2A_EB2k_EB2A_EB2A_EEINtNtCskumHb0IaX0X_4core7convert5AsMutApj24_E6as_mutB7_
FN:131,_RNvXININtCsek14CzwTA2s_13generic_array5implss3F_0pEINtB7_12GenericArraypINtNtCsdOIG378uWuC_7typenum4uint4UIntIB19_IB19_IB19_IB19_IB19_NtB1b_5UTermNtNtB1d_3bit2B1ENtB2m_2B0EB2A_EB2k_EB2A_EB2k_EEINtNtCskumHb0IaX0X_4core7convert4FromApj25_E4fromB7_
FN:139,_RNvXININtCsek14CzwTA2s_13generic_array5implss3G_0pEApj25_INtNtCskumHb0IaX0X_4core7convert4FromINtB7_12GenericArraypINtNtCsdOIG378uWuC_7typenum4uint4UIntIB1Q_IB1Q_IB1Q_IB1Q_IB1Q_NtB1S_5UTermNtNtB1U_3bit2B1ENtB33_2B0EB3h_EB31_EB3h_EB31_EEE4fromB7_
FN:146,_RNvXININtCsek14CzwTA2s_13generic_array5implss3H_0pERINtB7_12GenericArraypINtNtCsdOIG378uWuC_7typenum4uint4UIntIB1a_IB1a_IB1a_IB1a_IB1a_NtB1c_5UTermNtNtB1e_3bit2B1ENtB2n_2B0EB2B_EB2l_EB2B_EB2l_EEINtNtCskumHb0IaX0X_4core7convert4FromRApj25_E4fromB7_
FN:153,_RNvXININtCsek14CzwTA2s_13generic_array5implss3I_0pEQINtB7_12GenericArraypINtNtCsdOIG378uWuC_7typenum4uint4UIntIB1a_IB1a_IB1a_IB1a_IB1a_NtB1c_5UTermNtNtB1e_3bit2B1ENtB2n_2B0EB2B_EB2l_EB2B_EB2l_EEINtNtCskumHb0IaX0X_4core7convert4FromQApj25_E4fromB7_
FN:168,_RNvXININtCsek14CzwTA2s_13generic_array5implss3J_0pEINtB7_12GenericArraypINtNtCsdOIG378uWuC_7typenum4uint4UIntIB19_IB19_IB19_IB19_IB19_NtB1b_5UTermNtNtB1d_3bit2B1ENtB2m_2B0EB2A_EB2k_EB2A_EB2k_EEINtNtCskumHb0IaX0X_4core7convert5AsRefApj25_E6as_refB7_
FN:175,_RNvXININtCsek14CzwTA2s_13generic_array5implss3K_0pEINtB7_12GenericArraypINtNtCsdOIG378uWuC_7typenum4uint4UIntIB19_IB19_IB19_IB19_IB19_NtB1b_5UTermNtNtB1d_3bit2B1ENtB2m_2B0EB2A_EB2k_EB2A_EB2k_EEINtNtCskumHb0IaX0X_4core7convert5AsMutApj25_E6as_mutB7_
FN:131,_RNvXININtCsek14CzwTA2s_13generic_array5implss3L_0pEINtB7_12GenericArraypINtNtCsdOIG378uWuC_7typenum4uint4UIntIB19_IB19_IB19_IB19_IB19_NtB1b_5UTermNtNtB1d_3bit2B1ENtB2m_2B0EB2A_EB2k_EB2k_EB2A_EEINtNtCskumHb0IaX0X_4core7convert4FromApj26_E4fromB7_
FN:139,_RNvXININtCsek14CzwTA2s_13generic_array5implss3M_0pEApj26_INtNtCskumHb0IaX0X_4core7convert4FromINtB7_12GenericArraypINtNtCsdOIG378uWuC_7typenum4uint4UIntIB1Q_IB1Q_IB1Q_IB1Q_IB1Q_NtB1S_5UTermNtNtB1U_3bit2B1ENtB33_2B0EB3h_EB31_EB31_EB3h_EEE4fromB7_
FN:146,_RNvXININtCsek14CzwTA2s_13generic_array5implss3N_0pERINtB7_12GenericArraypINtNtCsdOIG378uWuC_7typenum4uint4UIntIB1a_IB1a_IB1a_IB1a_IB1a_NtB1c_5UTermNtNtB1e_3bit2B1ENtB2n_2B0EB2B_EB2l_EB2l_EB2B_EEINtNtCskumHb0IaX0X_4core7convert4FromRApj26_E4fromB7_
FN:153,_RNvXININtCsek14CzwTA2s_13generic_array5implss3O_0pEQINtB7_12GenericArraypINtNtCsdOIG378uWuC_7typenum4uint4UIntIB1a_IB1a_IB1a_IB1a_IB1a_NtB1c_5UTermNtNtB1e_3bit2B1ENtB2n_2B0EB2B_EB2l_EB2l_EB2B_EEINtNtCskumHb0IaX0X_4core7convert4FromQApj26_E4fromB7_
FN:168,_RNvXININtCsek14CzwTA2s_13generic_array5implss3P_0pEINtB7_12GenericArraypINtNtCsdOIG378uWuC_7typenum4uint4UIntIB19_IB19_IB19_IB19_IB19_NtB1b_5UTermNtNtB1d_3bit2B1ENtB2m_2B0EB2A_EB2k_EB2k_EB2A_EEINtNtCskumHb0IaX0X_4core7convert5AsRefApj26_E6as_refB7_
FN:175,_RNvXININtCsek14CzwTA2s_13generic_array5implss3Q_0pEINtB7_12GenericArraypINtNtCsdOIG378uWuC_7typenum4uint4UIntIB19_IB19_IB19_IB19_IB19_NtB1b_5UTermNtNtB1d_3bit2B1ENtB2m_2B0EB2A_EB2k_EB2k_EB2A_EEINtNtCskumHb0IaX0X_4core7convert5AsMutApj26_E6as_mutB7_
FN:131,_RNvXININtCsek14CzwTA2s_13generic_array5implss3R_0pEINtB7_12GenericArraypINtNtCsdOIG378uWuC_7typenum4uint4UIntIB19_IB19_IB19_IB19_IB19_NtB1b_5UTermNtNtB1d_3bit2B1ENtB2m_2B0EB2A_EB2k_EB2k_EB2k_EEINtNtCskumHb0IaX0X_4core7convert4FromApj27_E4fromB7_
FN:139,_RNvXININtCsek14CzwTA2s_13generic_array5implss3S_0pEApj27_INtNtCskumHb0IaX0X_4core7convert4FromINtB7_12GenericArraypINtNtCsdOIG378uWuC_7typenum4uint4UIntIB1Q_IB1Q_IB1Q_IB1Q_IB1Q_NtB1S_5UTermNtNtB1U_3bit2B1ENtB33_2B0EB3h_EB31_EB31_EB31_EEE4fromB7_
FN:146,_RNvXININtCsek14CzwTA2s_13generic_array5implss3T_0pERINtB7_12GenericArraypINtNtCsdOIG378uWuC_7typenum4uint4UIntIB1a_IB1a_IB1a_IB1a_IB1a_NtB1c_5UTermNtNtB1e_3bit2B1ENtB2n_2B0EB2B_EB2l_EB2l_EB2l_EEINtNtCskumHb0IaX0X_4core7convert4FromRApj27_E4fromB7_
FN:153,_RNvXININtCsek14CzwTA2s_13generic_array5implss3U_0pEQINtB7_12GenericArraypINtNtCsdOIG378uWuC_7typenum4uint4UIntIB1a_IB1a_IB1a_IB1a_IB1a_NtB1c_5UTermNtNtB1e_3bit2B1ENtB2n_2B0EB2B_EB2l_EB2l_EB2l_EEINtNtCskumHb0IaX0X_4core7convert4FromQApj27_E4fromB7_
FN:168,_RNvXININtCsek14CzwTA2s_13generic_array5implss3V_0pEINtB7_12GenericArraypINtNtCsdOIG378uWuC_7typenum4uint4UIntIB19_IB19_IB19_IB19_IB19_NtB1b_5UTermNtNtB1d_3bit2B1ENtB2m_2B0EB2A_EB2k_EB2k_EB2k_EEINtNtCskumHb0IaX0X_4core7convert5AsRefApj27_E6as_refB7_
FN:175,_RNvXININtCsek14CzwTA2s_13generic_array5implss3W_0pEINtB7_12GenericArraypINtNtCsdOIG378uWuC_7typenum4uint4UIntIB19_IB19_IB19_IB19_IB19_NtB1b_5UTermNtNtB1d_3bit2B1ENtB2m_2B0EB2A_EB2k_EB2k_EB2k_EEINtNtCskumHb0IaX0X_4core7convert5AsMutApj27_E6as_mutB7_
FN:131,_RNvXININtCsek14CzwTA2s_13generic_array5implss3X_0pEINtB7_12GenericArraypINtNtCsdOIG378uWuC_7typenum4uint4UIntIB19_IB19_IB19_IB19_IB19_NtB1b_5UTermNtNtB1d_3bit2B1ENtB2m_2B0EB2k_EB2A_EB2A_EB2A_EEINtNtCskumHb0IaX0X_4core7convert4FromApj28_E4fromB7_
FN:139,_RNvXININtCsek14CzwTA2s_13generic_array5implss3Y_0pEApj28_INtNtCskumHb0IaX0X_4core7convert4FromINtB7_12GenericArraypINtNtCsdOIG378uWuC_7typenum4uint4UIntIB1Q_IB1Q_IB1Q_IB1Q_IB1Q_NtB1S_5UTermNtNtB1U_3bit2B1ENtB33_2B0EB31_EB3h_EB3h_EB3h_EEE4fromB7_
FN:146,_RNvXININtCsek14CzwTA2s_13generic_array5implss3Z_0pERINtB7_12GenericArraypINtNtCsdOIG378uWuC_7typenum4uint4UIntIB1a_IB1a_IB1a_IB1a_IB1a_NtB1c_5UTermNtNtB1e_3bit2B1ENtB2n_2B0EB2l_EB2B_EB2B_EB2B_EEINtNtCskumHb0IaX0X_4core7convert4FromRApj28_E4fromB7_
FN:51,_RNvXININtCsek14CzwTA2s_13generic_array5implss3_0ppEINtB7_12GenericArrayppENtNtCskumHb0IaX0X_4core3cmp10PartialOrd11partial_cmpB7_
FN:175,_RNvXININtCsek14CzwTA2s_13generic_array5implss3a_0pEINtB7_12GenericArraypINtNtCsdOIG378uWuC_7typenum4uint4UIntIB19_IB19_IB19_IB19_NtB1b_5UTermNtNtB1d_3bit2B1EB2f_EB2f_EB2f_EB2f_EEINtNtCskumHb0IaX0X_4core7convert5AsMutApj1f_E6as_mutB7_
FN:131,_RNvXININtCsek14CzwTA2s_13generic_array5implss3b_0pEINtB7_12GenericArraypINtNtCsdOIG378uWuC_7typenum4uint4UIntIB19_IB19_IB19_IB19_IB19_NtB1b_5UTermNtNtB1d_3bit2B1ENtB2m_2B0EB2A_EB2A_EB2A_EB2A_EEINtNtCskumHb0IaX0X_4core7convert4FromApj20_E4fromB7_
FN:139,_RNvXININtCsek14CzwTA2s_13generic_array5implss3c_0pEApj20_INtNtCskumHb0IaX0X_4core7convert4FromINtB7_12GenericArraypINtNtCsdOIG378uWuC_7typenum4uint4UIntIB1Q_IB1Q_IB1Q_IB1Q_IB1Q_NtB1S_5UTermNtNtB1U_3bit2B1ENtB33_2B0EB3h_EB3h_EB3h_EB3h_EEE4fromB7_
FN:146,_RNvXININtCsek14CzwTA2s_13generic_array5implss3d_0pERINtB7_12GenericArraypINtNtCsdOIG378uWuC_7typenum4uint4UIntIB1a_IB1a_IB1a_IB1a_IB1a_NtB1c_5UTermNtNtB1e_3bit2B1ENtB2n_2B0EB2B_EB2B_EB2B_EB2B_EEINtNtCskumHb0IaX0X_4core7convert4FromRApj20_E4fromB7_
FN:153,_RNvXININtCsek14CzwTA2s_13generic_array5implss3e_0pEQINtB7_12GenericArraypINtNtCsdOIG378uWuC_7typenum4uint4UIntIB1a_IB1a_IB1a_IB1a_IB1a_NtB1c_5UTermNtNtB1e_3bit2B1ENtB2n_2B0EB2B_EB2B_EB2B_EB2B_EEINtNtCskumHb0IaX0X_4core7convert4FromQApj20_E4fromB7_
FN:168,_RNvXININtCsek14CzwTA2s_13generic_array5implss3f_0pEINtB7_12GenericArraypINtNtCsdOIG378uWuC_7typenum4uint4UIntIB19_IB19_IB19_IB19_IB19_NtB1b_5UTermNtNtB1d_3bit2B1ENtB2m_2B0EB2A_EB2A_EB2A_EB2A_EEINtNtCskumHb0IaX0X_4core7convert5AsRefApj20_E6as_refB7_
FN:175,_RNvXININtCsek14CzwTA2s_13generic_array5implss3g_0pEINtB7_12GenericArraypINtNtCsdOIG378uWuC_7typenum4uint4UIntIB19_IB19_IB19_IB19_IB19_NtB1b_5UTermNtNtB1d_3bit2B1ENtB2m_2B0EB2A_EB2A_EB2A_EB2A_EEINtNtCskumHb0IaX0X_4core7convert5AsMutApj20_E6as_mutB7_
FN:131,_RNvXININtCsek14CzwTA2s_13generic_array5implss3h_0pEINtB7_12GenericArraypINtNtCsdOIG378uWuC_7typenum4uint4UIntIB19_IB19_IB19_IB19_IB19_NtB1b_5UTermNtNtB1d_3bit2B1ENtB2m_2B0EB2A_EB2A_EB2A_EB2k_EEINtNtCskumHb0IaX0X_4core7convert4FromApj21_E4fromB7_
FN:139,_RNvXININtCsek14CzwTA2s_13generic_array5implss3i_0pEApj21_INtNtCskumHb0IaX0X_4core7convert4FromINtB7_12GenericArraypINtNtCsdOIG378uWuC_7typenum4uint4UIntIB1Q_IB1Q_IB1Q_IB1Q_IB1Q_NtB1S_5UTermNtNtB1U_3bit2B1ENtB33_2B0EB3h_EB3h_EB3h_EB31_EEE4fromB7_
FN:146,_RNvXININtCsek14CzwTA2s_13generic_array5implss3j_0pERINtB7_12GenericArraypINtNtCsdOIG378uWuC_7typenum4uint4UIntIB1a_IB1a_IB1a_IB1a_IB1a_NtB1c_5UTermNtNtB1e_3bit2B1ENtB2n_2B0EB2B_EB2B_EB2B_EB2l_EEINtNtCskumHb0IaX0X_4core7convert4FromRApj21_E4fromB7_
FN:153,_RNvXININtCsek14CzwTA2s_13generic_array5implss3k_0pEQINtB7_12GenericArraypINtNtCsdOIG378uWuC_7typenum4uint4UIntIB1a_IB1a_IB1a_IB1a_IB1a_NtB1c_5UTermNtNtB1e_3bit2B1ENtB2n_2B0EB2B_EB2B_EB2B_EB2l_EEINtNtCskumHb0IaX0X_4core7convert4FromQApj21_E4fromB7_
FN:168,_RNvXININtCsek14CzwTA2s_13generic_array5implss3l_0pEINtB7_12GenericArraypINtNtCsdOIG378uWuC_7typenum4uint4UIntIB19_IB19_IB19_IB19_IB19_NtB1b_5UTermNtNtB1d_3bit2B1ENtB2m_2B0EB2A_EB2A_EB2A_EB2k_EEINtNtCskumHb0IaX0X_4core7convert5AsRefApj21_E6as_refB7_
FN:175,_RNvXININtCsek14CzwTA2s_13generic_array5implss3m_0pEINtB7_12GenericArraypINtNtCsdOIG378uWuC_7typenum4uint4UIntIB19_IB19_IB19_IB19_IB19_NtB1b_5UTermNtNtB1d_3bit2B1ENtB2m_2B0EB2A_EB2A_EB2A_EB2k_EEINtNtCskumHb0IaX0X_4core7convert5AsMutApj21_E6as_mutB7_
FN:131,_RNvXININtCsek14CzwTA2s_13generic_array5implss3n_0pEINtB7_12GenericArraypINtNtCsdOIG378uWuC_7typenum4uint4UIntIB19_IB19_IB19_IB19_IB19_NtB1b_5UTermNtNtB1d_3bit2B1ENtB2m_2B0EB2A_EB2A_EB2k_EB2A_EEINtNtCskumHb0IaX0X_4core7convert4FromApj22_E4fromB7_
FN:139,_RNvXININtCsek14CzwTA2s_13generic_array5implss3o_0pEApj22_INtNtCskumHb0IaX0X_4core7convert4FromINtB7_12GenericArraypINtNtCsdOIG378uWuC_7typenum4uint4UIntIB1Q_IB1Q_IB1Q_IB1Q_IB1Q_NtB1S_5UTermNtNtB1U_3bit2B1ENtB33_2B0EB3h_EB3h_EB31_EB3h_EEE4fromB7_
FN:146,_RNvXININtCsek14CzwTA2s_13generic_array5implss3p_0pERINtB7_12GenericArraypINtNtCsdOIG378uWuC_7typenum4uint4UIntIB1a_IB1a_IB1a_IB1a_IB1a_NtB1c_5UTermNtNtB1e_3bit2B1ENtB2n_2B0EB2B_EB2B_EB2l_EB2B_EEINtNtCskumHb0IaX0X_4core7convert4FromRApj22_E4fromB7_
FN:153,_RNvXININtCsek14CzwTA2s_13generic_array5implss3q_0pEQINtB7_12GenericArraypINtNtCsdOIG378uWuC_7typenum4uint4UIntIB1a_IB1a_IB1a_IB1a_IB1a_NtB1c_5UTermNtNtB1e_3bit2B1ENtB2n_2B0EB2B_EB2B_EB2l_EB2B_EEINtNtCskumHb0IaX0X_4core7convert4FromQApj22_E4fromB7_
FN:168,_RNvXININtCsek14CzwTA2s_13generic_array5implss3r_0pEINtB7_12GenericArraypINtNtCsdOIG378uWuC_7typenum4uint4UIntIB19_IB19_IB19_IB19_IB19_NtB1b_5UTermNtNtB1d_3bit2B1ENtB2m_2B0EB2A_EB2A_EB2k_EB2A_EEINtNtCskumHb0IaX0X_4core7convert5AsRefApj22_E6as_refB7_
FN:175,_RNvXININtCsek14CzwTA2s_13generic_array5implss3s_0pEINtB7_12GenericArraypINtNtCsdOIG378uWuC_7typenum4uint4UIntIB19_IB19_IB19_IB19_IB19_NtB1b_5UTermNtNtB1d_3bit2B1ENtB2m_2B0EB2A_EB2A_EB2k_EB2A_EEINtNtCskumHb0IaX0X_4core7convert5AsMutApj22_E6as_mutB7_
FN:131,_RNvXININtCsek14CzwTA2s_13generic_array5implss3t_0pEINtB7_12GenericArraypINtNtCsdOIG378uWuC_7typenum4uint4UIntIB19_IB19_IB19_IB19_IB19_NtB1b_5UTermNtNtB1d_3bit2B1ENtB2m_2B0EB2A_EB2A_EB2k_EB2k_EEINtNtCskumHb0IaX0X_4core7convert4FromApj23_E4fromB7_
FN:139,_RNvXININtCsek14CzwTA2s_13generic_array5implss3u_0pEApj23_INtNtCskumHb0IaX0X_4core7convert4FromINtB7_12GenericArraypINtNtCsdOIG378uWuC_7typenum4uint4UIntIB1Q_IB1Q_IB1Q_IB1Q_IB1Q_NtB1S_5UTermNtNtB1U_3bit2B1ENtB33_2B0EB3h_EB3h_EB31_EB31_EEE4fromB7_
FN:146,_RNvXININtCsek14CzwTA2s_13generic_array5implss3v_0pERINtB7_12GenericArraypINtNtCsdOIG378uWuC_7typenum4uint4UIntIB1a_IB1a_IB1a_IB1a_IB1a_NtB1c_5UTermNtNtB1e_3bit2B1ENtB2n_2B0EB2B_EB2B_EB2l_EB2l_EEINtNtCskumHb0IaX0X_4core7convert4FromRApj23_E4fromB7_
FN:153,_RNvXININtCsek14CzwTA2s_13generic_array5implss3w_0pEQINtB7_12GenericArraypINtNtCsdOIG378uWuC_7typenum4uint4UIntIB1a_IB1a_IB1a_IB1a_IB1a_NtB1c_5UTermNtNtB1e_3bit2B1ENtB2n_2B0EB2B_EB2B_EB2l_EB2l_EEINtNtCskumHb0IaX0X_4core7convert4FromQApj23_E4fromB7_
FN:168,_RNvXININtCsek14CzwTA2s_13generic_array5implss3x_0pEINtB7_12GenericArraypINtNtCsdOIG378uWuC_7typenum4uint4UIntIB19_IB19_IB19_IB19_IB19_NtB1b_5UTermNtNtB1d_3bit2B1ENtB2m_2B0EB2A_EB2A_EB2k_EB2k_EEINtNtCskumHb0IaX0X_4core7convert5AsRefApj23_E6as_refB7_
FN:175,_RNvXININtCsek14CzwTA2s_13generic_array5implss3y_0pEINtB7_12GenericArraypINtNtCsdOIG378uWuC_7typenum4uint4UIntIB19_IB19_IB19_IB19_IB19_NtB1b_5UTermNtNtB1d_3bit2B1ENtB2m_2B0EB2A_EB2A_EB2k_EB2k_EEINtNtCskumHb0IaX0X_4core7convert5AsMutApj23_E6as_mutB7_
FN:131,_RNvXININtCsek14CzwTA2s_13generic_array5implss3z_0pEINtB7_12GenericArraypINtNtCsdOIG378uWuC_7typenum4uint4UIntIB19_IB19_IB19_IB19_IB19_NtB1b_5UTermNtNtB1d_3bit2B1ENtB2m_2B0EB2A_EB2k_EB2A_EB2A_EEINtNtCskumHb0IaX0X_4core7convert4FromApj24_E4fromB7_
FN:153,_RNvXININtCsek14CzwTA2s_13generic_array5implss40_0pEQINtB7_12GenericArraypINtNtCsdOIG378uWuC_7typenum4uint4UIntIB1a_IB1a_IB1a_IB1a_IB1a_NtB1c_5UTermNtNtB1e_3bit2B1ENtB2n_2B0EB2l_EB2B_EB2B_EB2B_EEINtNtCskumHb0IaX0X_4core7convert4FromQApj28_E4fromB7_
FN:168,_RNvXININtCsek14CzwTA2s_13generic_array5implss41_0pEINtB7_12GenericArraypINtNtCsdOIG378uWuC_7typenum4uint4UIntIB19_IB19_IB19_IB19_IB19_NtB1b_5UTermNtNtB1d_3bit2B1ENtB2m_2B0EB2k_EB2A_EB2A_EB2A_EEINtNtCskumHb0IaX0X_4core7convert5AsRefApj28_E6as_refB7_
FN:175,_RNvXININtCsek14CzwTA2s_13generic_array5implss42_0pEINtB7_12GenericArraypINtNtCsdOIG378uWuC_7typenum4uint4UIntIB19_IB19_IB19_IB19_IB19_NtB1b_5UTermNtNtB1d_3bit2B1ENtB2m_2B0EB2k_EB2A_EB2A_EB2A_EEINtNtCskumHb0IaX0X_4core7convert5AsMutApj28_E6as_mutB7_
FN:131,_RNvXININtCsek14CzwTA2s_13generic_array5implss43_0pEINtB7_12GenericArraypINtNtCsdOIG378uWuC_7typenum4uint4UIntIB19_IB19_IB19_IB19_IB19_NtB1b_5UTermNtNtB1d_3bit2B1ENtB2m_2B0EB2k_EB2A_EB2A_EB2k_EEINtNtCskumHb0IaX0X_4core7convert4FromApj29_E4fromB7_
FN:139,_RNvXININtCsek14CzwTA2s_13generic_array5implss44_0pEApj29_INtNtCskumHb0IaX0X_4core7convert4FromINtB7_12GenericArraypINtNtCsdOIG378uWuC_7typenum4uint4UIntIB1Q_IB1Q_IB1Q_IB1Q_IB1Q_NtB1S_5UTermNtNtB1U_3bit2B1ENtB33_2B0EB31_EB3h_EB3h_EB31_EEE4fromB7_
FN:146,_RNvXININtCsek14CzwTA2s_13generic_array5implss45_0pERINtB7_12GenericArraypINtNtCsdOIG378uWuC_7typenum4uint4UIntIB1a_IB1a_IB1a_IB1a_IB1a_NtB1c_5UTermNtNtB1e_3bit2B1ENtB2n_2B0EB2l_EB2B_EB2B_EB2l_EEINtNtCskumHb0IaX0X_4core7convert4FromRApj29_E4fromB7_
FN:153,_RNvXININtCsek14CzwTA2s_13generic_array5implss46_0pEQINtB7_12GenericArraypINtNtCsdOIG378uWuC_7typenum4uint4UIntIB1a_IB1a_IB1a_IB1a_IB1a_NtB1c_5UTermNtNtB1e_3bit2B1ENtB2n_2B0EB2l_EB2B_EB2B_EB2l_EEINtNtCskumHb0IaX0X_4core7convert4FromQApj29_E4fromB7_
FN:168,_RNvXININtCsek14CzwTA2s_13generic_array5implss47_0pEINtB7_12GenericArraypINtNtCsdOIG378uWuC_7typenum4uint4UIntIB19_IB19_IB19_IB19_IB19_NtB1b_5UTermNtNtB1d_3bit2B1ENtB2m_2B0EB2k_EB2A_EB2A_EB2k_EEINtNtCskumHb0IaX0X_4core7convert5AsRefApj29_E6as_refB7_
FN:175,_RNvXININtCsek14CzwTA2s_13generic_array5implss48_0pEINtB7_12GenericArraypINtNtCsdOIG378uWuC_7typenum4uint4UIntIB19_IB19_IB19_IB19_IB19_NtB1b_5UTermNtNtB1d_3bit2B1ENtB2m_2B0EB2k_EB2A_EB2A_EB2k_EEINtNtCskumHb0IaX0X_4core7convert5AsMutApj29_E6as_mutB7_
FN:131,_RNvXININtCsek14CzwTA2s_13generic_array5implss49_0pEINtB7_12GenericArraypINtNtCsdOIG378uWuC_7typenum4uint4UIntIB19_IB19_IB19_IB19_IB19_NtB1b_5UTermNtNtB1d_3bit2B1ENtB2m_2B0EB2k_EB2A_EB2k_EB2A_EEINtNtCskumHb0IaX0X_4core7convert4FromApj2a_E4fromB7_
FN:153,_RNvXININtCsek14CzwTA2s_13generic_array5implss4A_0pEQINtB7_12GenericArraypINtNtCsdOIG378uWuC_7typenum4uint4UIntIB1a_IB1a_IB1a_IB1a_IB1a_NtB1c_5UTermNtNtB1e_3bit2B1ENtB2n_2B0EB2l_EB2l_EB2l_EB2B_EEINtNtCskumHb0IaX0X_4core7convert4FromQApj2e_E4fromB7_
FN:168,_RNvXININtCsek14CzwTA2s_13generic_array5implss4B_0pEINtB7_12GenericArraypINtNtCsdOIG378uWuC_7typenum4uint4UIntIB19_IB19_IB19_IB19_IB19_NtB1b_5UTermNtNtB1d_3bit2B1ENtB2m_2B0EB2k_EB2k_EB2k_EB2A_EEINtNtCskumHb0IaX0X_4core7convert5AsRefApj2e_E6as_refB7_
FN:175,_RNvXININtCsek14CzwTA2s_13generic_array5implss4C_0pEINtB7_12GenericArraypINtNtCsdOIG378uWuC_7typenum4uint4UIntIB19_IB19_IB19_IB19_IB19_NtB1b_5UTermNtNtB1d_3bit2B1ENtB2m_2B0EB2k_EB2k_EB2k_EB2A_EEINtNtCskumHb0IaX0X_4core7convert5AsMutApj2e_E6as_mutB7_
FN:131,_RNvXININtCsek14CzwTA2s_13generic_array5implss4D_0pEINtB7_12GenericArraypINtNtCsdOIG378uWuC_7typenum4uint4UIntIB19_IB19_IB19_IB19_IB19_NtB1b_5UTermNtNtB1d_3bit2B1ENtB2m_2B0EB2k_EB2k_EB2k_EB2k_EEINtNtCskumHb0IaX0X_4core7convert4FromApj2f_E4fromB7_
FN:139,_RNvXININtCsek14CzwTA2s_13generic_array5implss4E_0pEApj2f_INtNtCskumHb0IaX0X_4core7convert4FromINtB7_12GenericArraypINtNtCsdOIG378uWuC_7typenum4uint4UIntIB1Q_IB1Q_IB1Q_IB1Q_IB1Q_NtB1S_5UTermNtNtB1U_3bit2B1ENtB33_2B0EB31_EB31_EB31_EB31_EEE4fromB7_
FN:146,_RNvXININtCsek14CzwTA2s_13generic_array5implss4F_0pERINtB7_12GenericArraypINtNtCsdOIG378uWuC_7typenum4uint4UIntIB1a_IB1a_IB1a_IB1a_IB1a_NtB1c_5UTermNtNtB1e_3bit2B1ENtB2n_2B0EB2l_EB2l_EB2l_EB2l_EEINtNtCskumHb0IaX0X_4core7convert4FromRApj2f_E4fromB7_
FN:153,_RNvXININtCsek14CzwTA2s_13generic_array5implss4G_0pEQINtB7_12GenericArraypINtNtCsdOIG378uWuC_7typenum4uint4UIntIB1a_IB1a_IB1a_IB1a_IB1a_NtB1c_5UTermNtNtB1e_3bit2B1ENtB2n_2B0EB2l_EB2l_EB2l_EB2l_EEINtNtCskumHb0IaX0X_4core7convert4FromQApj2f_E4fromB7_
FN:168,_RNvXININtCsek14CzwTA2s_13generic_array5implss4H_0pEINtB7_12GenericArraypINtNtCsdOIG378uWuC_7typenum4uint4UIntIB19_IB19_IB19_IB19_IB19_NtB1b_5UTermNtNtB1d_3bit2B1ENtB2m_2B0EB2k_EB2k_EB2k_EB2k_EEINtNtCskumHb0IaX0X_4core7convert5AsRefApj2f_E6as_refB7_
FN:175,_RNvXININtCsek14CzwTA2s_13generic_array5implss4I_0pEINtB7_12GenericArraypINtNtCsdOIG378uWuC_7typenum4uint4UIntIB19_IB19_IB19_IB19_IB19_NtB1b_5UTermNtNtB1d_3bit2B1ENtB2m_2B0EB2k_EB2k_EB2k_EB2k_EEINtNtCskumHb0IaX0X_4core7convert5AsMutApj2f_E6as_mutB7_
FN:131,_RNvXININtCsek14CzwTA2s_13generic_array5implss4J_0pEINtB7_12GenericArraypINtNtCsdOIG378uWuC_7typenum4uint4UIntIB19_IB19_IB19_IB19_IB19_NtB1b_5UTermNtNtB1d_3bit2B1EB2k_ENtB2m_2B0EB2F_EB2F_EB2F_EEINtNtCskumHb0IaX0X_4core7convert4FromApj30_E4fromB7_
FN:139,_RNvXININtCsek14CzwTA2s_13generic_array5implss4K_0pEApj30_INtNtCskumHb0IaX0X_4core7convert4FromINtB7_12GenericArraypINtNtCsdOIG378uWuC_7typenum4uint4UIntIB1Q_IB1Q_IB1Q_IB1Q_IB1Q_NtB1S_5UTermNtNtB1U_3bit2B1EB31_ENtB33_2B0EB3m_EB3m_EB3m_EEE4fromB7_
FN:146,_RNvXININtCsek14CzwTA2s_13generic_array5implss4L_0pERINtB7_12GenericArraypINtNtCsdOIG378uWuC_7typenum4uint4UIntIB1a_IB1a_IB1a_IB1a_IB1a_NtB1c_5UTermNtNtB1e_3bit2B1EB2l_ENtB2n_2B0EB2G_EB2G_EB2G_EEINtNtCskumHb0IaX0X_4core7convert4FromRApj30_E4fromB7_
FN:153,_RNvXININtCsek14CzwTA2s_13generic_array5implss4M_0pEQINtB7_12GenericArraypINtNtCsdOIG378uWuC_7typenum4uint4UIntIB1a_IB1a_IB1a_IB1a_IB1a_NtB1c_5UTermNtNtB1e_3bit2B1EB2l_ENtB2n_2B0EB2G_EB2G_EB2G_EEINtNtCskumHb0IaX0X_4core7convert4FromQApj30_E4fromB7_
FN:168,_RNvXININtCsek14CzwTA2s_13generic_array5implss4N_0pEINtB7_12GenericArraypINtNtCsdOIG378uWuC_7typenum4uint4UIntIB19_IB19_IB19_IB19_IB19_NtB1b_5UTermNtNtB1d_3bit2B1EB2k_ENtB2m_2B0EB2F_EB2F_EB2F_EEINtNtCskumHb0IaX0X_4core7convert5AsRefApj30_E6as_refB7_
FN:175,_RNvXININtCsek14CzwTA2s_13generic_array5implss4O_0pEINtB7_12GenericArraypINtNtCsdOIG378uWuC_7typenum4uint4UIntIB19_IB19_IB19_IB19_IB19_NtB1b_5UTermNtNtB1d_3bit2B1EB2k_ENtB2m_2B0EB2F_EB2F_EB2F_EEINtNtCskumHb0IaX0X_4core7convert5AsMutApj30_E6as_mutB7_
FN:131,_RNvXININtCsek14CzwTA2s_13generic_array5implss4P_0pEINtB7_12GenericArraypINtNtCsdOIG378uWuC_7typenum4uint4UIntIB19_IB19_IB19_IB19_IB19_NtB1b_5UTermNtNtB1d_3bit2B1EB2k_ENtB2m_2B0EB2F_EB2F_EB2k_EEINtNtCskumHb0IaX0X_4core7convert4FromApj31_E4fromB7_
FN:139,_RNvXININtCsek14CzwTA2s_13generic_array5implss4Q_0pEApj31_INtNtCskumHb0IaX0X_4core7convert4FromINtB7_12GenericArraypINtNtCsdOIG378uWuC_7typenum4uint4UIntIB1Q_IB1Q_IB1Q_IB1Q_IB1Q_NtB1S_5UTermNtNtB1U_3bit2B1EB31_ENtB33_2B0EB3m_EB3m_EB31_EEE4fromB7_
FN:146,_RNvXININtCsek14CzwTA2s_13generic_array5implss4R_0pERINtB7_12GenericArraypINtNtCsdOIG378uWuC_7typenum4uint4UIntIB1a_IB1a_IB1a_IB1a_IB1a_NtB1c_5UTermNtNtB1e_3bit2B1EB2l_ENtB2n_2B0EB2G_EB2G_EB2l_EEINtNtCskumHb0IaX0X_4core7convert4FromRApj31_E4fromB7_
FN:153,_RNvXININtCsek14CzwTA2s_13generic_array5implss4S_0pEQINtB7_12GenericArraypINtNtCsdOIG378uWuC_7typenum4uint4UIntIB1a_IB1a_IB1a_IB1a_IB1a_NtB1c_5UTermNtNtB1e_3bit2B1EB2l_ENtB2n_2B0EB2G_EB2G_EB2l_EEINtNtCskumHb0IaX0X_4core7convert4FromQApj31_E4fromB7_
FN:168,_RNvXININtCsek14CzwTA2s_13generic_array5implss4T_0pEINtB7_12GenericArraypINtNtCsdOIG378uWuC_7typenum4uint4UIntIB19_IB19_IB19_IB19_IB19_NtB1b_5UTermNtNtB1d_3bit2B1EB2k_ENtB2m_2B0EB2F_EB2F_EB2k_EEINtNtCskumHb0IaX0X_4core7convert5AsRefApj31_E6as_refB7_
FN:175,_RNvXININtCsek14CzwTA2s_13generic_array5implss4U_0pEINtB7_12GenericArraypINtNtCsdOIG378uWuC_7typenum4uint4UIntIB19_IB19_IB19_IB19_IB19_NtB1b_5UTermNtNtB1d_3bit2B1EB2k_ENtB2m_2B0EB2F_EB2F_EB2k_EEINtNtCskumHb0IaX0X_4core7convert5AsMutApj31_E6as_mutB7_
FN:131,_RNvXININtCsek14CzwTA2s_13generic_array5implss4V_0pEINtB7_12GenericArraypINtNtCsdOIG378uWuC_7typenum4uint4UIntIB19_IB19_IB19_IB19_IB19_NtB1b_5UTermNtNtB1d_3bit2B1EB2k_ENtB2m_2B0EB2F_EB2k_EB2F_EEINtNtCskumHb0IaX0X_4core7convert4FromApj32_E4fromB7_
FN:139,_RNvXININtCsek14CzwTA2s_13generic_array5implss4W_0pEApj32_INtNtCskumHb0IaX0X_4core7convert4FromINtB7_12GenericArraypINtNtCsdOIG378uWuC_7typenum4uint4UIntIB1Q_IB1Q_IB1Q_IB1Q_IB1Q_NtB1S_5UTermNtNtB1U_3bit2B1EB31_ENtB33_2B0EB3m_EB31_EB3m_EEE4fromB7_
FN:146,_RNvXININtCsek14CzwTA2s_13generic_array5implss4X_0pERINtB7_12GenericArraypINtNtCsdOIG378uWuC_7typenum4uint4UIntIB1a_IB1a_IB1a_IB1a_IB1a_NtB1c_5UTermNtNtB1e_3bit2B1EB2l_ENtB2n_2B0EB2G_EB2l_EB2G_EEINtNtCskumHb0IaX0X_4core7convert4FromRApj32_E4fromB7_
FN:153,_RNvXININtCsek14CzwTA2s_13generic_array5implss4Y_0pEQINtB7_12GenericArraypINtNtCsdOIG378uWuC_7typenum4uint4UIntIB1a_IB1a_IB1a_IB1a_IB1a_NtB1c_5UTermNtNtB1e_3bit2B1EB2l_ENtB2n_2B0EB2G_EB2l_EB2G_EEINtNtCskumHb0IaX0X_4core7convert4FromQApj32_E4fromB7_
FN:168,_RNvXININtCsek14CzwTA2s_13generic_array5implss4Z_0pEINtB7_12GenericArraypINtNtCsdOIG378uWuC_7typenum4uint4UIntIB19_IB19_IB19_IB19_IB19_NtB1b_5UTermNtNtB1d_3bit2B1EB2k_ENtB2m_2B0EB2F_EB2k_EB2F_EEINtNtCskumHb0IaX0X_4core7convert5AsRefApj32_E6as_refB7_
FN:60,_RNvXININtCsek14CzwTA2s_13generic_array5implss4_0ppEINtB7_12GenericArrayppENtNtCskumHb0IaX0X_4core3cmp3Ord3cmpB7_
FN:139,_RNvXININtCsek14CzwTA2s_13generic_array5implss4a_0pEApj2a_INtNtCskumHb0IaX0X_4core7convert4FromINtB7_12GenericArraypINtNtCsdOIG378uWuC_7typenum4uint4UIntIB1Q_IB1Q_IB1Q_IB1Q_IB1Q_NtB1S_5UTermNtNtB1U_3bit2B1ENtB33_2B0EB31_EB3h_EB31_EB3h_EEE4fromB7_
FN:146,_RNvXININtCsek14CzwTA2s_13generic_array5implss4b_0pERINtB7_12GenericArraypINtNtCsdOIG378uWuC_7typenum4uint4UIntIB1a_IB1a_IB1a_IB1a_IB1a_NtB1c_5UTermNtNtB1e_3bit2B1ENtB2n_2B0EB2l_EB2B_EB2l_EB2B_EEINtNtCskumHb0IaX0X_4core7convert4FromRApj2a_E4fromB7_
FN:153,_RNvXININtCsek14CzwTA2s_13generic_array5implss4c_0pEQINtB7_12GenericArraypINtNtCsdOIG378uWuC_7typenum4uint4UIntIB1a_IB1a_IB1a_IB1a_IB1a_NtB1c_5UTermNtNtB1e_3bit2B1ENtB2n_2B0EB2l_EB2B_EB2l_EB2B_EEINtNtCskumHb0IaX0X_4core7convert4FromQApj2a_E4fromB7_
FN:168,_RNvXININtCsek14CzwTA2s_13generic_array5implss4d_0pEINtB7_12GenericArraypINtNtCsdOIG378uWuC_7typenum4uint4UIntIB19_IB19_IB19_IB19_IB19_NtB1b_5UTermNtNtB1d_3bit2B1ENtB2m_2B0EB2k_EB2A_EB2k_EB2A_EEINtNtCskumHb0IaX0X_4core7convert5AsRefApj2a_E6as_refB7_
FN:175,_RNvXININtCsek14CzwTA2s_13generic_array5implss4e_0pEINtB7_12GenericArraypINtNtCsdOIG378uWuC_7typenum4uint4UIntIB19_IB19_IB19_IB19_IB19_NtB1b_5UTermNtNtB1d_3bit2B1ENtB2m_2B0EB2k_EB2A_EB2k_EB2A_EEINtNtCskumHb0IaX0X_4core7convert5AsMutApj2a_E6as_mutB7_
FN:131,_RNvXININtCsek14CzwTA2s_13generic_array5implss4f_0pEINtB7_12GenericArraypINtNtCsdOIG378uWuC_7typenum4uint4UIntIB19_IB19_IB19_IB19_IB19_NtB1b_5UTermNtNtB1d_3bit2B1ENtB2m_2B0EB2k_EB2A_EB2k_EB2k_EEINtNtCskumHb0IaX0X_4core7convert4FromApj2b_E4fromB7_
FN:139,_RNvXININtCsek14CzwTA2s_13generic_array5implss4g_0pEApj2b_INtNtCskumHb0IaX0X_4core7convert4FromINtB7_12GenericArraypINtNtCsdOIG378uWuC_7typenum4uint4UIntIB1Q_IB1Q_IB1Q_IB1Q_IB1Q_NtB1S_5UTermNtNtB1U_3bit2B1ENtB33_2B0EB31_EB3h_EB31_EB31_EEE4fromB7_
FN:146,_RNvXININtCsek14CzwTA2s_13generic_array5implss4h_0pERINtB7_12GenericArraypINtNtCsdOIG378uWuC_7typenum4uint4UIntIB1a_IB1a_IB1a_IB1a_IB1a_NtB1c_5UTermNtNtB1e_3bit2B1ENtB2n_2B0EB2l_EB2B_EB2l_EB2l_EEINtNtCskumHb0IaX0X_4core7convert4FromRApj2b_E4fromB7_
FN:153,_RNvXININtCsek14CzwTA2s_13generic_array5implss4i_0pEQINtB7_12GenericArraypINtNtCsdOIG378uWuC_7typenum4uint4UIntIB1a_IB1a_IB1a_IB1a_IB1a_NtB1c_5UTermNtNtB1e_3bit2B1ENtB2n_2B0EB2l_EB2B_EB2l_EB2l_EEINtNtCskumHb0IaX0X_4core7convert4FromQApj2b_E4fromB7_
FN:168,_RNvXININtCsek14CzwTA2s_13generic_array5implss4j_0pEINtB7_12GenericArraypINtNtCsdOIG378uWuC_7typenum4uint4UIntIB19_IB19_IB19_IB19_IB19_NtB1b_5UTermNtNtB1d_3bit2B1ENtB2m_2B0EB2k_EB2A_EB2k_EB2k_EEINtNtCskumHb0IaX0X_4core7convert5AsRefApj2b_E6as_refB7_
FN:175,_RNvXININtCsek14CzwTA2s_13generic_array5implss4k_0pEINtB7_12GenericArraypINtNtCsdOIG378uWuC_7typenum4uint4UIntIB19_IB19_IB19_IB19_IB19_NtB1b_5UTermNtNtB1d_3bit2B1ENtB2m_2B0EB2k_EB2A_EB2k_EB2k_EEINtNtCskumHb0IaX0X_4core7convert5AsMutApj2b_E6as_mutB7_
FN:131,_RNvXININtCsek14CzwTA2s_13generic_array5implss4l_0pEINtB7_12GenericArraypINtNtCsdOIG378uWuC_7typenum4uint4UIntIB19_IB19_IB19_IB19_IB19_NtB1b_5UTermNtNtB1d_3bit2B1ENtB2m_2B0EB2k_EB2k_EB2A_EB2A_EEINtNtCskumHb0IaX0X_4core7convert4FromApj2c_E4fromB7_
FN:139,_RNvXININtCsek14CzwTA2s_13generic_array5implss4m_0pEApj2c_INtNtCskumHb0IaX0X_4core7convert4FromINtB7_12GenericArraypINtNtCsdOIG378uWuC_7typenum4uint4UIntIB1Q_IB1Q_IB1Q_IB1Q_IB1Q_NtB1S_5UTermNtNtB1U_3bit2B1ENtB33_2B0EB31_EB31_EB3h_EB3h_EEE4fromB7_
FN:146,_RNvXININtCsek14CzwTA2s_13generic_array5implss4n_0pERINtB7_12GenericArraypINtNtCsdOIG378uWuC_7typenum4uint4UIntIB1a_IB1a_IB1a_IB1a_IB1a_NtB1c_5UTermNtNtB1e_3bit2B1ENtB2n_2B0EB2l_EB2l_EB2B_EB2B_EEINtNtCskumHb0IaX0X_4core7convert4FromRApj2c_E4fromB7_
FN:153,_RNvXININtCsek14CzwTA2s_13generic_array5implss4o_0pEQINtB7_12GenericArraypINtNtCsdOIG378uWuC_7typenum4uint4UIntIB1a_IB1a_IB1a_IB1a_IB1a_NtB1c_5UTermNtNtB1e_3bit2B1ENtB2n_2B0EB2l_EB2l_EB2B_EB2B_EEINtNtCskumHb0IaX0X_4core7convert4FromQApj2c_E4fromB7_
FN:168,_RNvXININtCsek14CzwTA2s_13generic_array5implss4p_0pEINtB7_12GenericArraypINtNtCsdOIG378uWuC_7typenum4uint4UIntIB19_IB19_IB19_IB19_IB19_NtB1b_5UTermNtNtB1d_3bit2B1ENtB2m_2B0EB2k_EB2k_EB2A_EB2A_EEINtNtCskumHb0IaX0X_4core7convert5AsRefApj2c_E6as_refB7_
FN:175,_RNvXININtCsek14CzwTA2s_13generic_array5implss4q_0pEINtB7_12GenericArraypINtNtCsdOIG378uWuC_7typenum4uint4UIntIB19_IB19_IB19_IB19_IB19_NtB1b_5UTermNtNtB1d_3bit2B1ENtB2m_2B0EB2k_EB2k_EB2A_EB2A_EEINtNtCskumHb0IaX0X_4core7convert5AsMutApj2c_E6as_mutB7_
FN:131,_RNvXININtCsek14CzwTA2s_13generic_array5implss4r_0pEINtB7_12GenericArraypINtNtCsdOIG378uWuC_7typenum4uint4UIntIB19_IB19_IB19_IB19_IB19_NtB1b_5UTermNtNtB1d_3bit2B1ENtB2m_2B0EB2k_EB2k_EB2A_EB2k_EEINtNtCskumHb0IaX0X_4core7convert4FromApj2d_E4fromB7_
FN:139,_RNvXININtCsek14CzwTA2s_13generic_array5implss4s_0pEApj2d_INtNtCskumHb0IaX0X_4core7convert4FromINtB7_12GenericArraypINtNtCsdOIG378uWuC_7typenum4uint4UIntIB1Q_IB1Q_IB1Q_IB1Q_IB1Q_NtB1S_5UTermNtNtB1U_3bit2B1ENtB33_2B0EB31_EB31_EB3h_EB31_EEE4fromB7_
FN:146,_RNvXININtCsek14CzwTA2s_13generic_array5implss4t_0pERINtB7_12GenericArraypINtNtCsdOIG378uWuC_7typenum4uint4UIntIB1a_IB1a_IB1a_IB1a_IB1a_NtB1c_5UTermNtNtB1e_3bit2B1ENtB2n_2B0EB2l_EB2l_EB2B_EB2l_EEINtNtCskumHb0IaX0X_4core7convert4FromRApj2d_E4fromB7_
FN:153,_RNvXININtCsek14CzwTA2s_13generic_array5implss4u_0pEQINtB7_12GenericArraypINtNtCsdOIG378uWuC_7typenum4uint4UIntIB1a_IB1a_IB1a_IB1a_IB1a_NtB1c_5UTermNtNtB1e_3bit2B1ENtB2n_2B0EB2l_EB2l_EB2B_EB2l_EEINtNtCskumHb0IaX0X_4core7convert4FromQApj2d_E4fromB7_
FN:168,_RNvXININtCsek14CzwTA2s_13generic_array5implss4v_0pEINtB7_12GenericArraypINtNtCsdOIG378uWuC_7typenum4uint4UIntIB19_IB19_IB19_IB19_IB19_NtB1b_5UTermNtNtB1d_3bit2B1ENtB2m_2B0EB2k_EB2k_EB2A_EB2k_EEINtNtCskumHb0IaX0X_4core7convert5AsRefApj2d_E6as_refB7_
FN:175,_RNvXININtCsek14CzwTA2s_13generic_array5implss4w_0pEINtB7_12GenericArraypINtNtCsdOIG378uWuC_7typenum4uint4UIntIB19_IB19_IB19_IB19_IB19_NtB1b_5UTermNtNtB1d_3bit2B1ENtB2m_2B0EB2k_EB2k_EB2A_EB2k_EEINtNtCskumHb0IaX0X_4core7convert5AsMutApj2d_E6as_mutB7_
FN:131,_RNvXININtCsek14CzwTA2s_13generic_array5implss4x_0pEINtB7_12GenericArraypINtNtCsdOIG378uWuC_7typenum4uint4UIntIB19_IB19_IB19_IB19_IB19_NtB1b_5UTermNtNtB1d_3bit2B1ENtB2m_2B0EB2k_EB2k_EB2k_EB2A_EEINtNtCskumHb0IaX0X_4core7convert4FromApj2e_E4fromB7_
FN:139,_RNvXININtCsek14CzwTA2s_13generic_array5implss4y_0pEApj2e_INtNtCskumHb0IaX0X_4core7convert4FromINtB7_12GenericArraypINtNtCsdOIG378uWuC_7typenum4uint4UIntIB1Q_IB1Q_IB1Q_IB1Q_IB1Q_NtB1S_5UTermNtNtB1U_3bit2B1ENtB33_2B0EB31_EB31_EB31_EB3h_EEE4fromB7_
FN:146,_RNvXININtCsek14CzwTA2s_13generic_array5implss4z_0pERINtB7_12GenericArraypINtNtCsdOIG378uWuC_7typenum4uint4UIntIB1a_IB1a_IB1a_IB1a_IB1a_NtB1c_5UTermNtNtB1e_3bit2B1ENtB2n_2B0EB2l_EB2l_EB2l_EB2B_EEINtNtCskumHb0IaX0X_4core7convert4FromRApj2e_E4fromB7_
FN:175,_RNvXININtCsek14CzwTA2s_13generic_array5implss50_0pEINtB7_12GenericArraypINtNtCsdOIG378uWuC_7typenum4uint4UIntIB19_IB19_IB19_IB19_IB19_NtB1b_5UTermNtNtB1d_3bit2B1EB2k_ENtB2m_2B0EB2F_EB2k_EB2F_EEINtNtCskumHb0IaX0X_4core7convert5AsMutApj32_E6as_mutB7_
FN:131,_RNvXININtCsek14CzwTA2s_13generic_array5implss51_0pEINtB7_12GenericArraypINtNtCsdOIG378uWuC_7typenum4uint4UIntIB19_IB19_IB19_IB19_IB19_NtB1b_5UTermNtNtB1d_3bit2B1EB2k_ENtB2m_2B0EB2F_EB2k_EB2k_EEINtNtCskumHb0IaX0X_4core7convert4FromApj33_E4fromB7_
FN:139,_RNvXININtCsek14CzwTA2s_13generic_array5implss52_0pEApj33_INtNtCskumHb0IaX0X_4core7convert4FromINtB7_12GenericArraypINtNtCsdOIG378uWuC_7typenum4uint4UIntIB1Q_IB1Q_IB1Q_IB1Q_IB1Q_NtB1S_5UTermNtNtB1U_3bit2B1EB31_ENtB33_2B0EB3m_EB31_EB31_EEE4fromB7_
FN:146,_RNvXININtCsek14CzwTA2s_13generic_array5implss53_0pERINtB7_12GenericArraypINtNtCsdOIG378uWuC_7typenum4uint4UIntIB1a_IB1a_IB1a_IB1a_IB1a_NtB1c_5UTermNtNtB1e_3bit2B1EB2l_ENtB2n_2B0EB2G_EB2l_EB2l_EEINtNtCskumHb0IaX0X_4core7convert4FromRApj33_E4fromB7_
FN:153,_RNvXININtCsek14CzwTA2s_13generic_array5implss54_0pEQINtB7_12GenericArraypINtNtCsdOIG378uWuC_7typenum4uint4UIntIB1a_IB1a_IB1a_IB1a_IB1a_NtB1c_5UTermNtNtB1e_3bit2B1EB2l_ENtB2n_2B0EB2G_EB2l_EB2l_EEINtNtCskumHb0IaX0X_4core7convert4FromQApj33_E4fromB7_
FN:168,_RNvXININtCsek14CzwTA2s_13generic_array5implss55_0pEINtB7_12GenericArraypINtNtCsdOIG378uWuC_7typenum4uint4UIntIB19_IB19_IB19_IB19_IB19_NtB1b_5UTermNtNtB1d_3bit2B1EB2k_ENtB2m_2B0EB2F_EB2k_EB2k_EEINtNtCskumHb0IaX0X_4core7convert5AsRefApj33_E6as_refB7_
FN:175,_RNvXININtCsek14CzwTA2s_13generic_array5implss56_0pEINtB7_12GenericArraypINtNtCsdOIG378uWuC_7typenum4uint4UIntIB19_IB19_IB19_IB19_IB19_NtB1b_5UTermNtNtB1d_3bit2B1EB2k_ENtB2m_2B0EB2F_EB2k_EB2k_EEINtNtCskumHb0IaX0X_4core7convert5AsMutApj33_E6as_mutB7_
FN:131,_RNvXININtCsek14CzwTA2s_13generic_array5implss57_0pEINtB7_12GenericArraypINtNtCsdOIG378uWuC_7typenum4uint4UIntIB19_IB19_IB19_IB19_IB19_NtB1b_5UTermNtNtB1d_3bit2B1EB2k_ENtB2m_2B0EB2k_EB2F_EB2F_EEINtNtCskumHb0IaX0X_4core7convert4FromApj34_E4fromB7_
FN:139,_RNvXININtCsek14CzwTA2s_13generic_array5implss58_0pEApj34_INtNtCskumHb0IaX0X_4core7convert4FromINtB7_12GenericArraypINtNtCsdOIG378uWuC_7typenum4uint4UIntIB1Q_IB1Q_IB1Q_IB1Q_IB1Q_NtB1S_5UTermNtNtB1U_3bit2B1EB31_ENtB33_2B0EB31_EB3m_EB3m_EEE4fromB7_
FN:146,_RNvXININtCsek14CzwTA2s_13generic_array5implss59_0pERINtB7_12GenericArraypINtNtCsdOIG378uWuC_7typenum4uint4UIntIB1a_IB1a_IB1a_IB1a_IB1a_NtB1c_5UTermNtNtB1e_3bit2B1EB2l_ENtB2n_2B0EB2l_EB2G_EB2G_EEINtNtCskumHb0IaX0X_4core7convert4FromRApj34_E4fromB7_
FN:175,_RNvXININtCsek14CzwTA2s_13generic_array5implss5A_0pEINtB7_12GenericArraypINtNtCsdOIG378uWuC_7typenum4uint4UIntIB19_IB19_IB19_IB19_IB19_NtB1b_5UTermNtNtB1d_3bit2B1EB2k_EB2k_ENtB2m_2B0EB2K_EB2K_EEINtNtCskumHb0IaX0X_4core7convert5AsMutApj38_E6as_mutB7_
FN:131,_RNvXININtCsek14CzwTA2s_13generic_array5implss5B_0pEINtB7_12GenericArraypINtNtCsdOIG378uWuC_7typenum4uint4UIntIB19_IB19_IB19_IB19_IB19_NtB1b_5UTermNtNtB1d_3bit2B1EB2k_EB2k_ENtB2m_2B0EB2K_EB2k_EEINtNtCskumHb0IaX0X_4core7convert4FromApj39_E4fromB7_
FN:139,_RNvXININtCsek14CzwTA2s_13generic_array5implss5C_0pEApj39_INtNtCskumHb0IaX0X_4core7convert4FromINtB7_12GenericArraypINtNtCsdOIG378uWuC_7typenum4uint4UIntIB1Q_IB1Q_IB1Q_IB1Q_IB1Q_NtB1S_5UTermNtNtB1U_3bit2B1EB31_EB31_ENtB33_2B0EB3r_EB31_EEE4fromB7_
FN:146,_RNvXININtCsek14CzwTA2s_13generic_array5implss5D_0pERINtB7_12GenericArraypINtNtCsdOIG378uWuC_7typenum4uint4UIntIB1a_IB1a_IB1a_IB1a_IB1a_NtB1c_5UTermNtNtB1e_3bit2B1EB2l_EB2l_ENtB2n_2B0EB2L_EB2l_EEINtNtCskumHb0IaX0X_4core7convert4FromRApj39_E4fromB7_
FN:153,_RNvXININtCsek14CzwTA2s_13generic_array5implss5E_0pEQINtB7_12GenericArraypINtNtCsdOIG378uWuC_7typenum4uint4UIntIB1a_IB1a_IB1a_IB1a_IB1a_NtB1c_5UTermNtNtB1e_3bit2B1EB2l_EB2l_ENtB2n_2B0EB2L_EB2l_EEINtNtCskumHb0IaX0X_4core7convert4FromQApj39_E4fromB7_
FN:168,_RNvXININtCsek14CzwTA2s_13generic_array5implss5F_0pEINtB7_12GenericArraypINtNtCsdOIG378uWuC_7typenum4uint4UIntIB19_IB19_IB19_IB19_IB19_NtB1b_5UTermNtNtB1d_3bit2B1EB2k_EB2k_ENtB2m_2B0EB2K_EB2k_EEINtNtCskumHb0IaX0X_4core7convert5AsRefApj39_E6as_refB7_
FN:175,_RNvXININtCsek14CzwTA2s_13generic_array5implss5G_0pEINtB7_12GenericArraypINtNtCsdOIG378uWuC_7typenum4uint4UIntIB19_IB19_IB19_IB19_IB19_NtB1b_5UTermNtNtB1d_3bit2B1EB2k_EB2k_ENtB2m_2B0EB2K_EB2k_EEINtNtCskumHb0IaX0X_4core7convert5AsMutApj39_E6as_mutB7_
FN:131,_RNvXININtCsek14CzwTA2s_13generic_array5implss5H_0pEINtB7_12GenericArraypINtNtCsdOIG378uWuC_7typenum4uint4UIntIB19_IB19_IB19_IB19_IB19_NtB1b_5UTermNtNtB1d_3bit2B1EB2k_EB2k_ENtB2m_2B0EB2k_EB2K_EEINtNtCskumHb0IaX0X_4core7convert4FromApj3a_E4fromB7_
FN:139,_RNvXININtCsek14CzwTA2s_13generic_array5implss5I_0pEApj3a_INtNtCskumHb0IaX0X_4core7convert4FromINtB7_12GenericArraypINtNtCsdOIG378uWuC_7typenum4uint4UIntIB1Q_IB1Q_IB1Q_IB1Q_IB1Q_NtB1S_5UTermNtNtB1U_3bit2B1EB31_EB31_ENtB33_2B0EB31_EB3r_EEE4fromB7_
FN:146,_RNvXININtCsek14CzwTA2s_13generic_array5implss5J_0pERINtB7_12GenericArraypINtNtCsdOIG378uWuC_7typenum4uint4UIntIB1a_IB1a_IB1a_IB1a_IB1a_NtB1c_5UTermNtNtB1e_3bit2B1EB2l_EB2l_ENtB2n_2B0EB2l_EB2L_EEINtNtCskumHb0IaX0X_4core7convert4FromRApj3a_E4fromB7_
FN:153,_RNvXININtCsek14CzwTA2s_13generic_array5implss5K_0pEQINtB7_12GenericArraypINtNtCsdOIG378uWuC_7typenum4uint4UIntIB1a_IB1a_IB1a_IB1a_IB1a_NtB1c_5UTermNtNtB1e_3bit2B1EB2l_EB2l_ENtB2n_2B0EB2l_EB2L_EEINtNtCskumHb0IaX0X_4core7convert4FromQApj3a_E4fromB7_
FN:168,_RNvXININtCsek14CzwTA2s_13generic_array5implss5L_0pEINtB7_12GenericArraypINtNtCsdOIG378uWuC_7typenum4uint4UIntIB19_IB19_IB19_IB19_IB19_NtB1b_5UTermNtNtB1d_3bit2B1EB2k_EB2k_ENtB2m_2B0EB2k_EB2K_EEINtNtCskumHb0IaX0X_4core7convert5AsRefApj3a_E6as_refB7_
FN:175,_RNvXININtCsek14CzwTA2s_13generic_array5implss5M_0pEINtB7_12GenericArraypINtNtCsdOIG378uWuC_7typenum4uint4UIntIB19_IB19_IB19_IB19_IB19_NtB1b_5UTermNtNtB1d_3bit2B1EB2k_EB2k_ENtB2m_2B0EB2k_EB2K_EEINtNtCskumHb0IaX0X_4core7convert5AsMutApj3a_E6as_mutB7_
FN:131,_RNvXININtCsek14CzwTA2s_13generic_array5implss5N_0pEINtB7_12GenericArraypINtNtCsdOIG378uWuC_7typenum4uint4UIntIB19_IB19_IB19_IB19_IB19_NtB1b_5UTermNtNtB1d_3bit2B1EB2k_EB2k_ENtB2m_2B0EB2k_EB2k_EEINtNtCskumHb0IaX0X_4core7convert4FromApj3b_E4fromB7_
FN:139,_RNvXININtCsek14CzwTA2s_13generic_array5implss5O_0pEApj3b_INtNtCskumHb0IaX0X_4core7convert4FromINtB7_12GenericArraypINtNtCsdOIG378uWuC_7typenum4uint4UIntIB1Q_IB1Q_IB1Q_IB1Q_IB1Q_NtB1S_5UTermNtNtB1U_3bit2B1EB31_EB31_ENtB33_2B0EB31_EB31_EEE4fromB7_
FN:146,_RNvXININtCsek14CzwTA2s_13generic_array5implss5P_0pERINtB7_12GenericArraypINtNtCsdOIG378uWuC_7typenum4uint4UIntIB1a_IB1a_IB1a_IB1a_IB1a_NtB1c_5UTermNtNtB1e_3bit2B1EB2l_EB2l_ENtB2n_2B0EB2l_EB2l_EEINtNtCskumHb0IaX0X_4core7convert4FromRApj3b_E4fromB7_
FN:153,_RNvXININtCsek14CzwTA2s_13generic_array5implss5Q_0pEQINtB7_12GenericArraypINtNtCsdOIG378uWuC_7typenum4uint4UIntIB1a_IB1a_IB1a_IB1a_IB1a_NtB1c_5UTermNtNtB1e_3bit2B1EB2l_EB2l_ENtB2n_2B0EB2l_EB2l_EEINtNtCskumHb0IaX0X_4core7convert4FromQApj3b_E4fromB7_
FN:168,_RNvXININtCsek14CzwTA2s_13generic_array5implss5R_0pEINtB7_12GenericArraypINtNtCsdOIG378uWuC_7typenum4uint4UIntIB19_IB19_IB19_IB19_IB19_NtB1b_5UTermNtNtB1d_3bit2B1EB2k_EB2k_ENtB2m_2B0EB2k_EB2k_EEINtNtCskumHb0IaX0X_4core7convert5AsRefApj3b_E6as_refB7_
FN:175,_RNvXININtCsek14CzwTA2s_13generic_array5implss5S_0pEINtB7_12GenericArraypINtNtCsdOIG378uWuC_7typenum4uint4UIntIB19_IB19_IB19_IB19_IB19_NtB1b_5UTermNtNtB1d_3bit2B1EB2k_EB2k_ENtB2m_2B0EB2k_EB2k_EEINtNtCskumHb0IaX0X_4core7convert5AsMutApj3b_E6as_mutB7_
FN:131,_RNvXININtCsek14CzwTA2s_13generic_array5implss5T_0pEINtB7_12GenericArraypINtNtCsdOIG378uWuC_7typenum4uint4UIntIB19_IB19_IB19_IB19_IB19_NtB1b_5UTermNtNtB1d_3bit2B1EB2k_EB2k_EB2k_ENtB2m_2B0EB2P_EEINtNtCskumHb0IaX0X_4core7convert4FromApj3c_E4fromB7_
FN:139,_RNvXININtCsek14CzwTA2s_13generic_array5implss5U_0pEApj3c_INtNtCskumHb0IaX0X_4core7convert4FromINtB7_12GenericArraypINtNtCsdOIG378uWuC_7typenum4uint4UIntIB1Q_IB1Q_IB1Q_IB1Q_IB1Q_NtB1S_5UTermNtNtB1U_3bit2B1EB31_EB31_EB31_ENtB33_2B0EB3w_EEE4fromB7_
FN:146,_RNvXININtCsek14CzwTA2s_13generic_array5implss5V_0pERINtB7_12GenericArraypINtNtCsdOIG378uWuC_7typenum4uint4UIntIB1a_IB1a_IB1a_IB1a_IB1a_NtB1c_5UTermNtNtB1e_3bit2B1EB2l_EB2l_EB2l_ENtB2n_2B0EB2Q_EEINtNtCskumHb0IaX0X_4core7convert4FromRApj3c_E4fromB7_
FN:153,_RNvXININtCsek14CzwTA2s_13generic_array5implss5W_0pEQINtB7_12GenericArraypINtNtCsdOIG378uWuC_7typenum4uint4UIntIB1a_IB1a_IB1a_IB1a_IB1a_NtB1c_5UTermNtNtB1e_3bit2B1EB2l_EB2l_EB2l_ENtB2n_2B0EB2Q_EEINtNtCskumHb0IaX0X_4core7convert4FromQApj3c_E4fromB7_
FN:168,_RNvXININtCsek14CzwTA2s_13generic_array5implss5X_0pEINtB7_12GenericArraypINtNtCsdOIG378uWuC_7typenum4uint4UIntIB19_IB19_IB19_IB19_IB19_NtB1b_5UTermNtNtB1d_3bit2B1EB2k_EB2k_EB2k_ENtB2m_2B0EB2P_EEINtNtCskumHb0IaX0X_4core7convert5AsRefApj3c_E6as_refB7_
FN:175,_RNvXININtCsek14CzwTA2s_13generic_array5implss5Y_0pEINtB7_12GenericArraypINtNtCsdOIG378uWuC_7typenum4uint4UIntIB19_IB19_IB19_IB19_IB19_NtB1b_5UTermNtNtB1d_3bit2B1EB2k_EB2k_EB2k_ENtB2m_2B0EB2P_EEINtNtCskumHb0IaX0X_4core7convert5AsMutApj3c_E6as_mutB7_
FN:131,_RNvXININtCsek14CzwTA2s_13generic_array5implss5Z_0pEINtB7_12GenericArraypINtNtCsdOIG378uWuC_7typenum4uint4UIntIB19_IB19_IB19_IB19_IB19_NtB1b_5UTermNtNtB1d_3bit2B1EB2k_EB2k_EB2k_ENtB2m_2B0EB2k_EEINtNtCskumHb0IaX0X_4core7convert4FromApj3d_E4fromB7_
FN:69,_RNvXININtCsek14CzwTA2s_13generic_array5implss5_0ppEINtB7_12GenericArrayppENtNtCskumHb0IaX0X_4core3fmt5Debug3fmtB7_
FN:153,_RNvXININtCsek14CzwTA2s_13generic_array5implss5a_0pEQINtB7_12GenericArraypINtNtCsdOIG378uWuC_7typenum4uint4UIntIB1a_IB1a_IB1a_IB1a_IB1a_NtB1c_5UTermNtNtB1e_3bit2B1EB2l_ENtB2n_2B0EB2l_EB2G_EB2G_EEINtNtCskumHb0IaX0X_4core7convert4FromQApj34_E4fromB7_
FN:168,_RNvXININtCsek14CzwTA2s_13generic_array5implss5b_0pEINtB7_12GenericArraypINtNtCsdOIG378uWuC_7typenum4uint4UIntIB19_IB19_IB19_IB19_IB19_NtB1b_5UTermNtNtB1d_3bit2B1EB2k_ENtB2m_2B0EB2k_EB2F_EB2F_EEINtNtCskumHb0IaX0X_4core7convert5AsRefApj34_E6as_refB7_
FN:175,_RNvXININtCsek14CzwTA2s_13generic_array5implss5c_0pEINtB7_12GenericArraypINtNtCsdOIG378uWuC_7typenum4uint4UIntIB19_IB19_IB19_IB19_IB19_NtB1b_5UTermNtNtB1d_3bit2B1EB2k_ENtB2m_2B0EB2k_EB2F_EB2F_EEINtNtCskumHb0IaX0X_4core7convert5AsMutApj34_E6as_mutB7_
FN:131,_RNvXININtCsek14CzwTA2s_13generic_array5implss5d_0pEINtB7_12GenericArraypINtNtCsdOIG378uWuC_7typenum4uint4UIntIB19_IB19_IB19_IB19_IB19_NtB1b_5UTermNtNtB1d_3bit2B1EB2k_ENtB2m_2B0EB2k_EB2F_EB2k_EEINtNtCskumHb0IaX0X_4core7convert4FromApj35_E4fromB7_
FN:139,_RNvXININtCsek14CzwTA2s_13generic_array5implss5e_0pEApj35_INtNtCskumHb0IaX0X_4core7convert4FromINtB7_12GenericArraypINtNtCsdOIG378uWuC_7typenum4uint4UIntIB1Q_IB1Q_IB1Q_IB1Q_IB1Q_NtB1S_5UTermNtNtB1U_3bit2B1EB31_ENtB33_2B0EB31_EB3m_EB31_EEE4fromB7_
FN:146,_RNvXININtCsek14CzwTA2s_13generic_array5implss5f_0pERINtB7_12GenericArraypINtNtCsdOIG378uWuC_7typenum4uint4UIntIB1a_IB1a_IB1a_IB1a_IB1a_NtB1c_5UTermNtNtB1e_3bit2B1EB2l_ENtB2n_2B0EB2l_EB2G_EB2l_EEINtNtCskumHb0IaX0X_4core7convert4FromRApj35_E4fromB7_
FN:153,_RNvXININtCsek14CzwTA2s_13generic_array5implss5g_0pEQINtB7_12GenericArraypINtNtCsdOIG378uWuC_7typenum4uint4UIntIB1a_IB1a_IB1a_IB1a_IB1a_NtB1c_5UTermNtNtB1e_3bit2B1EB2l_ENtB2n_2B0EB2l_EB2G_EB2l_EEINtNtCskumHb0IaX0X_4core7convert4FromQApj35_E4fromB7_
FN:168,_RNvXININtCsek14CzwTA2s_13generic_array5implss5h_0pEINtB7_12GenericArraypINtNtCsdOIG378uWuC_7typenum4uint4UIntIB19_IB19_IB19_IB19_IB19_NtB1b_5UTermNtNtB1d_3bit2B1EB2k_ENtB2m_2B0EB2k_EB2F_EB2k_EEINtNtCskumHb0IaX0X_4core7convert5AsRefApj35_E6as_refB7_
FN:175,_RNvXININtCsek14CzwTA2s_13generic_array5implss5i_0pEINtB7_12GenericArraypINtNtCsdOIG378uWuC_7typenum4uint4UIntIB19_IB19_IB19_IB19_IB19_NtB1b_5UTermNtNtB1d_3bit2B1EB2k_ENtB2m_2B0EB2k_EB2F_EB2k_EEINtNtCskumHb0IaX0X_4core7convert5AsMutApj35_E6as_mutB7_
FN:131,_RNvXININtCsek14CzwTA2s_13generic_array5implss5j_0pEINtB7_12GenericArraypINtNtCsdOIG378uWuC_7typenum4uint4UIntIB19_IB19_IB19_IB19_IB19_NtB1b_5UTermNtNtB1d_3bit2B1EB2k_ENtB2m_2B0EB2k_EB2k_EB2F_EEINtNtCskumHb0IaX0X_4core7convert4FromApj36_E4fromB7_
FN:139,_RNvXININtCsek14CzwTA2s_13generic_array5implss5k_0pEApj36_INtNtCskumHb0IaX0X_4core7convert4FromINtB7_12GenericArraypINtNtCsdOIG378uWuC_7typenum4uint4UIntIB1Q_IB1Q_IB1Q_IB1Q_IB1Q_NtB1S_5UTermNtNtB1U_3bit2B1EB31_ENtB33_2B0EB31_EB31_EB3m_EEE4fromB7_
FN:146,_RNvXININtCsek14CzwTA2s_13generic_array5implss5l_0pERINtB7_12GenericArraypINtNtCsdOIG378uWuC_7typenum4uint4UIntIB1a_IB1a_IB1a_IB1a_IB1a_NtB1c_5UTermNtNtB1e_3bit2B1EB2l_ENtB2n_2B0EB2l_EB2l_EB2G_EEINtNtCskumHb0IaX0X_4core7convert4FromRApj36_E4fromB7_
FN:153,_RNvXININtCsek14CzwTA2s_13generic_array5implss5m_0pEQINtB7_12GenericArraypINtNtCsdOIG378uWuC_7typenum4uint4UIntIB1a_IB1a_IB1a_IB1a_IB1a_NtB1c_5UTermNtNtB1e_3bit2B1EB2l_ENtB2n_2B0EB2l_EB2l_EB2G_EEINtNtCskumHb0IaX0X_4core7convert4FromQApj36_E4fromB7_
FN:168,_RNvXININtCsek14CzwTA2s_13generic_array5implss5n_0pEINtB7_12GenericArraypINtNtCsdOIG378uWuC_7typenum4uint4UIntIB19_IB19_IB19_IB19_IB19_NtB1b_5UTermNtNtB1d_3bit2B1EB2k_ENtB2m_2B0EB2k_EB2k_EB2F_EEINtNtCskumHb0IaX0X_4core7convert5AsRefApj36_E6as_refB7_
FN:175,_RNvXININtCsek14CzwTA2s_13generic_array5implss5o_0pEINtB7_12GenericArraypINtNtCsdOIG378uWuC_7typenum4uint4UIntIB19_IB19_IB19_IB19_IB19_NtB1b_5UTermNtNtB1d_3bit2B1EB2k_ENtB2m_2B0EB2k_EB2k_EB2F_EEINtNtCskumHb0IaX0X_4core7convert5AsMutApj36_E6as_mutB7_
FN:131,_RNvXININtCsek14CzwTA2s_13generic_array5implss5p_0pEINtB7_12GenericArraypINtNtCsdOIG378uWuC_7typenum4uint4UIntIB19_IB19_IB19_IB19_IB19_NtB1b_5UTermNtNtB1d_3bit2B1EB2k_ENtB2m_2B0EB2k_EB2k_EB2k_EEINtNtCskumHb0IaX0X_4core7convert4FromApj37_E4fromB7_
FN:139,_RNvXININtCsek14CzwTA2s_13generic_array5implss5q_0pEApj37_INtNtCskumHb0IaX0X_4core7convert4FromINtB7_12GenericArraypINtNtCsdOIG378uWuC_7typenum4uint4UIntIB1Q_IB1Q_IB1Q_IB1Q_IB1Q_NtB1S_5UTermNtNtB1U_3bit2B1EB31_ENtB33_2B0EB31_EB31_EB31_EEE4fromB7_
FN:146,_RNvXININtCsek14CzwTA2s_13generic_array5implss5r_0pERINtB7_12GenericArraypINtNtCsdOIG378uWuC_7typenum4uint4UIntIB1a_IB1a_IB1a_IB1a_IB1a_NtB1c_5UTermNtNtB1e_3bit2B1EB2l_ENtB2n_2B0EB2l_EB2l_EB2l_EEINtNtCskumHb0IaX0X_4core7convert4FromRApj37_E4fromB7_
FN:153,_RNvXININtCsek14CzwTA2s_13generic_array5implss5s_0pEQINtB7_12GenericArraypINtNtCsdOIG378uWuC_7typenum4uint4UIntIB1a_IB1a_IB1a_IB1a_IB1a_NtB1c_5UTermNtNtB1e_3bit2B1EB2l_ENtB2n_2B0EB2l_EB2l_EB2l_EEINtNtCskumHb0IaX0X_4core7convert4FromQApj37_E4fromB7_
FN:168,_RNvXININtCsek14CzwTA2s_13generic_array5implss5t_0pEINtB7_12GenericArraypINtNtCsdOIG378uWuC_7typenum4uint4UIntIB19_IB19_IB19_IB19_IB19_NtB1b_5UTermNtNtB1d_3bit2B1EB2k_ENtB2m_2B0EB2k_EB2k_EB2k_EEINtNtCskumHb0IaX0X_4core7convert5AsRefApj37_E6as_refB7_
FN:175,_RNvXININtCsek14CzwTA2s_13generic_array5implss5u_0pEINtB7_12GenericArraypINtNtCsdOIG378uWuC_7typenum4uint4UIntIB19_IB19_IB19_IB19_IB19_NtB1b_5UTermNtNtB1d_3bit2B1EB2k_ENtB2m_2B0EB2k_EB2k_EB2k_EEINtNtCskumHb0IaX0X_4core7convert5AsMutApj37_E6as_mutB7_
FN:131,_RNvXININtCsek14CzwTA2s_13generic_array5implss5v_0pEINtB7_12GenericArraypINtNtCsdOIG378uWuC_7typenum4uint4UIntIB19_IB19_IB19_IB19_IB19_NtB1b_5UTermNtNtB1d_3bit2B1EB2k_EB2k_ENtB2m_2B0EB2K_EB2K_EEINtNtCskumHb0IaX0X_4core7convert4FromApj38_E4fromB7_
FN:139,_RNvXININtCsek14CzwTA2s_13generic_array5implss5w_0pEApj38_INtNtCskumHb0IaX0X_4core7convert4FromINtB7_12GenericArraypINtNtCsdOIG378uWuC_7typenum4uint4UIntIB1Q_IB1Q_IB1Q_IB1Q_IB1Q_NtB1S_5UTermNtNtB1U_3bit2B1EB31_EB31_ENtB33_2B0EB3r_EB3r_EEE4fromB7_
FN:146,_RNvXININtCsek14CzwTA2s_13generic_array5implss5x_0pERINtB7_12GenericArraypINtNtCsdOIG378uWuC_7typenum4uint4UIntIB1a_IB1a_IB1a_IB1a_IB1a_NtB1c_5UTermNtNtB1e_3bit2B1EB2l_EB2l_ENtB2n_2B0EB2L_EB2L_EEINtNtCskumHb0IaX0X_4core7convert4FromRApj38_E4fromB7_
FN:153,_RNvXININtCsek14CzwTA2s_13generic_array5implss5y_0pEQINtB7_12GenericArraypINtNtCsdOIG378uWuC_7typenum4uint4UIntIB1a_IB1a_IB1a_IB1a_IB1a_NtB1c_5UTermNtNtB1e_3bit2B1EB2l_EB2l_ENtB2n_2B0EB2L_EB2L_EEINtNtCskumHb0IaX0X_4core7convert4FromQApj38_E4fromB7_
FN:168,_RNvXININtCsek14CzwTA2s_13generic_array5implss5z_0pEINtB7_12GenericArraypINtNtCsdOIG378uWuC_7typenum4uint4UIntIB19_IB19_IB19_IB19_IB19_NtB1b_5UTermNtNtB1d_3bit2B1EB2k_EB2k_ENtB2m_2B0EB2K_EB2K_EEINtNtCskumHb0IaX0X_4core7convert5AsRefApj38_E6as_refB7_
FN:139,_RNvXININtCsek14CzwTA2s_13generic_array5implss60_0pEApj3d_INtNtCskumHb0IaX0X_4core7convert4FromINtB7_12GenericArraypINtNtCsdOIG378uWuC_7typenum4uint4UIntIB1Q_IB1Q_IB1Q_IB1Q_IB1Q_NtB1S_5UTermNtNtB1U_3bit2B1EB31_EB31_EB31_ENtB33_2B0EB31_EEE4fromB7_
FN:146,_RNvXININtCsek14CzwTA2s_13generic_array5implss61_0pERINtB7_12GenericArraypINtNtCsdOIG378uWuC_7typenum4uint4UIntIB1a_IB1a_IB1a_IB1a_IB1a_NtB1c_5UTermNtNtB1e_3bit2B1EB2l_EB2l_EB2l_ENtB2n_2B0EB2l_EEINtNtCskumHb0IaX0X_4core7convert4FromRApj3d_E4fromB7_
FN:153,_RNvXININtCsek14CzwTA2s_13generic_array5implss62_0pEQINtB7_12GenericArraypINtNtCsdOIG378uWuC_7typenum4uint4UIntIB1a_IB1a_IB1a_IB1a_IB1a_NtB1c_5UTermNtNtB1e_3bit2B1EB2l_EB2l_EB2l_ENtB2n_2B0EB2l_EEINtNtCskumHb0IaX0X_4core7convert4FromQApj3d_E4fromB7_
FN:168,_RNvXININtCsek14CzwTA2s_13generic_array5implss63_0pEINtB7_12GenericArraypINtNtCsdOIG378uWuC_7typenum4uint4UIntIB19_IB19_IB19_IB19_IB19_NtB1b_5UTermNtNtB1d_3bit2B1EB2k_EB2k_EB2k_ENtB2m_2B0EB2k_EEINtNtCskumHb0IaX0X_4core7convert5AsRefApj3d_E6as_refB7_
FN:175,_RNvXININtCsek14CzwTA2s_13generic_array5implss64_0pEINtB7_12GenericArraypINtNtCsdOIG378uWuC_7typenum4uint4UIntIB19_IB19_IB19_IB19_IB19_NtB1b_5UTermNtNtB1d_3bit2B1EB2k_EB2k_EB2k_ENtB2m_2B0EB2k_EEINtNtCskumHb0IaX0X_4core7convert5AsMutApj3d_E6as_mutB7_
FN:131,_RNvXININtCsek14CzwTA2s_13generic_array5implss65_0pEINtB7_12GenericArraypINtNtCsdOIG378uWuC_7typenum4uint4UIntIB19_IB19_IB19_IB19_IB19_NtB1b_5UTermNtNtB1d_3bit2B1EB2k_EB2k_EB2k_EB2k_ENtB2m_2B0EEINtNtCskumHb0IaX0X_4core7convert4FromApj3e_E4fromB7_
FN:139,_RNvXININtCsek14CzwTA2s_13generic_array5implss66_0pEApj3e_INtNtCskumHb0IaX0X_4core7convert4FromINtB7_12GenericArraypINtNtCsdOIG378uWuC_7typenum4uint4UIntIB1Q_IB1Q_IB1Q_IB1Q_IB1Q_NtB1S_5UTermNtNtB1U_3bit2B1EB31_EB31_EB31_EB31_ENtB33_2B0EEE4fromB7_
FN:146,_RNvXININtCsek14CzwTA2s_13generic_array5implss67_0pERINtB7_12GenericArraypINtNtCsdOIG378uWuC_7typenum4uint4UIntIB1a_IB1a_IB1a_IB1a_IB1a_NtB1c_5UTermNtNtB1e_3bit2B1EB2l_EB2l_EB2l_EB2l_ENtB2n_2B0EEINtNtCskumHb0IaX0X_4core7convert4FromRApj3e_E4fromB7_
FN:153,_RNvXININtCsek14CzwTA2s_13generic_array5implss68_0pEQINtB7_12GenericArraypINtNtCsdOIG378uWuC_7typenum4uint4UIntIB1a_IB1a_IB1a_IB1a_IB1a_NtB1c_5UTermNtNtB1e_3bit2B1EB2l_EB2l_EB2l_EB2l_ENtB2n_2B0EEINtNtCskumHb0IaX0X_4core7convert4FromQApj3e_E4fromB7_
FN:168,_RNvXININtCsek14CzwTA2s_13generic_array5implss69_0pEINtB7_12GenericArraypINtNtCsdOIG378uWuC_7typenum4uint4UIntIB19_IB19_IB19_IB19_IB19_NtB1b_5UTermNtNtB1d_3bit2B1EB2k_EB2k_EB2k_EB2k_ENtB2m_2B0EEINtNtCskumHb0IaX0X_4core7convert5AsRefApj3e_E6as_refB7_
FN:139,_RNvXININtCsek14CzwTA2s_13generic_array5implss6A_0pEApj5a_INtNtCskumHb0IaX0X_4core7convert4FromINtB7_12GenericArraypINtNtCsdOIG378uWuC_7typenum4uint4UIntIB1Q_IB1Q_IB1Q_IB1Q_IB1Q_IB1Q_NtB1S_5UTermNtNtB1U_3bit2B1ENtB38_2B0EB36_EB36_EB3m_EB36_EB3m_EEE4fromB7_
FN:146,_RNvXININtCsek14CzwTA2s_13generic_array5implss6B_0pERINtB7_12GenericArraypINtNtCsdOIG378uWuC_7typenum4uint4UIntIB1a_IB1a_IB1a_IB1a_IB1a_IB1a_NtB1c_5UTermNtNtB1e_3bit2B1ENtB2s_2B0EB2q_EB2q_EB2G_EB2q_EB2G_EEINtNtCskumHb0IaX0X_4core7convert4FromRApj5a_E4fromB7_
FN:153,_RNvXININtCsek14CzwTA2s_13generic_array5implss6C_0pEQINtB7_12GenericArraypINtNtCsdOIG378uWuC_7typenum4uint4UIntIB1a_IB1a_IB1a_IB1a_IB1a_IB1a_NtB1c_5UTermNtNtB1e_3bit2B1ENtB2s_2B0EB2q_EB2q_EB2G_EB2q_EB2G_EEINtNtCskumHb0IaX0X_4core7convert4FromQApj5a_E4fromB7_
FN:168,_RNvXININtCsek14CzwTA2s_13generic_array5implss6D_0pEINtB7_12GenericArraypINtNtCsdOIG378uWuC_7typenum4uint4UIntIB19_IB19_IB19_IB19_IB19_IB19_NtB1b_5UTermNtNtB1d_3bit2B1ENtB2r_2B0EB2p_EB2p_EB2F_EB2p_EB2F_EEINtNtCskumHb0IaX0X_4core7convert5AsRefApj5a_E6as_refB7_
FN:175,_RNvXININtCsek14CzwTA2s_13generic_array5implss6E_0pEINtB7_12GenericArraypINtNtCsdOIG378uWuC_7typenum4uint4UIntIB19_IB19_IB19_IB19_IB19_IB19_NtB1b_5UTermNtNtB1d_3bit2B1ENtB2r_2B0EB2p_EB2p_EB2F_EB2p_EB2F_EEINtNtCskumHb0IaX0X_4core7convert5AsMutApj5a_E6as_mutB7_
FN:131,_RNvXININtCsek14CzwTA2s_13generic_array5implss6F_0pEINtB7_12GenericArraypINtNtCsdOIG378uWuC_7typenum4uint4UIntIB19_IB19_IB19_IB19_IB19_IB19_NtB1b_5UTermNtNtB1d_3bit2B1EB2p_ENtB2r_2B0EB2K_EB2p_EB2K_EB2K_EEINtNtCskumHb0IaX0X_4core7convert4FromApj64_E4fromB7_
FN:139,_RNvXININtCsek14CzwTA2s_13generic_array5implss6G_0pEApj64_INtNtCskumHb0IaX0X_4core7convert4FromINtB7_12GenericArraypINtNtCsdOIG378uWuC_7typenum4uint4UIntIB1Q_IB1Q_IB1Q_IB1Q_IB1Q_IB1Q_NtB1S_5UTermNtNtB1U_3bit2B1EB36_ENtB38_2B0EB3r_EB36_EB3r_EB3r_EEE4fromB7_
FN:146,_RNvXININtCsek14CzwTA2s_13generic_array5implss6H_0pERINtB7_12GenericArraypINtNtCsdOIG378uWuC_7typenum4uint4UIntIB1a_IB1a_IB1a_IB1a_IB1a_IB1a_NtB1c_5UTermNtNtB1e_3bit2B1EB2q_ENtB2s_2B0EB2L_EB2q_EB2L_EB2L_EEINtNtCskumHb0IaX0X_4core7convert4FromRApj64_E4fromB7_
FN:153,_RNvXININtCsek14CzwTA2s_13generic_array5implss6I_0pEQINtB7_12GenericArraypINtNtCsdOIG378uWuC_7typenum4uint4UIntIB1a_IB1a_IB1a_IB1a_IB1a_IB1a_NtB1c_5UTermNtNtB1e_3bit2B1EB2q_ENtB2s_2B0EB2L_EB2q_EB2L_EB2L_EEINtNtCskumHb0IaX0X_4core7convert4FromQApj64_E4fromB7_
FN:168,_RNvXININtCsek14CzwTA2s_13generic_array5implss6J_0pEINtB7_12GenericArraypINtNtCsdOIG378uWuC_7typenum4uint4UIntIB19_IB19_IB19_IB19_IB19_IB19_NtB1b_5UTermNtNtB1d_3bit2B1EB2p_ENtB2r_2B0EB2K_EB2p_EB2K_EB2K_EEINtNtCskumHb0IaX0X_4core7convert5AsRefApj64_E6as_refB7_
FN:175,_RNvXININtCsek14CzwTA2s_13generic_array5implss6K_0pEINtB7_12GenericArraypINtNtCsdOIG378uWuC_7typenum4uint4UIntIB19_IB19_IB19_IB19_IB19_IB19_NtB1b_5UTermNtNtB1d_3bit2B1EB2p_ENtB2r_2B0EB2K_EB2p_EB2K_EB2K_EEINtNtCskumHb0IaX0X_4core7convert5AsMutApj64_E6as_mutB7_
FN:131,_RNvXININtCsek14CzwTA2s_13generic_array5implss6L_0pEINtB7_12GenericArraypINtNtCsdOIG378uWuC_7typenum4uint4UIntIB19_IB19_IB19_IB19_IB19_IB19_IB19_NtB1b_5UTermNtNtB1d_3bit2B1EB2u_ENtB2w_2B0EB2P_EB2u_EB2P_EB2P_EB2P_EEINtNtCskumHb0IaX0X_4core7convert4FromApjc8_E4fromB7_
FN:139,_RNvXININtCsek14CzwTA2s_13generic_array5implss6M_0pEApjc8_INtNtCskumHb0IaX0X_4core7convert4FromINtB7_12GenericArraypINtNtCsdOIG378uWuC_7typenum4uint4UIntIB1Q_IB1Q_IB1Q_IB1Q_IB1Q_IB1Q_IB1Q_NtB1S_5UTermNtNtB1U_3bit2B1EB3b_ENtB3d_2B0EB3w_EB3b_EB3w_EB3w_EB3w_EEE4fromB7_
FN:146,_RNvXININtCsek14CzwTA2s_13generic_array5implss6N_0pERINtB7_12GenericArraypINtNtCsdOIG378uWuC_7typenum4uint4UIntIB1a_IB1a_IB1a_IB1a_IB1a_IB1a_IB1a_NtB1c_5UTermNtNtB1e_3bit2B1EB2v_ENtB2x_2B0EB2Q_EB2v_EB2Q_EB2Q_EB2Q_EEINtNtCskumHb0IaX0X_4core7convert4FromRApjc8_E4fromB7_
FN:153,_RNvXININtCsek14CzwTA2s_13generic_array5implss6O_0pEQINtB7_12GenericArraypINtNtCsdOIG378uWuC_7typenum4uint4UIntIB1a_IB1a_IB1a_IB1a_IB1a_IB1a_IB1a_NtB1c_5UTermNtNtB1e_3bit2B1EB2v_ENtB2x_2B0EB2Q_EB2v_EB2Q_EB2Q_EB2Q_EEINtNtCskumHb0IaX0X_4core7convert4FromQApjc8_E4fromB7_
FN:168,_RNvXININtCsek14CzwTA2s_13generic_array5implss6P_0pEINtB7_12GenericArraypINtNtCsdOIG378uWuC_7typenum4uint4UIntIB19_IB19_IB19_IB19_IB19_IB19_IB19_NtB1b_5UTermNtNtB1d_3bit2B1EB2u_ENtB2w_2B0EB2P_EB2u_EB2P_EB2P_EB2P_EEINtNtCskumHb0IaX0X_4core7convert5AsRefApjc8_E6as_refB7_
FN:175,_RNvXININtCsek14CzwTA2s_13generic_array5implss6Q_0pEINtB7_12GenericArraypINtNtCsdOIG378uWuC_7typenum4uint4UIntIB19_IB19_IB19_IB19_IB19_IB19_IB19_NtB1b_5UTermNtNtB1d_3bit2B1EB2u_ENtB2w_2B0EB2P_EB2u_EB2P_EB2P_EB2P_EEINtNtCskumHb0IaX0X_4core7convert5AsMutApjc8_E6as_mutB7_
FN:131,_RNvXININtCsek14CzwTA2s_13generic_array5implss6R_0pEINtB7_12GenericArraypINtNtCsdOIG378uWuC_7typenum4uint4UIntIB19_IB19_IB19_IB19_IB19_IB19_IB19_IB19_NtB1b_5UTermNtNtB1d_3bit2B1ENtB2B_2B0EB2P_EB2z_EB2P_EB2z_EB2z_EB2P_EB2P_EEINtNtCskumHb0IaX0X_4core7convert4FromApj12c_E4fromB7_
FN:139,_RNvXININtCsek14CzwTA2s_13generic_array5implss6S_0pEApj12c_INtNtCskumHb0IaX0X_4core7convert4FromINtB7_12GenericArraypINtNtCsdOIG378uWuC_7typenum4uint4UIntIB1R_IB1R_IB1R_IB1R_IB1R_IB1R_IB1R_IB1R_NtB1T_5UTermNtNtB1V_3bit2B1ENtB3j_2B0EB3x_EB3h_EB3x_EB3h_EB3h_EB3x_EB3x_EEE4fromB7_
FN:146,_RNvXININtCsek14CzwTA2s_13generic_array5implss6T_0pERINtB7_12GenericArraypINtNtCsdOIG378uWuC_7typenum4uint4UIntIB1a_IB1a_IB1a_IB1a_IB1a_IB1a_IB1a_IB1a_NtB1c_5UTermNtNtB1e_3bit2B1ENtB2C_2B0EB2Q_EB2A_EB2Q_EB2A_EB2A_EB2Q_EB2Q_EEINtNtCskumHb0IaX0X_4core7convert4FromRApj12c_E4fromB7_
FN:153,_RNvXININtCsek14CzwTA2s_13generic_array5implss6U_0pEQINtB7_12GenericArraypINtNtCsdOIG378uWuC_7typenum4uint4UIntIB1a_IB1a_IB1a_IB1a_IB1a_IB1a_IB1a_IB1a_NtB1c_5UTermNtNtB1e_3bit2B1ENtB2C_2B0EB2Q_EB2A_EB2Q_EB2A_EB2A_EB2Q_EB2Q_EEINtNtCskumHb0IaX0X_4core7convert4FromQApj12c_E4fromB7_
FN:168,_RNvXININtCsek14CzwTA2s_13generic_array5implss6V_0pEINtB7_12GenericArraypINtNtCsdOIG378uWuC_7typenum4uint4UIntIB19_IB19_IB19_IB19_IB19_IB19_IB19_IB19_NtB1b_5UTermNtNtB1d_3bit2B1ENtB2B_2B0EB2P_EB2z_EB2P_EB2z_EB2z_EB2P_EB2P_EEINtNtCskumHb0IaX0X_4core7convert5AsRefApj12c_E6as_refB7_
FN:175,_RNvXININtCsek14CzwTA2s_13generic_array5implss6W_0pEINtB7_12GenericArraypINtNtCsdOIG378uWuC_7typenum4uint4UIntIB19_IB19_IB19_IB19_IB19_IB19_IB19_IB19_NtB1b_5UTermNtNtB1d_3bit2B1ENtB2B_2B0EB2P_EB2z_EB2P_EB2z_EB2z_EB2P_EB2P_EEINtNtCskumHb0IaX0X_4core7convert5AsMutApj12c_E6as_mutB7_
FN:131,_RNvXININtCsek14CzwTA2s_13generic_array5implss6X_0pEINtB7_12GenericArraypINtNtCsdOIG378uWuC_7typenum4uint4UIntIB19_IB19_IB19_IB19_IB19_IB19_IB19_IB19_NtB1b_5UTermNtNtB1d_3bit2B1EB2z_ENtB2B_2B0EB2U_EB2z_EB2U_EB2U_EB2U_EB2U_EEINtNtCskumHb0IaX0X_4core7convert4FromApj190_E4fromB7_
FN:139,_RNvXININtCsek14CzwTA2s_13generic_array5implss6Y_0pEApj190_INtNtCskumHb0IaX0X_4core7convert4FromINtB7_12GenericArraypINtNtCsdOIG378uWuC_7typenum4uint4UIntIB1R_IB1R_IB1R_IB1R_IB1R_IB1R_IB1R_IB1R_NtB1T_5UTermNtNtB1V_3bit2B1EB3h_ENtB3j_2B0EB3C_EB3h_EB3C_EB3C_EB3C_EB3C_EEE4fromB7_
FN:146,_RNvXININtCsek14CzwTA2s_13generic_array5implss6Z_0pERINtB7_12GenericArraypINtNtCsdOIG378uWuC_7typenum4uint4UIntIB1a_IB1a_IB1a_IB1a_IB1a_IB1a_IB1a_IB1a_NtB1c_5UTermNtNtB1e_3bit2B1EB2A_ENtB2C_2B0EB2V_EB2A_EB2V_EB2V_EB2V_EB2V_EEINtNtCskumHb0IaX0X_4core7convert4FromRApj190_E4fromB7_
FN:79,_RNvXININtCsek14CzwTA2s_13generic_array5implss6_0ppEINtB7_12GenericArrayppEINtNtCskumHb0IaX0X_4core6borrow6BorrowSpE6borrowB7_
FN:175,_RNvXININtCsek14CzwTA2s_13generic_array5implss6a_0pEINtB7_12GenericArraypINtNtCsdOIG378uWuC_7typenum4uint4UIntIB19_IB19_IB19_IB19_IB19_NtB1b_5UTermNtNtB1d_3bit2B1EB2k_EB2k_EB2k_EB2k_ENtB2m_2B0EEINtNtCskumHb0IaX0X_4core7convert5AsMutApj3e_E6as_mutB7_
FN:131,_RNvXININtCsek14CzwTA2s_13generic_array5implss6b_0pEINtB7_12GenericArraypINtNtCsdOIG378uWuC_7typenum4uint4UIntIB19_IB19_IB19_IB19_IB19_NtB1b_5UTermNtNtB1d_3bit2B1EB2k_EB2k_EB2k_EB2k_EB2k_EEINtNtCskumHb0IaX0X_4core7convert4FromApj3f_E4fromB7_
FN:139,_RNvXININtCsek14CzwTA2s_13generic_array5implss6c_0pEApj3f_INtNtCskumHb0IaX0X_4core7convert4FromINtB7_12GenericArraypINtNtCsdOIG378uWuC_7typenum4uint4UIntIB1Q_IB1Q_IB1Q_IB1Q_IB1Q_NtB1S_5UTermNtNtB1U_3bit2B1EB31_EB31_EB31_EB31_EB31_EEE4fromB7_
FN:146,_RNvXININtCsek14CzwTA2s_13generic_array5implss6d_0pERINtB7_12GenericArraypINtNtCsdOIG378uWuC_7typenum4uint4UIntIB1a_IB1a_IB1a_IB1a_IB1a_NtB1c_5UTermNtNtB1e_3bit2B1EB2l_EB2l_EB2l_EB2l_EB2l_EEINtNtCskumHb0IaX0X_4core7convert4FromRApj3f_E4fromB7_
FN:153,_RNvXININtCsek14CzwTA2s_13generic_array5implss6e_0pEQINtB7_12GenericArraypINtNtCsdOIG378uWuC_7typenum4uint4UIntIB1a_IB1a_IB1a_IB1a_IB1a_NtB1c_5UTermNtNtB1e_3bit2B1EB2l_EB2l_EB2l_EB2l_EB2l_EEINtNtCskumHb0IaX0X_4core7convert4FromQApj3f_E4fromB7_
FN:168,_RNvXININtCsek14CzwTA2s_13generic_array5implss6f_0pEINtB7_12GenericArraypINtNtCsdOIG378uWuC_7typenum4uint4UIntIB19_IB19_IB19_IB19_IB19_NtB1b_5UTermNtNtB1d_3bit2B1EB2k_EB2k_EB2k_EB2k_EB2k_EEINtNtCskumHb0IaX0X_4core7convert5AsRefApj3f_E6as_refB7_
FN:175,_RNvXININtCsek14CzwTA2s_13generic_array5implss6g_0pEINtB7_12GenericArraypINtNtCsdOIG378uWuC_7typenum4uint4UIntIB19_IB19_IB19_IB19_IB19_NtB1b_5UTermNtNtB1d_3bit2B1EB2k_EB2k_EB2k_EB2k_EB2k_EEINtNtCskumHb0IaX0X_4core7convert5AsMutApj3f_E6as_mutB7_
FN:131,_RNvXININtCsek14CzwTA2s_13generic_array5implss6h_0pEINtB7_12GenericArraypINtNtCsdOIG378uWuC_7typenum4uint4UIntIB19_IB19_IB19_IB19_IB19_IB19_NtB1b_5UTermNtNtB1d_3bit2B1ENtB2r_2B0EB2F_EB2F_EB2F_EB2F_EB2F_EEINtNtCskumHb0IaX0X_4core7convert4FromApj40_E4fromB7_
FN:139,_RNvXININtCsek14CzwTA2s_13generic_array5implss6i_0pEApj40_INtNtCskumHb0IaX0X_4core7convert4FromINtB7_12GenericArraypINtNtCsdOIG378uWuC_7typenum4uint4UIntIB1Q_IB1Q_IB1Q_IB1Q_IB1Q_IB1Q_NtB1S_5UTermNtNtB1U_3bit2B1ENtB38_2B0EB3m_EB3m_EB3m_EB3m_EB3m_EEE4fromB7_
FN:146,_RNvXININtCsek14CzwTA2s_13generic_array5implss6j_0pERINtB7_12GenericArraypINtNtCsdOIG378uWuC_7typenum4uint4UIntIB1a_IB1a_IB1a_IB1a_IB1a_IB1a_NtB1c_5UTermNtNtB1e_3bit2B1ENtB2s_2B0EB2G_EB2G_EB2G_EB2G_EB2G_EEINtNtCskumHb0IaX0X_4core7convert4FromRApj40_E4fromB7_
FN:153,_RNvXININtCsek14CzwTA2s_13generic_array5implss6k_0pEQINtB7_12GenericArraypINtNtCsdOIG378uWuC_7typenum4uint4UIntIB1a_IB1a_IB1a_IB1a_IB1a_IB1a_NtB1c_5UTermNtNtB1e_3bit2B1ENtB2s_2B0EB2G_EB2G_EB2G_EB2G_EB2G_EEINtNtCskumHb0IaX0X_4core7convert4FromQApj40_E4fromB7_
FN:168,_RNvXININtCsek14CzwTA2s_13generic_array5implss6l_0pEINtB7_12GenericArraypINtNtCsdOIG378uWuC_7typenum4uint4UIntIB19_IB19_IB19_IB19_IB19_IB19_NtB1b_5UTermNtNtB1d_3bit2B1ENtB2r_2B0EB2F_EB2F_EB2F_EB2F_EB2F_EEINtNtCskumHb0IaX0X_4core7convert5AsRefApj40_E6as_refB7_
FN:175,_RNvXININtCsek14CzwTA2s_13generic_array5implss6m_0pEINtB7_12GenericArraypINtNtCsdOIG378uWuC_7typenum4uint4UIntIB19_IB19_IB19_IB19_IB19_IB19_NtB1b_5UTermNtNtB1d_3bit2B1ENtB2r_2B0EB2F_EB2F_EB2F_EB2F_EB2F_EEINtNtCskumHb0IaX0X_4core7convert5AsMutApj40_E6as_mutB7_
FN:131,_RNvXININtCsek14CzwTA2s_13generic_array5implss6n_0pEINtB7_12GenericArraypINtNtCsdOIG378uWuC_7typenum4uint4UIntIB19_IB19_IB19_IB19_IB19_IB19_NtB1b_5UTermNtNtB1d_3bit2B1ENtB2r_2B0EB2F_EB2F_EB2p_EB2p_EB2F_EEINtNtCskumHb0IaX0X_4core7convert4FromApj46_E4fromB7_
FN:139,_RNvXININtCsek14CzwTA2s_13generic_array5implss6o_0pEApj46_INtNtCskumHb0IaX0X_4core7convert4FromINtB7_12GenericArraypINtNtCsdOIG378uWuC_7typenum4uint4UIntIB1Q_IB1Q_IB1Q_IB1Q_IB1Q_IB1Q_NtB1S_5UTermNtNtB1U_3bit2B1ENtB38_2B0EB3m_EB3m_EB36_EB36_EB3m_EEE4fromB7_
FN:146,_RNvXININtCsek14CzwTA2s_13generic_array5implss6p_0pERINtB7_12GenericArraypINtNtCsdOIG378uWuC_7typenum4uint4UIntIB1a_IB1a_IB1a_IB1a_IB1a_IB1a_NtB1c_5UTermNtNtB1e_3bit2B1ENtB2s_2B0EB2G_EB2G_EB2q_EB2q_EB2G_EEINtNtCskumHb0IaX0X_4core7convert4FromRApj46_E4fromB7_
FN:153,_RNvXININtCsek14CzwTA2s_13generic_array5implss6q_0pEQINtB7_12GenericArraypINtNtCsdOIG378uWuC_7typenum4uint4UIntIB1a_IB1a_IB1a_IB1a_IB1a_IB1a_NtB1c_5UTermNtNtB1e_3bit2B1ENtB2s_2B0EB2G_EB2G_EB2q_EB2q_EB2G_EEINtNtCskumHb0IaX0X_4core7convert4FromQApj46_E4fromB7_
FN:168,_RNvXININtCsek14CzwTA2s_13generic_array5implss6r_0pEINtB7_12GenericArraypINtNtCsdOIG378uWuC_7typenum4uint4UIntIB19_IB19_IB19_IB19_IB19_IB19_NtB1b_5UTermNtNtB1d_3bit2B1ENtB2r_2B0EB2F_EB2F_EB2p_EB2p_EB2F_EEINtNtCskumHb0IaX0X_4core7convert5AsRefApj46_E6as_refB7_
FN:175,_RNvXININtCsek14CzwTA2s_13generic_array5implss6s_0pEINtB7_12GenericArraypINtNtCsdOIG378uWuC_7typenum4uint4UIntIB19_IB19_IB19_IB19_IB19_IB19_NtB1b_5UTermNtNtB1d_3bit2B1ENtB2r_2B0EB2F_EB2F_EB2p_EB2p_EB2F_EEINtNtCskumHb0IaX0X_4core7convert5AsMutApj46_E6as_mutB7_
FN:131,_RNvXININtCsek14CzwTA2s_13generic_array5implss6t_0pEINtB7_12GenericArraypINtNtCsdOIG378uWuC_7typenum4uint4UIntIB19_IB19_IB19_IB19_IB19_IB19_NtB1b_5UTermNtNtB1d_3bit2B1ENtB2r_2B0EB2p_EB2F_EB2F_EB2F_EB2F_EEINtNtCskumHb0IaX0X_4core7convert4FromApj50_E4fromB7_
FN:139,_RNvXININtCsek14CzwTA2s_13generic_array5implss6u_0pEApj50_INtNtCskumHb0IaX0X_4core7convert4FromINtB7_12GenericArraypINtNtCsdOIG378uWuC_7typenum4uint4UIntIB1Q_IB1Q_IB1Q_IB1Q_IB1Q_IB1Q_NtB1S_5UTermNtNtB1U_3bit2B1ENtB38_2B0EB36_EB3m_EB3m_EB3m_EB3m_EEE4fromB7_
FN:146,_RNvXININtCsek14CzwTA2s_13generic_array5implss6v_0pERINtB7_12GenericArraypINtNtCsdOIG378uWuC_7typenum4uint4UIntIB1a_IB1a_IB1a_IB1a_IB1a_IB1a_NtB1c_5UTermNtNtB1e_3bit2B1ENtB2s_2B0EB2q_EB2G_EB2G_EB2G_EB2G_EEINtNtCskumHb0IaX0X_4core7convert4FromRApj50_E4fromB7_
FN:153,_RNvXININtCsek14CzwTA2s_13generic_array5implss6w_0pEQINtB7_12GenericArraypINtNtCsdOIG378uWuC_7typenum4uint4UIntIB1a_IB1a_IB1a_IB1a_IB1a_IB1a_NtB1c_5UTermNtNtB1e_3bit2B1ENtB2s_2B0EB2q_EB2G_EB2G_EB2G_EB2G_EEINtNtCskumHb0IaX0X_4core7convert4FromQApj50_E4fromB7_
FN:168,_RNvXININtCsek14CzwTA2s_13generic_array5implss6x_0pEINtB7_12GenericArraypINtNtCsdOIG378uWuC_7typenum4uint4UIntIB19_IB19_IB19_IB19_IB19_IB19_NtB1b_5UTermNtNtB1d_3bit2B1ENtB2r_2B0EB2p_EB2F_EB2F_EB2F_EB2F_EEINtNtCskumHb0IaX0X_4core7convert5AsRefApj50_E6as_refB7_
FN:175,_RNvXININtCsek14CzwTA2s_13generic_array5implss6y_0pEINtB7_12GenericArraypINtNtCsdOIG378uWuC_7typenum4uint4UIntIB19_IB19_IB19_IB19_IB19_IB19_NtB1b_5UTermNtNtB1d_3bit2B1ENtB2r_2B0EB2p_EB2F_EB2F_EB2F_EB2F_EEINtNtCskumHb0IaX0X_4core7convert5AsMutApj50_E6as_mutB7_
FN:131,_RNvXININtCsek14CzwTA2s_13generic_array5implss6z_0pEINtB7_12GenericArraypINtNtCsdOIG378uWuC_7typenum4uint4UIntIB19_IB19_IB19_IB19_IB19_IB19_NtB1b_5UTermNtNtB1d_3bit2B1ENtB2r_2B0EB2p_EB2p_EB2F_EB2p_EB2F_EEINtNtCskumHb0IaX0X_4core7convert4FromApj5a_E4fromB7_
FN:153,_RNvXININtCsek14CzwTA2s_13generic_array5implss70_0pEQINtB7_12GenericArraypINtNtCsdOIG378uWuC_7typenum4uint4UIntIB1a_IB1a_IB1a_IB1a_IB1a_IB1a_IB1a_IB1a_NtB1c_5UTermNtNtB1e_3bit2B1EB2A_ENtB2C_2B0EB2V_EB2A_EB2V_EB2V_EB2V_EB2V_EEINtNtCskumHb0IaX0X_4core7convert4FromQApj190_E4fromB7_
FN:168,_RNvXININtCsek14CzwTA2s_13generic_array5implss71_0pEINtB7_12GenericArraypINtNtCsdOIG378uWuC_7typenum4uint4UIntIB19_IB19_IB19_IB19_IB19_IB19_IB19_IB19_NtB1b_5UTermNtNtB1d_3bit2B1EB2z_ENtB2B_2B0EB2U_EB2z_EB2U_EB2U_EB2U_EB2U_EEINtNtCskumHb0IaX0X_4core7convert5AsRefApj190_E6as_refB7_
FN:175,_RNvXININtCsek14CzwTA2s_13generic_array5implss72_0pEINtB7_12GenericArraypINtNtCsdOIG378uWuC_7typenum4uint4UIntIB19_IB19_IB19_IB19_IB19_IB19_IB19_IB19_NtB1b_5UTermNtNtB1d_3bit2B1EB2z_ENtB2B_2B0EB2U_EB2z_EB2U_EB2U_EB2U_EB2U_EEINtNtCskumHb0IaX0X_4core7convert5AsMutApj190_E6as_mutB7_
FN:131,_RNvXININtCsek14CzwTA2s_13generic_array5implss73_0pEINtB7_12GenericArraypINtNtCsdOIG378uWuC_7typenum4uint4UIntIB19_IB19_IB19_IB19_IB19_IB19_IB19_IB19_NtB1b_5UTermNtNtB1d_3bit2B1EB2z_EB2z_EB2z_EB2z_ENtB2B_2B0EB2z_EB39_EB39_EEINtNtCskumHb0IaX0X_4core7convert4FromApj1f4_E4fromB7_
FN:139,_RNvXININtCsek14CzwTA2s_13generic_array5implss74_0pEApj1f4_INtNtCskumHb0IaX0X_4core7convert4FromINtB7_12GenericArraypINtNtCsdOIG378uWuC_7typenum4uint4UIntIB1R_IB1R_IB1R_IB1R_IB1R_IB1R_IB1R_IB1R_NtB1T_5UTermNtNtB1V_3bit2B1EB3h_EB3h_EB3h_EB3h_ENtB3j_2B0EB3h_EB3R_EB3R_EEE4fromB7_
FN:146,_RNvXININtCsek14CzwTA2s_13generic_array5implss75_0pERINtB7_12GenericArraypINtNtCsdOIG378uWuC_7typenum4uint4UIntIB1a_IB1a_IB1a_IB1a_IB1a_IB1a_IB1a_IB1a_NtB1c_5UTermNtNtB1e_3bit2B1EB2A_EB2A_EB2A_EB2A_ENtB2C_2B0EB2A_EB3a_EB3a_EEINtNtCskumHb0IaX0X_4core7convert4FromRApj1f4_E4fromB7_
FN:153,_RNvXININtCsek14CzwTA2s_13generic_array5implss76_0pEQINtB7_12GenericArraypINtNtCsdOIG378uWuC_7typenum4uint4UIntIB1a_IB1a_IB1a_IB1a_IB1a_IB1a_IB1a_IB1a_NtB1c_5UTermNtNtB1e_3bit2B1EB2A_EB2A_EB2A_EB2A_ENtB2C_2B0EB2A_EB3a_EB3a_EEINtNtCskumHb0IaX0X_4core7convert4FromQApj1f4_E4fromB7_
FN:168,_RNvXININtCsek14CzwTA2s_13generic_array5implss77_0pEINtB7_12GenericArraypINtNtCsdOIG378uWuC_7typenum4uint4UIntIB19_IB19_IB19_IB19_IB19_IB19_IB19_IB19_NtB1b_5UTermNtNtB1d_3bit2B1EB2z_EB2z_EB2z_EB2z_ENtB2B_2B0EB2z_EB39_EB39_EEINtNtCskumHb0IaX0X_4core7convert5AsRefApj1f4_E6as_refB7_
FN:175,_RNvXININtCsek14CzwTA2s_13generic_array5implss78_0pEINtB7_12GenericArraypINtNtCsdOIG378uWuC_7typenum4uint4UIntIB19_IB19_IB19_IB19_IB19_IB19_IB19_IB19_NtB1b_5UTermNtNtB1d_3bit2B1EB2z_EB2z_EB2z_EB2z_ENtB2B_2B0EB2z_EB39_EB39_EEINtNtCskumHb0IaX0X_4core7convert5AsMutApj1f4_E6as_mutB7_
FN:131,_RNvXININtCsek14CzwTA2s_13generic_array5implss79_0pEINtB7_12GenericArraypINtNtCsdOIG378uWuC_7typenum4uint4UIntIB19_IB19_IB19_IB19_IB19_IB19_IB19_NtB1b_5UTermNtNtB1d_3bit2B1ENtB2w_2B0EB2K_EB2K_EB2K_EB2K_EB2K_EB2K_EEINtNtCskumHb0IaX0X_4core7convert4FromApj80_E4fromB7_
FN:153,_RNvXININtCsek14CzwTA2s_13generic_array5implss7A_0pEQINtB7_12GenericArraypINtNtCsdOIG378uWuC_7typenum4uint4UIntIB1a_IB1a_IB1a_IB1a_IB1a_IB1a_IB1a_IB1a_IB1a_IB1a_NtB1c_5UTermNtNtB1e_3bit2B1ENtB2M_2B0EB30_EB30_EB30_EB30_EB30_EB30_EB30_EB30_EB30_EEINtNtCskumHb0IaX0X_4core7convert4FromQApj400_E4fromB7_
FN:168,_RNvXININtCsek14CzwTA2s_13generic_array5implss7B_0pEINtB7_12GenericArraypINtNtCsdOIG378uWuC_7typenum4uint4UIntIB19_IB19_IB19_IB19_IB19_IB19_IB19_IB19_IB19_IB19_NtB1b_5UTermNtNtB1d_3bit2B1ENtB2L_2B0EB2Z_EB2Z_EB2Z_EB2Z_EB2Z_EB2Z_EB2Z_EB2Z_EB2Z_EEINtNtCskumHb0IaX0X_4core7convert5AsRefApj400_E6as_refB7_
FN:175,_RNvXININtCsek14CzwTA2s_13generic_array5implss7C_0pEINtB7_12GenericArraypINtNtCsdOIG378uWuC_7typenum4uint4UIntIB19_IB19_IB19_IB19_IB19_IB19_IB19_IB19_IB19_IB19_NtB1b_5UTermNtNtB1d_3bit2B1ENtB2L_2B0EB2Z_EB2Z_EB2Z_EB2Z_EB2Z_EB2Z_EB2Z_EB2Z_EB2Z_EEINtNtCskumHb0IaX0X_4core7convert5AsMutApj400_E6as_mutB7_
FN:89,_RNvXININtCsek14CzwTA2s_13generic_array5implss7_0ppEINtB7_12GenericArrayppEINtNtCskumHb0IaX0X_4core6borrow9BorrowMutSpE10borrow_mutB7_
FN:139,_RNvXININtCsek14CzwTA2s_13generic_array5implss7a_0pEApj80_INtNtCskumHb0IaX0X_4core7convert4FromINtB7_12GenericArraypINtNtCsdOIG378uWuC_7typenum4uint4UIntIB1Q_IB1Q_IB1Q_IB1Q_IB1Q_IB1Q_IB1Q_NtB1S_5UTermNtNtB1U_3bit2B1ENtB3d_2B0EB3r_EB3r_EB3r_EB3r_EB3r_EB3r_EEE4fromB7_
FN:146,_RNvXININtCsek14CzwTA2s_13generic_array5implss7b_0pERINtB7_12GenericArraypINtNtCsdOIG378uWuC_7typenum4uint4UIntIB1a_IB1a_IB1a_IB1a_IB1a_IB1a_IB1a_NtB1c_5UTermNtNtB1e_3bit2B1ENtB2x_2B0EB2L_EB2L_EB2L_EB2L_EB2L_EB2L_EEINtNtCskumHb0IaX0X_4core7convert4FromRApj80_E4fromB7_
FN:153,_RNvXININtCsek14CzwTA2s_13generic_array5implss7c_0pEQINtB7_12GenericArraypINtNtCsdOIG378uWuC_7typenum4uint4UIntIB1a_IB1a_IB1a_IB1a_IB1a_IB1a_IB1a_NtB1c_5UTermNtNtB1e_3bit2B1ENtB2x_2B0EB2L_EB2L_EB2L_EB2L_EB2L_EB2L_EEINtNtCskumHb0IaX0X_4core7convert4FromQApj80_E4fromB7_
FN:168,_RNvXININtCsek14CzwTA2s_13generic_array5implss7d_0pEINtB7_12GenericArraypINtNtCsdOIG378uWuC_7typenum4uint4UIntIB19_IB19_IB19_IB19_IB19_IB19_IB19_NtB1b_5UTermNtNtB1d_3bit2B1ENtB2w_2B0EB2K_EB2K_EB2K_EB2K_EB2K_EB2K_EEINtNtCskumHb0IaX0X_4core7convert5AsRefApj80_E6as_refB7_
FN:175,_RNvXININtCsek14CzwTA2s_13generic_array5implss7e_0pEINtB7_12GenericArraypINtNtCsdOIG378uWuC_7typenum4uint4UIntIB19_IB19_IB19_IB19_IB19_IB19_IB19_NtB1b_5UTermNtNtB1d_3bit2B1ENtB2w_2B0EB2K_EB2K_EB2K_EB2K_EB2K_EB2K_EEINtNtCskumHb0IaX0X_4core7convert5AsMutApj80_E6as_mutB7_
FN:131,_RNvXININtCsek14CzwTA2s_13generic_array5implss7f_0pEINtB7_12GenericArraypINtNtCsdOIG378uWuC_7typenum4uint4UIntIB19_IB19_IB19_IB19_IB19_IB19_IB19_IB19_NtB1b_5UTermNtNtB1d_3bit2B1ENtB2B_2B0EB2P_EB2P_EB2P_EB2P_EB2P_EB2P_EB2P_EEINtNtCskumHb0IaX0X_4core7convert4FromApj100_E4fromB7_
FN:139,_RNvXININtCsek14CzwTA2s_13generic_array5implss7g_0pEApj100_INtNtCskumHb0IaX0X_4core7convert4FromINtB7_12GenericArraypINtNtCsdOIG378uWuC_7typenum4uint4UIntIB1R_IB1R_IB1R_IB1R_IB1R_IB1R_IB1R_IB1R_NtB1T_5UTermNtNtB1V_3bit2B1ENtB3j_2B0EB3x_EB3x_EB3x_EB3x_EB3x_EB3x_EB3x_EEE4fromB7_
FN:146,_RNvXININtCsek14CzwTA2s_13generic_array5implss7h_0pERINtB7_12GenericArraypINtNtCsdOIG378uWuC_7typenum4uint4UIntIB1a_IB1a_IB1a_IB1a_IB1a_IB1a_IB1a_IB1a_NtB1c_5UTermNtNtB1e_3bit2B1ENtB2C_2B0EB2Q_EB2Q_EB2Q_EB2Q_EB2Q_EB2Q_EB2Q_EEINtNtCskumHb0IaX0X_4core7convert4FromRApj100_E4fromB7_
FN:153,_RNvXININtCsek14CzwTA2s_13generic_array5implss7i_0pEQINtB7_12GenericArraypINtNtCsdOIG378uWuC_7typenum4uint4UIntIB1a_IB1a_IB1a_IB1a_IB1a_IB1a_IB1a_IB1a_NtB1c_5UTermNtNtB1e_3bit2B1ENtB2C_2B0EB2Q_EB2Q_EB2Q_EB2Q_EB2Q_EB2Q_EB2Q_EEINtNtCskumHb0IaX0X_4core7convert4FromQApj100_E4fromB7_
FN:168,_RNvXININtCsek14CzwTA2s_13generic_array5implss7j_0pEINtB7_12GenericArraypINtNtCsdOIG378uWuC_7typenum4uint4UIntIB19_IB19_IB19_IB19_IB19_IB19_IB19_IB19_NtB1b_5UTermNtNtB1d_3bit2B1ENtB2B_2B0EB2P_EB2P_EB2P_EB2P_EB2P_EB2P_EB2P_EEINtNtCskumHb0IaX0X_4core7convert5AsRefApj100_E6as_refB7_
FN:175,_RNvXININtCsek14CzwTA2s_13generic_array5implss7k_0pEINtB7_12GenericArraypINtNtCsdOIG378uWuC_7typenum4uint4UIntIB19_IB19_IB19_IB19_IB19_IB19_IB19_IB19_NtB1b_5UTermNtNtB1d_3bit2B1ENtB2B_2B0EB2P_EB2P_EB2P_EB2P_EB2P_EB2P_EB2P_EEINtNtCskumHb0IaX0X_4core7convert5AsMutApj100_E6as_mutB7_
FN:131,_RNvXININtCsek14CzwTA2s_13generic_array5implss7l_0pEINtB7_12GenericArraypINtNtCsdOIG378uWuC_7typenum4uint4UIntIB19_IB19_IB19_IB19_IB19_IB19_IB19_IB19_IB19_NtB1b_5UTermNtNtB1d_3bit2B1ENtB2G_2B0EB2U_EB2U_EB2U_EB2U_EB2U_EB2U_EB2U_EB2U_EEINtNtCskumHb0IaX0X_4core7convert4FromApj200_E4fromB7_
FN:139,_RNvXININtCsek14CzwTA2s_13generic_array5implss7m_0pEApj200_INtNtCskumHb0IaX0X_4core7convert4FromINtB7_12GenericArraypINtNtCsdOIG378uWuC_7typenum4uint4UIntIB1R_IB1R_IB1R_IB1R_IB1R_IB1R_IB1R_IB1R_IB1R_NtB1T_5UTermNtNtB1V_3bit2B1ENtB3o_2B0EB3C_EB3C_EB3C_EB3C_EB3C_EB3C_EB3C_EB3C_EEE4fromB7_
FN:146,_RNvXININtCsek14CzwTA2s_13generic_array5implss7n_0pERINtB7_12GenericArraypINtNtCsdOIG378uWuC_7typenum4uint4UIntIB1a_IB1a_IB1a_IB1a_IB1a_IB1a_IB1a_IB1a_IB1a_NtB1c_5UTermNtNtB1e_3bit2B1ENtB2H_2B0EB2V_EB2V_EB2V_EB2V_EB2V_EB2V_EB2V_EB2V_EEINtNtCskumHb0IaX0X_4core7convert4FromRApj200_E4fromB7_
FN:153,_RNvXININtCsek14CzwTA2s_13generic_array5implss7o_0pEQINtB7_12GenericArraypINtNtCsdOIG378uWuC_7typenum4uint4UIntIB1a_IB1a_IB1a_IB1a_IB1a_IB1a_IB1a_IB1a_IB1a_NtB1c_5UTermNtNtB1e_3bit2B1ENtB2H_2B0EB2V_EB2V_EB2V_EB2V_EB2V_EB2V_EB2V_EB2V_EEINtNtCskumHb0IaX0X_4core7convert4FromQApj200_E4fromB7_
FN:168,_RNvXININtCsek14CzwTA2s_13generic_array5implss7p_0pEINtB7_12GenericArraypINtNtCsdOIG378uWuC_7typenum4uint4UIntIB19_IB19_IB19_IB19_IB19_IB19_IB19_IB19_IB19_NtB1b_5UTermNtNtB1d_3bit2B1ENtB2G_2B0EB2U_EB2U_EB2U_EB2U_EB2U_EB2U_EB2U_EB2U_EEINtNtCskumHb0IaX0X_4core7convert5AsRefApj200_E6as_refB7_
FN:175,_RNvXININtCsek14CzwTA2s_13generic_array5implss7q_0pEINtB7_12GenericArraypINtNtCsdOIG378uWuC_7typenum4uint4UIntIB19_IB19_IB19_IB19_IB19_IB19_IB19_IB19_IB19_NtB1b_5UTermNtNtB1d_3bit2B1ENtB2G_2B0EB2U_EB2U_EB2U_EB2U_EB2U_EB2U_EB2U_EB2U_EEINtNtCskumHb0IaX0X_4core7convert5AsMutApj200_E6as_mutB7_
FN:131,_RNvXININtCsek14CzwTA2s_13generic_array5implss7r_0pEINtB7_12GenericArraypINtNtCsdOIG378uWuC_7typenum4uint4UIntIB19_IB19_IB19_IB19_IB19_IB19_IB19_IB19_IB19_NtB1b_5UTermNtNtB1d_3bit2B1EB2E_EB2E_EB2E_EB2E_ENtB2G_2B0EB2E_EB3e_EB3e_EB3e_EEINtNtCskumHb0IaX0X_4core7convert4FromApj3e8_E4fromB7_
FN:139,_RNvXININtCsek14CzwTA2s_13generic_array5implss7s_0pEApj3e8_INtNtCskumHb0IaX0X_4core7convert4FromINtB7_12GenericArraypINtNtCsdOIG378uWuC_7typenum4uint4UIntIB1R_IB1R_IB1R_IB1R_IB1R_IB1R_IB1R_IB1R_IB1R_NtB1T_5UTermNtNtB1V_3bit2B1EB3m_EB3m_EB3m_EB3m_ENtB3o_2B0EB3m_EB3W_EB3W_EB3W_EEE4fromB7_
FN:146,_RNvXININtCsek14CzwTA2s_13generic_array5implss7t_0pERINtB7_12GenericArraypINtNtCsdOIG378uWuC_7typenum4uint4UIntIB1a_IB1a_IB1a_IB1a_IB1a_IB1a_IB1a_IB1a_IB1a_NtB1c_5UTermNtNtB1e_3bit2B1EB2F_EB2F_EB2F_EB2F_ENtB2H_2B0EB2F_EB3f_EB3f_EB3f_EEINtNtCskumHb0IaX0X_4core7convert4FromRApj3e8_E4fromB7_
FN:153,_RNvXININtCsek14CzwTA2s_13generic_array5implss7u_0pEQINtB7_12GenericArraypINtNtCsdOIG378uWuC_7typenum4uint4UIntIB1a_IB1a_IB1a_IB1a_IB1a_IB1a_IB1a_IB1a_IB1a_NtB1c_5UTermNtNtB1e_3bit2B1EB2F_EB2F_EB2F_EB2F_ENtB2H_2B0EB2F_EB3f_EB3f_EB3f_EEINtNtCskumHb0IaX0X_4core7convert4FromQApj3e8_E4fromB7_
FN:168,_RNvXININtCsek14CzwTA2s_13generic_array5implss7v_0pEINtB7_12GenericArraypINtNtCsdOIG378uWuC_7typenum4uint4UIntIB19_IB19_IB19_IB19_IB19_IB19_IB19_IB19_IB19_NtB1b_5UTermNtNtB1d_3bit2B1EB2E_EB2E_EB2E_EB2E_ENtB2G_2B0EB2E_EB3e_EB3e_EB3e_EEINtNtCskumHb0IaX0X_4core7convert5AsRefApj3e8_E6as_refB7_
FN:175,_RNvXININtCsek14CzwTA2s_13generic_array5implss7w_0pEINtB7_12GenericArraypINtNtCsdOIG378uWuC_7typenum4uint4UIntIB19_IB19_IB19_IB19_IB19_IB19_IB19_IB19_IB19_NtB1b_5UTermNtNtB1d_3bit2B1EB2E_EB2E_EB2E_EB2E_ENtB2G_2B0EB2E_EB3e_EB3e_EB3e_EEINtNtCskumHb0IaX0X_4core7convert5AsMutApj3e8_E6as_mutB7_
FN:131,_RNvXININtCsek14CzwTA2s_13generic_array5implss7x_0pEINtB7_12GenericArraypINtNtCsdOIG378uWuC_7typenum4uint4UIntIB19_IB19_IB19_IB19_IB19_IB19_IB19_IB19_IB19_IB19_NtB1b_5UTermNtNtB1d_3bit2B1ENtB2L_2B0EB2Z_EB2Z_EB2Z_EB2Z_EB2Z_EB2Z_EB2Z_EB2Z_EB2Z_EEINtNtCskumHb0IaX0X_4core7convert4FromApj400_E4fromB7_
FN:139,_RNvXININtCsek14CzwTA2s_13generic_array5implss7y_0pEApj400_INtNtCskumHb0IaX0X_4core7convert4FromINtB7_12GenericArraypINtNtCsdOIG378uWuC_7typenum4uint4UIntIB1R_IB1R_IB1R_IB1R_IB1R_IB1R_IB1R_IB1R_IB1R_IB1R_NtB1T_5UTermNtNtB1V_3bit2B1ENtB3t_2B0EB3H_EB3H_EB3H_EB3H_EB3H_EB3H_EB3H_EB3H_EB3H_EEE4fromB7_
FN:146,_RNvXININtCsek14CzwTA2s_13generic_array5implss7z_0pERINtB7_12GenericArraypINtNtCsdOIG378uWuC_7typenum4uint4UIntIB1a_IB1a_IB1a_IB1a_IB1a_IB1a_IB1a_IB1a_IB1a_IB1a_NtB1c_5UTermNtNtB1e_3bit2B1ENtB2M_2B0EB30_EB30_EB30_EB30_EB30_EB30_EB30_EB30_EB30_EEINtNtCskumHb0IaX0X_4core7convert4FromRApj400_E4fromB7_
FN:99,_RNvXININtCsek14CzwTA2s_13generic_array5implss8_0ppEINtB7_12GenericArrayppEINtNtCskumHb0IaX0X_4core7convert5AsRefSpE6as_refB7_
FN:109,_RNvXININtCsek14CzwTA2s_13generic_array5implss9_0ppEINtB7_12GenericArrayppEINtNtCskumHb0IaX0X_4core7convert5AsMutSpE6as_mutB7_
FN:139,_RNvXININtCsek14CzwTA2s_13generic_array5implssA_0pEApj5_INtNtCskumHb0IaX0X_4core7convert4FromINtB7_12GenericArraypINtNtCsdOIG378uWuC_7typenum4uint4UIntIB1O_IB1O_NtB1Q_5UTermNtNtB1S_3bit2B1ENtB2M_2B0EB2K_EEE4fromB7_
FN:146,_RNvXININtCsek14CzwTA2s_13generic_array5implssB_0pERINtB7_12GenericArraypINtNtCsdOIG378uWuC_7typenum4uint4UIntIB19_IB19_NtB1b_5UTermNtNtB1d_3bit2B1ENtB27_2B0EB25_EEINtNtCskumHb0IaX0X_4core7convert4FromRApj5_E4fromB7_
FN:153,_RNvXININtCsek14CzwTA2s_13generic_array5implssC_0pEQINtB7_12GenericArraypINtNtCsdOIG378uWuC_7typenum4uint4UIntIB19_IB19_NtB1b_5UTermNtNtB1d_3bit2B1ENtB27_2B0EB25_EEINtNtCskumHb0IaX0X_4core7convert4FromQApj5_E4fromB7_
FN:168,_RNvXININtCsek14CzwTA2s_13generic_array5implssD_0pEINtB7_12GenericArraypINtNtCsdOIG378uWuC_7typenum4uint4UIntIB18_IB18_NtB1a_5UTermNtNtB1c_3bit2B1ENtB26_2B0EB24_EEINtNtCskumHb0IaX0X_4core7convert5AsRefApj5_E6as_refB7_
FN:175,_RNvXININtCsek14CzwTA2s_13generic_array5implssE_0pEINtB7_12GenericArraypINtNtCsdOIG378uWuC_7typenum4uint4UIntIB18_IB18_NtB1a_5UTermNtNtB1c_3bit2B1ENtB26_2B0EB24_EEINtNtCskumHb0IaX0X_4core7convert5AsMutApj5_E6as_mutB7_
FN:131,_RNvXININtCsek14CzwTA2s_13generic_array5implssF_0pEINtB7_12GenericArraypINtNtCsdOIG378uWuC_7typenum4uint4UIntIB18_IB18_NtB1a_5UTermNtNtB1c_3bit2B1EB24_ENtB26_2B0EEINtNtCskumHb0IaX0X_4core7convert4FromApj6_E4fromB7_
FN:139,_RNvXININtCsek14CzwTA2s_13generic_array5implssG_0pEApj6_INtNtCskumHb0IaX0X_4core7convert4FromINtB7_12GenericArraypINtNtCsdOIG378uWuC_7typenum4uint4UIntIB1O_IB1O_NtB1Q_5UTermNtNtB1S_3bit2B1EB2K_ENtB2M_2B0EEE4fromB7_
FN:146,_RNvXININtCsek14CzwTA2s_13generic_array5implssH_0pERINtB7_12GenericArraypINtNtCsdOIG378uWuC_7typenum4uint4UIntIB19_IB19_NtB1b_5UTermNtNtB1d_3bit2B1EB25_ENtB27_2B0EEINtNtCskumHb0IaX0X_4core7convert4FromRApj6_E4fromB7_
FN:153,_RNvXININtCsek14CzwTA2s_13generic_array5implssI_0pEQINtB7_12GenericArraypINtNtCsdOIG378uWuC_7typenum4uint4UIntIB19_IB19_NtB1b_5UTermNtNtB1d_3bit2B1EB25_ENtB27_2B0EEINtNtCskumHb0IaX0X_4core7convert4FromQApj6_E4fromB7_
FN:168,_RNvXININtCsek14CzwTA2s_13generic_array5implssJ_0pEINtB7_12GenericArraypINtNtCsdOIG378uWuC_7typenum4uint4UIntIB18_IB18_NtB1a_5UTermNtNtB1c_3bit2B1EB24_ENtB26_2B0EEINtNtCskumHb0IaX0X_4core7convert5AsRefApj6_E6as_refB7_
FN:175,_RNvXININtCsek14CzwTA2s_13generic_array5implssK_0pEINtB7_12GenericArraypINtNtCsdOIG378uWuC_7typenum4uint4UIntIB18_IB18_NtB1a_5UTermNtNtB1c_3bit2B1EB24_ENtB26_2B0EEINtNtCskumHb0IaX0X_4core7convert5AsMutApj6_E6as_mutB7_
FN:131,_RNvXININtCsek14CzwTA2s_13generic_array5implssL_0pEINtB7_12GenericArraypINtNtCsdOIG378uWuC_7typenum4uint4UIntIB18_IB18_NtB1a_5UTermNtNtB1c_3bit2B1EB24_EB24_EEINtNtCskumHb0IaX0X_4core7convert4FromApj7_E4fromB7_
FN:139,_RNvXININtCsek14CzwTA2s_13generic_array5implssM_0pEApj7_INtNtCskumHb0IaX0X_4core7convert4FromINtB7_12GenericArraypINtNtCsdOIG378uWuC_7typenum4uint4UIntIB1O_IB1O_NtB1Q_5UTermNtNtB1S_3bit2B1EB2K_EB2K_EEE4fromB7_
FN:146,_RNvXININtCsek14CzwTA2s_13generic_array5implssN_0pERINtB7_12GenericArraypINtNtCsdOIG378uWuC_7typenum4uint4UIntIB19_IB19_NtB1b_5UTermNtNtB1d_3bit2B1EB25_EB25_EEINtNtCskumHb0IaX0X_4core7convert4FromRApj7_E4fromB7_
FN:153,_RNvXININtCsek14CzwTA2s_13generic_array5implssO_0pEQINtB7_12GenericArraypINtNtCsdOIG378uWuC_7typenum4uint4UIntIB19_IB19_NtB1b_5UTermNtNtB1d_3bit2B1EB25_EB25_EEINtNtCskumHb0IaX0X_4core7convert4FromQApj7_E4fromB7_
FN:168,_RNvXININtCsek14CzwTA2s_13generic_array5implssP_0pEINtB7_12GenericArraypINtNtCsdOIG378uWuC_7typenum4uint4UIntIB18_IB18_NtB1a_5UTermNtNtB1c_3bit2B1EB24_EB24_EEINtNtCskumHb0IaX0X_4core7convert5AsRefApj7_E6as_refB7_
FN:175,_RNvXININtCsek14CzwTA2s_13generic_array5implssQ_0pEINtB7_12GenericArraypINtNtCsdOIG378uWuC_7typenum4uint4UIntIB18_IB18_NtB1a_5UTermNtNtB1c_3bit2B1EB24_EB24_EEINtNtCskumHb0IaX0X_4core7convert5AsMutApj7_E6as_mutB7_
FN:131,_RNvXININtCsek14CzwTA2s_13generic_array5implssR_0pEINtB7_12GenericArraypINtNtCsdOIG378uWuC_7typenum4uint4UIntIB18_IB18_IB18_NtB1a_5UTermNtNtB1c_3bit2B1ENtB2b_2B0EB2p_EB2p_EEINtNtCskumHb0IaX0X_4core7convert4FromApj8_E4fromB7_
FN:139,_RNvXININtCsek14CzwTA2s_13generic_array5implssS_0pEApj8_INtNtCskumHb0IaX0X_4core7convert4FromINtB7_12GenericArraypINtNtCsdOIG378uWuC_7typenum4uint4UIntIB1O_IB1O_IB1O_NtB1Q_5UTermNtNtB1S_3bit2B1ENtB2R_2B0EB35_EB35_EEE4fromB7_
FN:146,_RNvXININtCsek14CzwTA2s_13generic_array5implssT_0pERINtB7_12GenericArraypINtNtCsdOIG378uWuC_7typenum4uint4UIntIB19_IB19_IB19_NtB1b_5UTermNtNtB1d_3bit2B1ENtB2c_2B0EB2q_EB2q_EEINtNtCskumHb0IaX0X_4core7convert4FromRApj8_E4fromB7_
FN:153,_RNvXININtCsek14CzwTA2s_13generic_array5implssU_0pEQINtB7_12GenericArraypINtNtCsdOIG378uWuC_7typenum4uint4UIntIB19_IB19_IB19_NtB1b_5UTermNtNtB1d_3bit2B1ENtB2c_2B0EB2q_EB2q_EEINtNtCskumHb0IaX0X_4core7convert4FromQApj8_E4fromB7_
FN:168,_RNvXININtCsek14CzwTA2s_13generic_array5implssV_0pEINtB7_12GenericArraypINtNtCsdOIG378uWuC_7typenum4uint4UIntIB18_IB18_IB18_NtB1a_5UTermNtNtB1c_3bit2B1ENtB2b_2B0EB2p_EB2p_EEINtNtCskumHb0IaX0X_4core7convert5AsRefApj8_E6as_refB7_
FN:175,_RNvXININtCsek14CzwTA2s_13generic_array5implssW_0pEINtB7_12GenericArraypINtNtCsdOIG378uWuC_7typenum4uint4UIntIB18_IB18_IB18_NtB1a_5UTermNtNtB1c_3bit2B1ENtB2b_2B0EB2p_EB2p_EEINtNtCskumHb0IaX0X_4core7convert5AsMutApj8_E6as_mutB7_
FN:131,_RNvXININtCsek14CzwTA2s_13generic_array5implssX_0pEINtB7_12GenericArraypINtNtCsdOIG378uWuC_7typenum4uint4UIntIB18_IB18_IB18_NtB1a_5UTermNtNtB1c_3bit2B1ENtB2b_2B0EB2p_EB29_EEINtNtCskumHb0IaX0X_4core7convert4FromApj9_E4fromB7_
FN:139,_RNvXININtCsek14CzwTA2s_13generic_array5implssY_0pEApj9_INtNtCskumHb0IaX0X_4core7convert4FromINtB7_12GenericArraypINtNtCsdOIG378uWuC_7typenum4uint4UIntIB1O_IB1O_IB1O_NtB1Q_5UTermNtNtB1S_3bit2B1ENtB2R_2B0EB35_EB2P_EEE4fromB7_
FN:146,_RNvXININtCsek14CzwTA2s_13generic_array5implssZ_0pERINtB7_12GenericArraypINtNtCsdOIG378uWuC_7typenum4uint4UIntIB19_IB19_IB19_NtB1b_5UTermNtNtB1d_3bit2B1ENtB2c_2B0EB2q_EB2a_EEINtNtCskumHb0IaX0X_4core7convert4FromRApj9_E4fromB7_
FN:25,_RNvXININtCsek14CzwTA2s_13generic_array5implss_0ppEINtB7_12GenericArrayppENtNtCskumHb0IaX0X_4core5clone5Clone5cloneB7_
FN:131,_RNvXININtCsek14CzwTA2s_13generic_array5implssb_0pEINtB7_12GenericArraypINtNtCsdOIG378uWuC_7typenum4uint4UIntNtB1a_5UTermNtNtB1c_3bit2B1EEINtNtCskumHb0IaX0X_4core7convert4FromApj1_E4fromB7_
FN:139,_RNvXININtCsek14CzwTA2s_13generic_array5implssc_0pEApj1_INtNtCskumHb0IaX0X_4core7convert4FromINtB7_12GenericArraypINtNtCsdOIG378uWuC_7typenum4uint4UIntNtB1Q_5UTermNtNtB1S_3bit2B1EEE4fromB7_
FN:146,_RNvXININtCsek14CzwTA2s_13generic_array5implssd_0pERINtB7_12GenericArraypINtNtCsdOIG378uWuC_7typenum4uint4UIntNtB1b_5UTermNtNtB1d_3bit2B1EEINtNtCskumHb0IaX0X_4core7convert4FromRApj1_E4fromB7_
FN:153,_RNvXININtCsek14CzwTA2s_13generic_array5implsse_0pEQINtB7_12GenericArraypINtNtCsdOIG378uWuC_7typenum4uint4UIntNtB1b_5UTermNtNtB1d_3bit2B1EEINtNtCskumHb0IaX0X_4core7convert4FromQApj1_E4fromB7_
FN:168,_RNvXININtCsek14CzwTA2s_13generic_array5implssf_0pEINtB7_12GenericArraypINtNtCsdOIG378uWuC_7typenum4uint4UIntNtB1a_5UTermNtNtB1c_3bit2B1EEINtNtCskumHb0IaX0X_4core7convert5AsRefApj1_E6as_refB7_
FN:175,_RNvXININtCsek14CzwTA2s_13generic_array5implssg_0pEINtB7_12GenericArraypINtNtCsdOIG378uWuC_7typenum4uint4UIntNtB1a_5UTermNtNtB1c_3bit2B1EEINtNtCskumHb0IaX0X_4core7convert5AsMutApj1_E6as_mutB7_
FN:131,_RNvXININtCsek14CzwTA2s_13generic_array5implssh_0pEINtB7_12GenericArraypINtNtCsdOIG378uWuC_7typenum4uint4UIntIB18_NtB1a_5UTermNtNtB1c_3bit2B1ENtB21_2B0EEINtNtCskumHb0IaX0X_4core7convert4FromApj2_E4fromB7_
FN:139,_RNvXININtCsek14CzwTA2s_13generic_array5implssi_0pEApj2_INtNtCskumHb0IaX0X_4core7convert4FromINtB7_12GenericArraypINtNtCsdOIG378uWuC_7typenum4uint4UIntIB1O_NtB1Q_5UTermNtNtB1S_3bit2B1ENtB2H_2B0EEE4fromB7_
FN:146,_RNvXININtCsek14CzwTA2s_13generic_array5implssj_0pERINtB7_12GenericArraypINtNtCsdOIG378uWuC_7typenum4uint4UIntIB19_NtB1b_5UTermNtNtB1d_3bit2B1ENtB22_2B0EEINtNtCskumHb0IaX0X_4core7convert4FromRApj2_E4fromB7_
FN:153,_RNvXININtCsek14CzwTA2s_13generic_array5implssk_0pEQINtB7_12GenericArraypINtNtCsdOIG378uWuC_7typenum4uint4UIntIB19_NtB1b_5UTermNtNtB1d_3bit2B1ENtB22_2B0EEINtNtCskumHb0IaX0X_4core7convert4FromQApj2_E4fromB7_
FN:168,_RNvXININtCsek14CzwTA2s_13generic_array5implssl_0pEINtB7_12GenericArraypINtNtCsdOIG378uWuC_7typenum4uint4UIntIB18_NtB1a_5UTermNtNtB1c_3bit2B1ENtB21_2B0EEINtNtCskumHb0IaX0X_4core7convert5AsRefApj2_E6as_refB7_
FN:175,_RNvXININtCsek14CzwTA2s_13generic_array5implssm_0pEINtB7_12GenericArraypINtNtCsdOIG378uWuC_7typenum4uint4UIntIB18_NtB1a_5UTermNtNtB1c_3bit2B1ENtB21_2B0EEINtNtCskumHb0IaX0X_4core7convert5AsMutApj2_E6as_mutB7_
FN:131,_RNvXININtCsek14CzwTA2s_13generic_array5implssn_0pEINtB7_12GenericArraypINtNtCsdOIG378uWuC_7typenum4uint4UIntIB18_NtB1a_5UTermNtNtB1c_3bit2B1EB1Z_EEINtNtCskumHb0IaX0X_4core7convert4FromApj3_E4fromB7_
FN:139,_RNvXININtCsek14CzwTA2s_13generic_array5implsso_0pEApj3_INtNtCskumHb0IaX0X_4core7convert4FromINtB7_12GenericArraypINtNtCsdOIG378uWuC_7typenum4uint4UIntIB1O_NtB1Q_5UTermNtNtB1S_3bit2B1EB2F_EEE4fromB7_
FN:146,_RNvXININtCsek14CzwTA2s_13generic_array5implssp_0pERINtB7_12GenericArraypINtNtCsdOIG378uWuC_7typenum4uint4UIntIB19_NtB1b_5UTermNtNtB1d_3bit2B1EB20_EEINtNtCskumHb0IaX0X_4core7convert4FromRApj3_E4fromB7_
FN:153,_RNvXININtCsek14CzwTA2s_13generic_array5implssq_0pEQINtB7_12GenericArraypINtNtCsdOIG378uWuC_7typenum4uint4UIntIB19_NtB1b_5UTermNtNtB1d_3bit2B1EB20_EEINtNtCskumHb0IaX0X_4core7convert4FromQApj3_E4fromB7_
FN:168,_RNvXININtCsek14CzwTA2s_13generic_array5implssr_0pEINtB7_12GenericArraypINtNtCsdOIG378uWuC_7typenum4uint4UIntIB18_NtB1a_5UTermNtNtB1c_3bit2B1EB1Z_EEINtNtCskumHb0IaX0X_4core7convert5AsRefApj3_E6as_refB7_
FN:175,_RNvXININtCsek14CzwTA2s_13generic_array5implsss_0pEINtB7_12GenericArraypINtNtCsdOIG378uWuC_7typenum4uint4UIntIB18_NtB1a_5UTermNtNtB1c_3bit2B1EB1Z_EEINtNtCskumHb0IaX0X_4core7convert5AsMutApj3_E6as_mutB7_
FN:131,_RNvXININtCsek14CzwTA2s_13generic_array5implsst_0pEINtB7_12GenericArraypINtNtCsdOIG378uWuC_7typenum4uint4UIntIB18_IB18_NtB1a_5UTermNtNtB1c_3bit2B1ENtB26_2B0EB2k_EEINtNtCskumHb0IaX0X_4core7convert4FromApj4_E4fromB7_
FN:139,_RNvXININtCsek14CzwTA2s_13generic_array5implssu_0pEApj4_INtNtCskumHb0IaX0X_4core7convert4FromINtB7_12GenericArraypINtNtCsdOIG378uWuC_7typenum4uint4UIntIB1O_IB1O_NtB1Q_5UTermNtNtB1S_3bit2B1ENtB2M_2B0EB30_EEE4fromB7_
FN:146,_RNvXININtCsek14CzwTA2s_13generic_array5implssv_0pERINtB7_12GenericArraypINtNtCsdOIG378uWuC_7typenum4uint4UIntIB19_IB19_NtB1b_5UTermNtNtB1d_3bit2B1ENtB27_2B0EB2l_EEINtNtCskumHb0IaX0X_4core7convert4FromRApj4_E4fromB7_
FN:153,_RNvXININtCsek14CzwTA2s_13generic_array5implssw_0pEQINtB7_12GenericArraypINtNtCsdOIG378uWuC_7typenum4uint4UIntIB19_IB19_NtB1b_5UTermNtNtB1d_3bit2B1ENtB27_2B0EB2l_EEINtNtCskumHb0IaX0X_4core7convert4FromQApj4_E4fromB7_
FN:168,_RNvXININtCsek14CzwTA2s_13generic_array5implssx_0pEINtB7_12GenericArraypINtNtCsdOIG378uWuC_7typenum4uint4UIntIB18_IB18_NtB1a_5UTermNtNtB1c_3bit2B1ENtB26_2B0EB2k_EEINtNtCskumHb0IaX0X_4core7convert5AsRefApj4_E6as_refB7_
FN:175,_RNvXININtCsek14CzwTA2s_13generic_array5implssy_0pEINtB7_12GenericArraypINtNtCsdOIG378uWuC_7typenum4uint4UIntIB18_IB18_NtB1a_5UTermNtNtB1c_3bit2B1ENtB26_2B0EB2k_EEINtNtCskumHb0IaX0X_4core7convert5AsMutApj4_E6as_mutB7_
FN:131,_RNvXININtCsek14CzwTA2s_13generic_array5implssz_0pEINtB7_12GenericArraypINtNtCsdOIG378uWuC_7typenum4uint4UIntIB18_IB18_NtB1a_5UTermNtNtB1c_3bit2B1ENtB26_2B0EB24_EEINtNtCskumHb0IaX0X_4core7convert4FromApj5_E4fromB7_
FNDA:0,_RNCNvXNtCsek14CzwTA2s_13generic_array5implsINtB6_12GenericArrayhINtNtCsdOIG378uWuC_7typenum4uint4UIntIB11_IB11_IB11_IB11_IB11_IB11_IB11_NtB13_5UTermNtNtB15_3bit2B1ENtB2o_2B0EB2C_EB2C_EB2C_EB2C_EB2C_EB2C_EENtNtCskumHb0IaX0X_4core7default7Default7default0Cs7KSaGTpB2VC_13ed25519_dalek
FNDA:0,_RNCNvXNtCsek14CzwTA2s_13generic_array5implsINtB6_12GenericArrayhINtNtCsdOIG378uWuC_7typenum4uint4UIntIB11_IB11_IB11_IB11_IB11_IB11_NtB13_5UTermNtNtB15_3bit2B1ENtB2j_2B0EB2x_EB2x_EB2x_EB2x_EB2x_EENtNtCskumHb0IaX0X_4core7default7Default7default0Cs7KSaGTpB2VC_13ed25519_dalek
FNDA:0,_RNvXNtCsek14CzwTA2s_13generic_array5implsINtB4_12GenericArrayhINtNtCsdOIG378uWuC_7typenum4uint4UIntIBZ_IBZ_IBZ_IBZ_IBZ_IBZ_IBZ_NtB11_5UTermNtNtB13_3bit2B1ENtB2f_2B0EB2t_EB2t_EB2t_EB2t_EB2t_EB2t_EENtNtCskumHb0IaX0X_4core7default7Default7defaultCs7KSaGTpB2VC_13ed25519_dalek
FNDA:0,_RNvXNtCsek14CzwTA2s_13generic_array5implsINtB4_12GenericArrayhINtNtCsdOIG378uWuC_7typenum4uint4UIntIBZ_IBZ_IBZ_IBZ_IBZ_IBZ_NtB11_5UTermNtNtB13_3bit2B1ENtB2b_2B0EB2p_EB2p_EB2p_EB2p_EB2p_EENtNtCskumHb0IaX0X_4core7default7Default7defaultCs7KSaGTpB2VC_13ed25519_dalek
FNDA:0,_RNvXs6l_NtCsek14CzwTA2s_13generic_array5implsINtB8_12GenericArrayhINtNtCsdOIG378uWuC_7typenum4uint4UIntIB13_IB13_IB13_IB13_IB13_IB13_NtB15_5UTermNtNtB17_3bit2B1ENtB2l_2B0EB2z_EB2z_EB2z_EB2z_EB2z_EEINtNtCskumHb0IaX0X_4core7convert5AsRefAhj40_E6as_refCs7KSaGTpB2VC_13ed25519_dalek
FNDA:0,_RINvXININtCsek14CzwTA2s_13generic_array5implssa_0ppEINtB8_12GenericArrayppENtNtCskumHb0IaX0X_4core4hash4Hash4hashpEB8_
FNDA:0,_RNCNvXININtCsek14CzwTA2s_13generic_array5impls0ppEINtB9_12GenericArrayppENtNtCskumHb0IaX0X_4core7default7Default7default0B9_
FNDA:0,_RNvXININtCsek14CzwTA2s_13generic_array5impls0ppEINtB7_12GenericArrayppENtNtCskumHb0IaX0X_4core7default7Default7defaultB7_
FNDA:0,_RNvXININtCsek14CzwTA2s_13generic_array5implss10_0pEQINtB7_12GenericArraypINtNtCsdOIG378uWuC_7typenum4uint4UIntIB1a_IB1a_IB1a_NtB1c_5UTermNtNtB1e_3bit2B1ENtB2d_2B0EB2r_EB2b_EEINtNtCskumHb0IaX0X_4core7convert4FromQApj9_E4fromB7_
FNDA:0,_RNvXININtCsek14CzwTA2s_13generic_array5implss11_0pEINtB7_12GenericArraypINtNtCsdOIG378uWuC_7typenum4uint4UIntIB19_IB19_IB19_NtB1b_5UTermNtNtB1d_3bit2B1ENtB2c_2B0EB2q_EB2a_EEINtNtCskumHb0IaX0X_4core7convert5AsRefApj9_E6as_refB7_
FNDA:0,_RNvXININtCsek14CzwTA2s_13generic_array5implss12_0pEINtB7_12GenericArraypINtNtCsdOIG378uWuC_7typenum4uint4UIntIB19_IB19_IB19_NtB1b_5UTermNtNtB1d_3bit2B1ENtB2c_2B0EB2q_EB2a_EEINtNtCskumHb0IaX0X_4core7convert5AsMutApj9_E6as_mutB7_
FNDA:0,_RNvXININtCsek14CzwTA2s_13generic_array5implss13_0pEINtB7_12GenericArraypINtNtCsdOIG378uWuC_7typenum4uint4UIntIB19_IB19_IB19_NtB1b_5UTermNtNtB1d_3bit2B1ENtB2c_2B0EB2a_EB2q_EEINtNtCskumHb0IaX0X_4core7convert4FromApja_E4fromB7_
FNDA:0,_RNvXININtCsek14CzwTA2s_13generic_array5implss14_0pEApja_INtNtCskumHb0IaX0X_4core7convert4FromINtB7_12GenericArraypINtNtCsdOIG378uWuC_7typenum4uint4UIntIB1P_IB1P_IB1P_NtB1R_5UTermNtNtB1T_3bit2B1ENtB2S_2B0EB2Q_EB36_EEE4fromB7_
FNDA:0,_RNvXININtCsek14CzwTA2s_13generic_array5implss15_0pERINtB7_12GenericArraypINtNtCsdOIG378uWuC_7typenum4uint4UIntIB1a_IB1a_IB1a_NtB1c_5UTermNtNtB1e_3bit2B1ENtB2d_2B0EB2b_EB2r_EEINtNtCskumHb0IaX0X_4core7convert4FromRApja_E4fromB7_
FNDA:0,_RNvXININtCsek14CzwTA2s_13generic_array5implss16_0pEQINtB7_12GenericArraypINtNtCsdOIG378uWuC_7typenum4uint4UIntIB1a_IB1a_IB1a_NtB1c_5UTermNtNtB1e_3bit2B1ENtB2d_2B0EB2b_EB2r_EEINtNtCskumHb0IaX0X_4core7convert4FromQApja_E4fromB7_
FNDA:0,_RNvXININtCsek14CzwTA2s_13generic_array5implss17_0pEINtB7_12GenericArraypINtNtCsdOIG378uWuC_7typenum4uint4UIntIB19_IB19_IB19_NtB1b_5UTermNtNtB1d_3bit2B1ENtB2c_2B0EB2a_EB2q_EEINtNtCskumHb0IaX0X_4core7convert5AsRefApja_E6as_refB7_
FNDA:0,_RNvXININtCsek14CzwTA2s_13generic_array5implss18_0pEINtB7_12GenericArraypINtNtCsdOIG378uWuC_7typenum4uint4UIntIB19_IB19_IB19_NtB1b_5UTermNtNtB1d_3bit2B1ENtB2c_2B0EB2a_EB2q_EEINtNtCskumHb0IaX0X_4core7convert5AsMutApja_E6as_mutB7_
FNDA:0,_RNvXININtCsek14CzwTA2s_13generic_array5implss19_0pEINtB7_12GenericArraypINtNtCsdOIG378uWuC_7typenum4uint4UIntIB19_IB19_IB19_NtB1b_5UTermNtNtB1d_3bit2B1ENtB2c_2B0EB2a_EB2a_EEINtNtCskumHb0IaX0X_4core7convert4FromApjb_E4fromB7_
FNDA:0,_RNvXININtCsek14CzwTA2s_13generic_array5implss1A_0pEQINtB7_12GenericArraypINtNtCsdOIG378uWuC_7typenum4uint4UIntIB1a_IB1a_IB1a_NtB1c_5UTermNtNtB1e_3bit2B1EB2b_EB2b_EB2b_EEINtNtCskumHb0IaX0X_4core7convert4FromQApjf_E4fromB7_
FNDA:0,_RNvXININtCsek14CzwTA2s_13generic_array5implss1B_0pEINtB7_12GenericArraypINtNtCsdOIG378uWuC_7typenum4uint4UIntIB19_IB19_IB19_NtB1b_5UTermNtNtB1d_3bit2B1EB2a_EB2a_EB2a_EEINtNtCskumHb0IaX0X_4core7convert5AsRefApjf_E6as_refB7_
FNDA:0,_RNvXININtCsek14CzwTA2s_13generic_array5implss1C_0pEINtB7_12GenericArraypINtNtCsdOIG378uWuC_7typenum4uint4UIntIB19_IB19_IB19_NtB1b_5UTermNtNtB1d_3bit2B1EB2a_EB2a_EB2a_EEINtNtCskumHb0IaX0X_4core7convert5AsMutApjf_E6as_mutB7_
FNDA:0,_RNvXININtCsek14CzwTA2s_13generic_array5implss1D_0pEINtB7_12GenericArraypINtNtCsdOIG378uWuC_7typenum4uint4UIntIB19_IB19_IB19_IB19_NtB1b_5UTermNtNtB1d_3bit2B1ENtB2h_2B0EB2v_EB2v_EB2v_EEINtNtCskumHb0IaX0X_4core7convert4FromApj10_E4fromB7_
FNDA:0,_RNvXININtCsek14CzwTA2s_13generic_array5implss1E_0pEApj10_INtNtCskumHb0IaX0X_4core7convert4FromINtB7_12GenericArraypINtNtCsdOIG378uWuC_7typenum4uint4UIntIB1Q_IB1Q_IB1Q_IB1Q_NtB1S_5UTermNtNtB1U_3bit2B1ENtB2Y_2B0EB3c_EB3c_EB3c_EEE4fromB7_
FNDA:0,_RNvXININtCsek14CzwTA2s_13generic_array5implss1F_0pERINtB7_12GenericArraypINtNtCsdOIG378uWuC_7typenum4uint4UIntIB1a_IB1a_IB1a_IB1a_NtB1c_5UTermNtNtB1e_3bit2B1ENtB2i_2B0EB2w_EB2w_EB2w_EEINtNtCskumHb0IaX0X_4core7convert4FromRApj10_E4fromB7_
FNDA:0,_RNvXININtCsek14CzwTA2s_13generic_array5implss1G_0pEQINtB7_12GenericArraypINtNtCsdOIG378uWuC_7typenum4uint4UIntIB1a_IB1a_IB1a_IB1a_NtB1c_5UTermNtNtB1e_3bit2B1ENtB2i_2B0EB2w_EB2w_EB2w_EEINtNtCskumHb0IaX0X_4core7convert4FromQApj10_E4fromB7_
FNDA:0,_RNvXININtCsek14CzwTA2s_13generic_array5implss1H_0pEINtB7_12GenericArraypINtNtCsdOIG378uWuC_7typenum4uint4UIntIB19_IB19_IB19_IB19_NtB1b_5UTermNtNtB1d_3bit2B1ENtB2h_2B0EB2v_EB2v_EB2v_EEINtNtCskumHb0IaX0X_4core7convert5AsRefApj10_E6as_refB7_
FNDA:0,_RNvXININtCsek14CzwTA2s_13generic_array5implss1I_0pEINtB7_12GenericArraypINtNtCsdOIG378uWuC_7typenum4uint4UIntIB19_IB19_IB19_IB19_NtB1b_5UTermNtNtB1d_3bit2B1ENtB2h_2B0EB2v_EB2v_EB2v_EEINtNtCskumHb0IaX0X_4core7convert5AsMutApj10_E6as_mutB7_
FNDA:0,_RNvXININtCsek14CzwTA2s_13generic_array5implss1J_0pEINtB7_12GenericArraypINtNtCsdOIG378uWuC_7typenum4uint4UIntIB19_IB19_IB19_IB19_NtB1b_5UTermNtNtB1d_3bit2B1ENtB2h_2B0EB2v_EB2v_EB2f_EEINtNtCskumHb0IaX0X_4core7convert4FromApj11_E4fromB7_
FNDA:0,_RNvXININtCsek14CzwTA2s_13generic_array5implss1K_0pEApj11_INtNtCskumHb0IaX0X_4core7convert4FromINtB7_12GenericArraypINtNtCsdOIG378uWuC_7typenum4uint4UIntIB1Q_IB1Q_IB1Q_IB1Q_NtB1S_5UTermNtNtB1U_3bit2B1ENtB2Y_2B0EB3c_EB3c_EB2W_EEE4fromB7_
FNDA:0,_RNvXININtCsek14CzwTA2s_13generic_array5implss1L_0pERINtB7_12GenericArraypINtNtCsdOIG378uWuC_7typenum4uint4UIntIB1a_IB1a_IB1a_IB1a_NtB1c_5UTermNtNtB1e_3bit2B1ENtB2i_2B0EB2w_EB2w_EB2g_EEINtNtCskumHb0IaX0X_4core7convert4FromRApj11_E4fromB7_
FNDA:0,_RNvXININtCsek14CzwTA2s_13generic_array5implss1M_0pEQINtB7_12GenericArraypINtNtCsdOIG378uWuC_7typenum4uint4UIntIB1a_IB1a_IB1a_IB1a_NtB1c_5UTermNtNtB1e_3bit2B1ENtB2i_2B0EB2w_EB2w_EB2g_EEINtNtCskumHb0IaX0X_4core7convert4FromQApj11_E4fromB7_
FNDA:0,_RNvXININtCsek14CzwTA2s_13generic_array5implss1N_0pEINtB7_12GenericArraypINtNtCsdOIG378uWuC_7typenum4uint4UIntIB19_IB19_IB19_IB19_NtB1b_5UTermNtNtB1d_3bit2B1ENtB2h_2B0EB2v_EB2v_EB2f_EEINtNtCskumHb0IaX0X_4core7convert5AsRefApj11_E6as_refB7_
FNDA:0,_RNvXININtCsek14CzwTA2s_13generic_array5implss1O_0pEINtB7_12GenericArraypINtNtCsdOIG378uWuC_7typenum4uint4UIntIB19_IB19_IB19_IB19_NtB1b_5UTermNtNtB1d_3bit2B1ENtB2h_2B0EB2v_EB2v_EB2f_EEINtNtCskumHb0IaX0X_4core7convert5AsMutApj11_E6as_mutB7_
FNDA:0,_RNvXININtCsek14CzwTA2s_13generic_array5implss1P_0pEINtB7_12GenericArraypINtNtCsdOIG378uWuC_7typenum4uint4UIntIB19_IB19_IB19_IB19_NtB1b_5UTermNtNtB1d_3bit2B1ENtB2h_2B0EB2v_EB2f_EB2v_EEINtNtCskumHb0IaX0X_4core7convert4FromApj12_E4fromB7_
FNDA:0,_RNvXININtCsek14CzwTA2s_13generic_array5implss1Q_0pEApj12_INtNtCskumHb0IaX0X_4core7convert4FromINtB7_12GenericArraypINtNtCsdOIG378uWuC_7typenum4uint4UIntIB1Q_IB1Q_IB1Q_IB1Q_NtB1S_5UTermNtNtB1U_3bit2B1ENtB2Y_2B0EB3c_EB2W_EB3c_EEE4fromB7_
FNDA:0,_RNvXININtCsek14CzwTA2s_13generic_array5implss1R_0pERINtB7_12GenericArraypINtNtCsdOIG378uWuC_7typenum4uint4UIntIB1a_IB1a_IB1a_IB1a_NtB1c_5UTermNtNtB1e_3bit2B1ENtB2i_2B0EB2w_EB2g_EB2w_EEINtNtCskumHb0IaX0X_4core7convert4FromRApj12_E4fromB7_
FNDA:0,_RNvXININtCsek14CzwTA2s_13generic_array5implss1S_0pEQINtB7_12GenericArraypINtNtCsdOIG378uWuC_7typenum4uint4UIntIB1a_IB1a_IB1a_IB1a_NtB1c_5UTermNtNtB1e_3bit2B1ENtB2i_2B0EB2w_EB2g_EB2w_EEINtNtCskumHb0IaX0X_4core7convert4FromQApj12_E4fromB7_
FNDA:0,_RNvXININtCsek14CzwTA2s_13generic_array5implss1T_0pEINtB7_12GenericArraypINtNtCsdOIG378uWuC_7typenum4uint4UIntIB19_IB19_IB19_IB19_NtB1b_5UTermNtNtB1d_3bit2B1ENtB2h_2B0EB2v_EB2f_EB2v_EEINtNtCskumHb0IaX0X_4core7convert5AsRefApj12_E6as_refB7_
FNDA:0,_RNvXININtCsek14CzwTA2s_13generic_array5implss1U_0pEINtB7_12GenericArraypINtNtCsdOIG378uWuC_7typenum4uint4UIntIB19_IB19_IB19_IB19_NtB1b_5UTermNtNtB1d_3bit2B1ENtB2h_2B0EB2v_EB2f_EB2v_EEINtNtCskumHb0IaX0X_4core7convert5AsMutApj12_E6as_mutB7_
FNDA:0,_RNvXININtCsek14CzwTA2s_13generic_array5implss1V_0pEINtB7_12GenericArraypINtNtCsdOIG378uWuC_7typenum4uint4UIntIB19_IB19_IB19_IB19_NtB1b_5UTermNtNtB1d_3bit2B1ENtB2h_2B0EB2v_EB2f_EB2f_EEINtNtCskumHb0IaX0X_4core7convert4FromApj13_E4fromB7_
FNDA:0,_RNvXININtCsek14CzwTA2s_13generic_array5implss1W_0pEApj13_INtNtCskumHb0IaX0X_4core7convert4FromINtB7_12GenericArraypINtNtCsdOIG378uWuC_7typenum4uint4UIntIB1Q_IB1Q_IB1Q_IB1Q_NtB1S_5UTermNtNtB1U_3bit2B1ENtB2Y_2B0EB3c_EB2W_EB2W_EEE4fromB7_
FNDA:0,_RNvXININtCsek14CzwTA2s_13generic_array5implss1X_0pERINtB7_12GenericArraypINtNtCsdOIG378uWuC_7typenum4uint4UIntIB1a_IB1a_IB1a_IB1a_NtB1c_5UTermNtNtB1e_3bit2B1ENtB2i_2B0EB2w_EB2g_EB2g_EEINtNtCskumHb0IaX0X_4core7convert4FromRApj13_E4fromB7_
FNDA:0,_RNvXININtCsek14CzwTA2s_13generic_array5implss1Y_0pEQINtB7_12GenericArraypINtNtCsdOIG378uWuC_7typenum4uint4UIntIB1a_IB1a_IB1a_IB1a_NtB1c_5UTermNtNtB1e_3bit2B1ENtB2i_2B0EB2w_EB2g_EB2g_EEINtNtCskumHb0IaX0X_4core7convert4FromQApj13_E4fromB7_
FNDA:0,_RNvXININtCsek14CzwTA2s_13generic_array5implss1Z_0pEINtB7_12GenericArraypINtNtCsdOIG378uWuC_7typenum4uint4UIntIB19_IB19_IB19_IB19_NtB1b_5UTermNtNtB1d_3bit2B1ENtB2h_2B0EB2v_EB2f_EB2f_EEINtNtCskumHb0IaX0X_4core7convert5AsRefApj13_E6as_refB7_
FNDA:0,_RNvXININtCsek14CzwTA2s_13generic_array5implss1_0ppEINtB7_12GenericArrayppENtNtCskumHb0IaX0X_4core3cmp9PartialEq2eqB7_
FNDA:0,_RNvXININtCsek14CzwTA2s_13generic_array5implss1a_0pEApjb_INtNtCskumHb0IaX0X_4core7convert4FromINtB7_12GenericArraypINtNtCsdOIG378uWuC_7typenum4uint4UIntIB1P_IB1P_IB1P_NtB1R_5UTermNtNtB1T_3bit2B1ENtB2S_2B0EB2Q_EB2Q_EEE4fromB7_
FNDA:0,_RNvXININtCsek14CzwTA2s_13generic_array5implss1b_0pERINtB7_12GenericArraypINtNtCsdOIG378uWuC_7typenum4uint4UIntIB1a_IB1a_IB1a_NtB1c_5UTermNtNtB1e_3bit2B1ENtB2d_2B0EB2b_EB2b_EEINtNtCskumHb0IaX0X_4core7convert4FromRApjb_E4fromB7_
FNDA:0,_RNvXININtCsek14CzwTA2s_13generic_array5implss1c_0pEQINtB7_12GenericArraypINtNtCsdOIG378uWuC_7typenum4uint4UIntIB1a_IB1a_IB1a_NtB1c_5UTermNtNtB1e_3bit2B1ENtB2d_2B0EB2b_EB2b_EEINtNtCskumHb0IaX0X_4core7convert4FromQApjb_E4fromB7_
FNDA:0,_RNvXININtCsek14CzwTA2s_13generic_array5implss1d_0pEINtB7_12GenericArraypINtNtCsdOIG378uWuC_7typenum4uint4UIntIB19_IB19_IB19_NtB1b_5UTermNtNtB1d_3bit2B1ENtB2c_2B0EB2a_EB2a_EEINtNtCskumHb0IaX0X_4core7convert5AsRefApjb_E6as_refB7_
FNDA:0,_RNvXININtCsek14CzwTA2s_13generic_array5implss1e_0pEINtB7_12GenericArraypINtNtCsdOIG378uWuC_7typenum4uint4UIntIB19_IB19_IB19_NtB1b_5UTermNtNtB1d_3bit2B1ENtB2c_2B0EB2a_EB2a_EEINtNtCskumHb0IaX0X_4core7convert5AsMutApjb_E6as_mutB7_
FNDA:0,_RNvXININtCsek14CzwTA2s_13generic_array5implss1f_0pEINtB7_12GenericArraypINtNtCsdOIG378uWuC_7typenum4uint4UIntIB19_IB19_IB19_NtB1b_5UTermNtNtB1d_3bit2B1EB2a_ENtB2c_2B0EB2v_EEINtNtCskumHb0IaX0X_4core7convert4FromApjc_E4fromB7_
FNDA:0,_RNvXININtCsek14CzwTA2s_13generic_array5implss1g_0pEApjc_INtNtCskumHb0IaX0X_4core7convert4FromINtB7_12GenericArraypINtNtCsdOIG378uWuC_7typenum4uint4UIntIB1P_IB1P_IB1P_NtB1R_5UTermNtNtB1T_3bit2B1EB2Q_ENtB2S_2B0EB3b_EEE4fromB7_
FNDA:0,_RNvXININtCsek14CzwTA2s_13generic_array5implss1h_0pERINtB7_12GenericArraypINtNtCsdOIG378uWuC_7typenum4uint4UIntIB1a_IB1a_IB1a_NtB1c_5UTermNtNtB1e_3bit2B1EB2b_ENtB2d_2B0EB2w_EEINtNtCskumHb0IaX0X_4core7convert4FromRApjc_E4fromB7_
FNDA:0,_RNvXININtCsek14CzwTA2s_13generic_array5implss1i_0pEQINtB7_12GenericArraypINtNtCsdOIG378uWuC_7typenum4uint4UIntIB1a_IB1a_IB1a_NtB1c_5UTermNtNtB1e_3bit2B1EB2b_ENtB2d_2B0EB2w_EEINtNtCskumHb0IaX0X_4core7convert4FromQApjc_E4fromB7_
FNDA:0,_RNvXININtCsek14CzwTA2s_13generic_array5implss1j_0pEINtB7_12GenericArraypINtNtCsdOIG378uWuC_7typenum4uint4UIntIB19_IB19_IB19_NtB1b_5UTermNtNtB1d_3bit2B1EB2a_ENtB2c_2B0EB2v_EEINtNtCskumHb0IaX0X_4core7convert5AsRefApjc_E6as_refB7_
FNDA:0,_RNvXININtCsek14CzwTA2s_13generic_array5implss1k_0pEINtB7_12GenericArraypINtNtCsdOIG378uWuC_7typenum4uint4UIntIB19_IB19_IB19_NtB1b_5UTermNtNtB1d_3bit2B1EB2a_ENtB2c_2B0EB2v_EEINtNtCskumHb0IaX0X_4core7convert5AsMutApjc_E6as_mutB7_
FNDA:0,_RNvXININtCsek14CzwTA2s_13generic_array5implss1l_0pEINtB7_12GenericArraypINtNtCsdOIG378uWuC_7typenum4uint4UIntIB19_IB19_IB19_NtB1b_5UTermNtNtB1d_3bit2B1EB2a_ENtB2c_2B0EB2a_EEINtNtCskumHb0IaX0X_4core7convert4FromApjd_E4fromB7_
FNDA:0,_RNvXININtCsek14CzwTA2s_13generic_array5implss1m_0pEApjd_INtNtCskumHb0IaX0X_4core7convert4FromINtB7_12GenericArraypINtNtCsdOIG378uWuC_7typenum4uint4UIntIB1P_IB1P_IB1P_NtB1R_5UTermNtNtB1T_3bit2B1EB2Q_ENtB2S_2B0EB2Q_EEE4fromB7_
FNDA:0,_RNvXININtCsek14CzwTA2s_13generic_array5implss1n_0pERINtB7_12GenericArraypINtNtCsdOIG378uWuC_7typenum4uint4UIntIB1a_IB1a_IB1a_NtB1c_5UTermNtNtB1e_3bit2B1EB2b_ENtB2d_2B0EB2b_EEINtNtCskumHb0IaX0X_4core7convert4FromRApjd_E4fromB7_
FNDA:0,_RNvXININtCsek14CzwTA2s_13generic_array5implss1o_0pEQINtB7_12GenericArraypINtNtCsdOIG378uWuC_7typenum4uint4UIntIB1a_IB1a_IB1a_NtB1c_5UTermNtNtB1e_3bit2B1EB2b_ENtB2d_2B0EB2b_EEINtNtCskumHb0IaX0X_4core7convert4FromQApjd_E4fromB7_
FNDA:0,_RNvXININtCsek14CzwTA2s_13generic_array5implss1p_0pEINtB7_12GenericArraypINtNtCsdOIG378uWuC_7typenum4uint4UIntIB19_IB19_IB19_NtB1b_5UTermNtNtB1d_3bit2B1EB2a_ENtB2c_2B0EB2a_EEINtNtCskumHb0IaX0X_4core7convert5AsRefApjd_E6as_refB7_
FNDA:0,_RNvXININtCsek14CzwTA2s_13generic_array5implss1q_0pEINtB7_12GenericArraypINtNtCsdOIG378uWuC_7typenum4uint4UIntIB19_IB19_IB19_NtB1b_5UTermNtNtB1d_3bit2B1EB2a_ENtB2c_2B0EB2a_EEINtNtCskumHb0IaX0X_4core7convert5AsMutApjd_E6as_mutB7_
FNDA:0,_RNvXININtCsek14CzwTA2s_13generic_array5implss1r_0pEINtB7_12GenericArraypINtNtCsdOIG378uWuC_7typenum4uint4UIntIB19_IB19_IB19_NtB1b_5UTermNtNtB1d_3bit2B1EB2a_EB2a_ENtB2c_2B0EEINtNtCskumHb0IaX0X_4core7convert4FromApje_E4fromB7_
FNDA:0,_RNvXININtCsek14CzwTA2s_13generic_array5implss1s_0pEApje_INtNtCskumHb0IaX0X_4core7convert4FromINtB7_12GenericArraypINtNtCsdOIG378uWuC_7typenum4uint4UIntIB1P_IB1P_IB1P_NtB1R_5UTermNtNtB1T_3bit2B1EB2Q_EB2Q_ENtB2S_2B0EEE4fromB7_
FNDA:0,_RNvXININtCsek14CzwTA2s_13generic_array5implss1t_0pERINtB7_12GenericArraypINtNtCsdOIG378uWuC_7typenum4uint4UIntIB1a_IB1a_IB1a_NtB1c_5UTermNtNtB1e_3bit2B1EB2b_EB2b_ENtB2d_2B0EEINtNtCskumHb0IaX0X_4core7convert4FromRApje_E4fromB7_
FNDA:0,_RNvXININtCsek14CzwTA2s_13generic_array5implss1u_0pEQINtB7_12GenericArraypINtNtCsdOIG378uWuC_7typenum4uint4UIntIB1a_IB1a_IB1a_NtB1c_5UTermNtNtB1e_3bit2B1EB2b_EB2b_ENtB2d_2B0EEINtNtCskumHb0IaX0X_4core7convert4FromQApje_E4fromB7_
FNDA:0,_RNvXININtCsek14CzwTA2s_13generic_array5implss1v_0pEINtB7_12GenericArraypINtNtCsdOIG378uWuC_7typenum4uint4UIntIB19_IB19_IB19_NtB1b_5UTermNtNtB1d_3bit2B1EB2a_EB2a_ENtB2c_2B0EEINtNtCskumHb0IaX0X_4core7convert5AsRefApje_E6as_refB7_
FNDA:0,_RNvXININtCsek14CzwTA2s_13generic_array5implss1w_0pEINtB7_12GenericArraypINtNtCsdOIG378uWuC_7typenum4uint4UIntIB19_IB19_IB19_NtB1b_5UTermNtNtB1d_3bit2B1EB2a_EB2a_ENtB2c_2B0EEINtNtCskumHb0IaX0X_4core7convert5AsMutApje_E6as_mutB7_
FNDA:0,_RNvXININtCsek14CzwTA2s_13generic_array5implss1x_0pEINtB7_12GenericArraypINtNtCsdOIG378uWuC_7typenum4uint4UIntIB19_IB19_IB19_NtB1b_5UTermNtNtB1d_3bit2B1EB2a_EB2a_EB2a_EEINtNtCskumHb0IaX0X_4core7convert4FromApjf_E4fromB7_
FNDA:0,_RNvXININtCsek14CzwTA2s_13generic_array5implss1y_0pEApjf_INtNtCskumHb0IaX0X_4core7convert4FromINtB7_12GenericArraypINtNtCsdOIG378uWuC_7typenum4uint4UIntIB1P_IB1P_IB1P_NtB1R_5UTermNtNtB1T_3bit2B1EB2Q_EB2Q_EB2Q_EEE4fromB7_
FNDA:0,_RNvXININtCsek14CzwTA2s_13generic_array5implss1z_0pERINtB7_12GenericArraypINtNtCsdOIG378uWuC_7typenum4uint4UIntIB1a_IB1a_IB1a_NtB1c_5UTermNtNtB1e_3bit2B1EB2b_EB2b_EB2b_EEINtNtCskumHb0IaX0X_4core7convert4FromRApjf_E4fromB7_
FNDA:0,_RNvXININtCsek14CzwTA2s_13generic_array5implss20_0pEINtB7_12GenericArraypINtNtCsdOIG378uWuC_7typenum4uint4UIntIB19_IB19_IB19_IB19_NtB1b_5UTermNtNtB1d_3bit2B1ENtB2h_2B0EB2v_EB2f_EB2f_EEINtNtCskumHb0IaX0X_4core7convert5AsMutApj13_E6as_mutB7_
FNDA:0,_RNvXININtCsek14CzwTA2s_13generic_array5implss21_0pEINtB7_12GenericArraypINtNtCsdOIG378uWuC_7typenum4uint4UIntIB19_IB19_IB19_IB19_NtB1b_5UTermNtNtB1d_3bit2B1ENtB2h_2B0EB2f_EB2v_EB2v_EEINtNtCskumHb0IaX0X_4core7convert4FromApj14_E4fromB7_
FNDA:0,_RNvXININtCsek14CzwTA2s_13generic_array5implss22_0pEApj14_INtNtCskumHb0IaX0X_4core7convert4FromINtB7_12GenericArraypINtNtCsdOIG378uWuC_7typenum4uint4UIntIB1Q_IB1Q_IB1Q_IB1Q_NtB1S_5UTermNtNtB1U_3bit2B1ENtB2Y_2B0EB2W_EB3c_EB3c_EEE4fromB7_
FNDA:0,_RNvXININtCsek14CzwTA2s_13generic_array5implss23_0pERINtB7_12GenericArraypINtNtCsdOIG378uWuC_7typenum4uint4UIntIB1a_IB1a_IB1a_IB1a_NtB1c_5UTermNtNtB1e_3bit2B1ENtB2i_2B0EB2g_EB2w_EB2w_EEINtNtCskumHb0IaX0X_4core7convert4FromRApj14_E4fromB7_
FNDA:0,_RNvXININtCsek14CzwTA2s_13generic_array5implss24_0pEQINtB7_12GenericArraypINtNtCsdOIG378uWuC_7typenum4uint4UIntIB1a_IB1a_IB1a_IB1a_NtB1c_5UTermNtNtB1e_3bit2B1ENtB2i_2B0EB2g_EB2w_EB2w_EEINtNtCskumHb0IaX0X_4core7convert4FromQApj14_E4fromB7_
FNDA:0,_RNvXININtCsek14CzwTA2s_13generic_array5implss25_0pEINtB7_12GenericArraypINtNtCsdOIG378uWuC_7typenum4uint4UIntIB19_IB19_IB19_IB19_NtB1b_5UTermNtNtB1d_3bit2B1ENtB2h_2B0EB2f_EB2v_EB2v_EEINtNtCskumHb0IaX0X_4core7convert5AsRefApj14_E6as_refB7_
FNDA:0,_RNvXININtCsek14CzwTA2s_13generic_array5implss26_0pEINtB7_12GenericArraypINtNtCsdOIG378uWuC_7typenum4uint4UIntIB19_IB19_IB19_IB19_NtB1b_5UTermNtNtB1d_3bit2B1ENtB2h_2B0EB2f_EB2v_EB2v_EEINtNtCskumHb0IaX0X_4core7convert5AsMutApj14_E6as_mutB7_
FNDA:0,_RNvXININtCsek14CzwTA2s_13generic_array5implss27_0pEINtB7_12GenericArraypINtNtCsdOIG378uWuC_7typenum4uint4UIntIB19_IB19_IB19_IB19_NtB1b_5UTermNtNtB1d_3bit2B1ENtB2h_2B0EB2f_EB2v_EB2f_EEINtNtCskumHb0IaX0X_4core7convert4FromApj15_E4fromB7_
FNDA:0,_RNvXININtCsek14CzwTA2s_13generic_array5implss28_0pEApj15_INtNtCskumHb0IaX0X_4core7convert4FromINtB7_12GenericArraypINtNtCsdOIG378uWuC_7typenum4uint4UIntIB1Q_IB1Q_IB1Q_IB1Q_NtB1S_5UTermNtNtB1U_3bit2B1ENtB2Y_2B0EB2W_EB3c_EB2W_EEE4fromB7_
FNDA:0,_RNvXININtCsek14CzwTA2s_13generic_array5implss29_0pERINtB7_12GenericArraypINtNtCsdOIG378uWuC_7typenum4uint4UIntIB1a_IB1a_IB1a_IB1a_NtB1c_5UTermNtNtB1e_3bit2B1ENtB2i_2B0EB2g_EB2w_EB2g_EEINtNtCskumHb0IaX0X_4core7convert4FromRApj15_E4fromB7_
FNDA:0,_RNvXININtCsek14CzwTA2s_13generic_array5implss2A_0pEINtB7_12GenericArraypINtNtCsdOIG378uWuC_7typenum4uint4UIntIB19_IB19_IB19_IB19_NtB1b_5UTermNtNtB1d_3bit2B1EB2f_ENtB2h_2B0EB2A_EB2f_EEINtNtCskumHb0IaX0X_4core7convert5AsMutApj19_E6as_mutB7_
FNDA:0,_RNvXININtCsek14CzwTA2s_13generic_array5implss2B_0pEINtB7_12GenericArraypINtNtCsdOIG378uWuC_7typenum4uint4UIntIB19_IB19_IB19_IB19_NtB1b_5UTermNtNtB1d_3bit2B1EB2f_ENtB2h_2B0EB2f_EB2A_EEINtNtCskumHb0IaX0X_4core7convert4FromApj1a_E4fromB7_
FNDA:0,_RNvXININtCsek14CzwTA2s_13generic_array5implss2C_0pEApj1a_INtNtCskumHb0IaX0X_4core7convert4FromINtB7_12GenericArraypINtNtCsdOIG378uWuC_7typenum4uint4UIntIB1Q_IB1Q_IB1Q_IB1Q_NtB1S_5UTermNtNtB1U_3bit2B1EB2W_ENtB2Y_2B0EB2W_EB3h_EEE4fromB7_
FNDA:0,_RNvXININtCsek14CzwTA2s_13generic_array5implss2D_0pERINtB7_12GenericArraypINtNtCsdOIG378uWuC_7typenum4uint4UIntIB1a_IB1a_IB1a_IB1a_NtB1c_5UTermNtNtB1e_3bit2B1EB2g_ENtB2i_2B0EB2g_EB2B_EEINtNtCskumHb0IaX0X_4core7convert4FromRApj1a_E4fromB7_
FNDA:0,_RNvXININtCsek14CzwTA2s_13generic_array5implss2E_0pEQINtB7_12GenericArraypINtNtCsdOIG378uWuC_7typenum4uint4UIntIB1a_IB1a_IB1a_IB1a_NtB1c_5UTermNtNtB1e_3bit2B1EB2g_ENtB2i_2B0EB2g_EB2B_EEINtNtCskumHb0IaX0X_4core7convert4FromQApj1a_E4fromB7_
FNDA:0,_RNvXININtCsek14CzwTA2s_13generic_array5implss2F_0pEINtB7_12GenericArraypINtNtCsdOIG378uWuC_7typenum4uint4UIntIB19_IB19_IB19_IB19_NtB1b_5UTermNtNtB1d_3bit2B1EB2f_ENtB2h_2B0EB2f_EB2A_EEINtNtCskumHb0IaX0X_4core7convert5AsRefApj1a_E6as_refB7_
FNDA:0,_RNvXININtCsek14CzwTA2s_13generic_array5implss2G_0pEINtB7_12GenericArraypINtNtCsdOIG378uWuC_7typenum4uint4UIntIB19_IB19_IB19_IB19_NtB1b_5UTermNtNtB1d_3bit2B1EB2f_ENtB2h_2B0EB2f_EB2A_EEINtNtCskumHb0IaX0X_4core7convert5AsMutApj1a_E6as_mutB7_
FNDA:0,_RNvXININtCsek14CzwTA2s_13generic_array5implss2H_0pEINtB7_12GenericArraypINtNtCsdOIG378uWuC_7typenum4uint4UIntIB19_IB19_IB19_IB19_NtB1b_5UTermNtNtB1d_3bit2B1EB2f_ENtB2h_2B0EB2f_EB2f_EEINtNtCskumHb0IaX0X_4core7convert4FromApj1b_E4fromB7_
FNDA:0,_RNvXININtCsek14CzwTA2s_13generic_array5implss2I_0pEApj1b_INtNtCskumHb0IaX0X_4core7convert4FromINtB7_12GenericArraypINtNtCsdOIG378uWuC_7typenum4uint4UIntIB1Q_IB1Q_IB1Q_IB1Q_NtB1S_5UTermNtNtB1U_3bit2B1EB2W_ENtB2Y_2B0EB2W_EB2W_EEE4fromB7_
FNDA:0,_RNvXININtCsek14CzwTA2s_13generic_array5implss2J_0pERINtB7_12GenericArraypINtNtCsdOIG378uWuC_7typenum4uint4UIntIB1a_IB1a_IB1a_IB1a_NtB1c_5UTermNtNtB1e_3bit2B1EB2g_ENtB2i_2B0EB2g_EB2g_EEINtNtCskumHb0IaX0X_4core7convert4FromRApj1b_E4fromB7_
FNDA:0,_RNvXININtCsek14CzwTA2s_13generic_array5implss2K_0pEQINtB7_12GenericArraypINtNtCsdOIG378uWuC_7typenum4uint4UIntIB1a_IB1a_IB1a_IB1a_NtB1c_5UTermNtNtB1e_3bit2B1EB2g_ENtB2i_2B0EB2g_EB2g_EEINtNtCskumHb0IaX0X_4core7convert4FromQApj1b_E4fromB7_
FNDA:0,_RNvXININtCsek14CzwTA2s_13generic_array5implss2L_0pEINtB7_12GenericArraypINtNtCsdOIG378uWuC_7typenum4uint4UIntIB19_IB19_IB19_IB19_NtB1b_5UTermNtNtB1d_3bit2B1EB2f_ENtB2h_2B0EB2f_EB2f_EEINtNtCskumHb0IaX0X_4core7convert5AsRefApj1b_E6as_refB7_
FNDA:0,_RNvXININtCsek14CzwTA2s_13generic_array5implss2M_0pEINtB7_12GenericArraypINtNtCsdOIG378uWuC_7typenum4uint4UIntIB19_IB19_IB19_IB19_NtB1b_5UTermNtNtB1d_3bit2B1EB2f_ENtB2h_2B0EB2f_EB2f_EEINtNtCskumHb0IaX0X_4core7convert5AsMutApj1b_E6as_mutB7_
FNDA:0,_RNvXININtCsek14CzwTA2s_13generic_array5implss2N_0pEINtB7_12GenericArraypINtNtCsdOIG378uWuC_7typenum4uint4UIntIB19_IB19_IB19_IB19_NtB1b_5UTermNtNtB1d_3bit2B1EB2f_EB2f_ENtB2h_2B0EB2F_EEINtNtCskumHb0IaX0X_4core7convert4FromApj1c_E4fromB7_
FNDA:0,_RNvXININtCsek14CzwTA2s_13generic_array5implss2O_0pEApj1c_INtNtCskumHb0IaX0X_4core7convert4FromINtB7_12GenericArraypINtNtCsdOIG378uWuC_7typenum4uint4UIntIB1Q_IB1Q_IB1Q_IB1Q_NtB1S_5UTermNtNtB1U_3bit2B1EB2W_EB2W_ENtB2Y_2B0EB3m_EEE4fromB7_
FNDA:0,_RNvXININtCsek14CzwTA2s_13generic_array5implss2P_0pERINtB7_12GenericArraypINtNtCsdOIG378uWuC_7typenum4uint4UIntIB1a_IB1a_IB1a_IB1a_NtB1c_5UTermNtNtB1e_3bit2B1EB2g_EB2g_ENtB2i_2B0EB2G_EEINtNtCskumHb0IaX0X_4core7convert4FromRApj1c_E4fromB7_
FNDA:0,_RNvXININtCsek14CzwTA2s_13generic_array5implss2Q_0pEQINtB7_12GenericArraypINtNtCsdOIG378uWuC_7typenum4uint4UIntIB1a_IB1a_IB1a_IB1a_NtB1c_5UTermNtNtB1e_3bit2B1EB2g_EB2g_ENtB2i_2B0EB2G_EEINtNtCskumHb0IaX0X_4core7convert4FromQApj1c_E4fromB7_
FNDA:0,_RNvXININtCsek14CzwTA2s_13generic_array5implss2R_0pEINtB7_12GenericArraypINtNtCsdOIG378uWuC_7typenum4uint4UIntIB19_IB19_IB19_IB19_NtB1b_5UTermNtNtB1d_3bit2B1EB2f_EB2f_ENtB2h_2B0EB2F_EEINtNtCskumHb0IaX0X_4core7convert5AsRefApj1c_E6as_refB7_
FNDA:0,_RNvXININtCsek14CzwTA2s_13generic_array5implss2S_0pEINtB7_12GenericArraypINtNtCsdOIG378uWuC_7typenum4uint4UIntIB19_IB19_IB19_IB19_NtB1b_5UTermNtNtB1d_3bit2B1EB2f_EB2f_ENtB2h_2B0EB2F_EEINtNtCskumHb0IaX0X_4core7convert5AsMutApj1c_E6as_mutB7_
FNDA:0,_RNvXININtCsek14CzwTA2s_13generic_array5implss2T_0pEINtB7_12GenericArraypINtNtCsdOIG378uWuC_7typenum4uint4UIntIB19_IB19_IB19_IB19_NtB1b_5UTermNtNtB1d_3bit2B1EB2f_EB2f_ENtB2h_2B0EB2f_EEINtNtCskumHb0IaX0X_4core7convert4FromApj1d_E4fromB7_
FNDA:0,_RNvXININtCsek14CzwTA2s_13generic_array5implss2U_0pEApj1d_INtNtCskumHb0IaX0X_4core7convert4FromINtB7_12GenericArraypINtNtCsdOIG378uWuC_7typenum4uint4UIntIB1Q_IB1Q_IB1Q_IB1Q_NtB1S_5UTermNtNtB1U_3bit2B1EB2W_EB2W_ENtB2Y_2B0EB2W_EEE4fromB7_
FNDA:0,_RNvXININtCsek14CzwTA2s_13generic_array5implss2V_0pERINtB7_12GenericArraypINtNtCsdOIG378uWuC_7typenum4uint4UIntIB1a_IB1a_IB1a_IB1a_NtB1c_5UTermNtNtB1e_3bit2B1EB2g_EB2g_ENtB2i_2B0EB2g_EEINtNtCskumHb0IaX0X_4core7convert4FromRApj1d_E4fromB7_
FNDA:0,_RNvXININtCsek14CzwTA2s_13generic_array5implss2W_0pEQINtB7_12GenericArraypINtNtCsdOIG378uWuC_7typenum4uint4UIntIB1a_IB1a_IB1a_IB1a_NtB1c_5UTermNtNtB1e_3bit2B1EB2g_EB2g_ENtB2i_2B0EB2g_EEINtNtCskumHb0IaX0X_4core7convert4FromQApj1d_E4fromB7_
FNDA:0,_RNvXININtCsek14CzwTA2s_13generic_array5implss2X_0pEINtB7_12GenericArraypINtNtCsdOIG378uWuC_7typenum4uint4UIntIB19_IB19_IB19_IB19_NtB1b_5UTermNtNtB1d_3bit2B1EB2f_EB2f_ENtB2h_2B0EB2f_EEINtNtCskumHb0IaX0X_4core7convert5AsRefApj1d_E6as_refB7_
FNDA:0,_RNvXININtCsek14CzwTA2s_13generic_array5implss2Y_0pEINtB7_12GenericArraypINtNtCsdOIG378uWuC_7typenum4uint4UIntIB19_IB19_IB19_IB19_NtB1b_5UTermNtNtB1d_3bit2B1EB2f_EB2f_ENtB2h_2B0EB2f_EEINtNtCskumHb0IaX0X_4core7convert5AsMutApj1d_E6as_mutB7_
FNDA:0,_RNvXININtCsek14CzwTA2s_13generic_array5implss2Z_0pEINtB7_12GenericArraypINtNtCsdOIG378uWuC_7typenum4uint4UIntIB19_IB19_IB19_IB19_NtB1b_5UTermNtNtB1d_3bit2B1EB2f_EB2f_EB2f_ENtB2h_2B0EEINtNtCskumHb0IaX0X_4core7convert4FromApj1e_E4fromB7_
FNDA:0,_RNvXININtCsek14CzwTA2s_13generic_array5implss2a_0pEQINtB7_12GenericArraypINtNtCsdOIG378uWuC_7typenum4uint4UIntIB1a_IB1a_IB1a_IB1a_NtB1c_5UTermNtNtB1e_3bit2B1ENtB2i_2B0EB2g_EB2w_EB2g_EEINtNtCskumHb0IaX0X_4core7convert4FromQApj15_E4fromB7_
FNDA:0,_RNvXININtCsek14CzwTA2s_13generic_array5implss2b_0pEINtB7_12GenericArraypINtNtCsdOIG378uWuC_7typenum4uint4UIntIB19_IB19_IB19_IB19_NtB1b_5UTermNtNtB1d_3bit2B1ENtB2h_2B0EB2f_EB2v_EB2f_EEINtNtCskumHb0IaX0X_4core7convert5AsRefApj15_E6as_refB7_
FNDA:0,_RNvXININtCsek14CzwTA2s_13generic_array5implss2c_0pEINtB7_12GenericArraypINtNtCsdOIG378uWuC_7typenum4uint4UIntIB19_IB19_IB19_IB19_NtB1b_5UTermNtNtB1d_3bit2B1ENtB2h_2B0EB2f_EB2v_EB2f_EEINtNtCskumHb0IaX0X_4core7convert5AsMutApj15_E6as_mutB7_
FNDA:0,_RNvXININtCsek14CzwTA2s_13generic_array5implss2d_0pEINtB7_12GenericArraypINtNtCsdOIG378uWuC_7typenum4uint4UIntIB19_IB19_IB19_IB19_NtB1b_5UTermNtNtB1d_3bit2B1ENtB2h_2B0EB2f_EB2f_EB2v_EEINtNtCskumHb0IaX0X_4core7convert4FromApj16_E4fromB7_
FNDA:0,_RNvXININtCsek14CzwTA2s_13generic_array5implss2e_0pEApj16_INtNtCskumHb0IaX0X_4core7convert4FromINtB7_12GenericArraypINtNtCsdOIG378uWuC_7typenum4uint4UIntIB1Q_IB1Q_IB1Q_IB1Q_NtB1S_5UTermNtNtB1U_3bit2B1ENtB2Y_2B0EB2W_EB2W_EB3c_EEE4fromB7_
FNDA:0,_RNvXININtCsek14CzwTA2s_13generic_array5implss2f_0pERINtB7_12GenericArraypINtNtCsdOIG378uWuC_7typenum4uint4UIntIB1a_IB1a_IB1a_IB1a_NtB1c_5UTermNtNtB1e_3bit2B1ENtB2i_2B0EB2g_EB2g_EB2w_EEINtNtCskumHb0IaX0X_4core7convert4FromRApj16_E4fromB7_
FNDA:0,_RNvXININtCsek14CzwTA2s_13generic_array5implss2g_0pEQINtB7_12GenericArraypINtNtCsdOIG378uWuC_7typenum4uint4UIntIB1a_IB1a_IB1a_IB1a_NtB1c_5UTermNtNtB1e_3bit2B1ENtB2i_2B0EB2g_EB2g_EB2w_EEINtNtCskumHb0IaX0X_4core7convert4FromQApj16_E4fromB7_
FNDA:0,_RNvXININtCsek14CzwTA2s_13generic_array5implss2h_0pEINtB7_12GenericArraypINtNtCsdOIG378uWuC_7typenum4uint4UIntIB19_IB19_IB19_IB19_NtB1b_5UTermNtNtB1d_3bit2B1ENtB2h_2B0EB2f_EB2f_EB2v_EEINtNtCskumHb0IaX0X_4core7convert5AsRefApj16_E6as_refB7_
FNDA:0,_RNvXININtCsek14CzwTA2s_13generic_array5implss2i_0pEINtB7_12GenericArraypINtNtCsdOIG378uWuC_7typenum4uint4UIntIB19_IB19_IB19_IB19_NtB1b_5UTermNtNtB1d_3bit2B1ENtB2h_2B0EB2f_EB2f_EB2v_EEINtNtCskumHb0IaX0X_4core7convert5AsMutApj16_E6as_mutB7_
FNDA:0,_RNvXININtCsek14CzwTA2s_13generic_array5implss2j_0pEINtB7_12GenericArraypINtNtCsdOIG378uWuC_7typenum4uint4UIntIB19_IB19_IB19_IB19_NtB1b_5UTermNtNtB1d_3bit2B1ENtB2h_2B0EB2f_EB2f_EB2f_EEINtNtCskumHb0IaX0X_4core7convert4FromApj17_E4fromB7_
FNDA:0,_RNvXININtCsek14CzwTA2s_13generic_array5implss2k_0pEApj17_INtNtCskumHb0IaX0X_4core7convert4FromINtB7_12GenericArraypINtNtCsdOIG378uWuC_7typenum4uint4UIntIB1Q_IB1Q_IB1Q_IB1Q_NtB1S_5UTermNtNtB1U_3bit2B1ENtB2Y_2B0EB2W_EB2W_EB2W_EEE4fromB7_
FNDA:0,_RNvXININtCsek14CzwTA2s_13generic_array5implss2l_0pERINtB7_12GenericArraypINtNtCsdOIG378uWuC_7typenum4uint4UIntIB1a_IB1a_IB1a_IB1a_NtB1c_5UTermNtNtB1e_3bit2B1ENtB2i_2B0EB2g_EB2g_EB2g_EEINtNtCskumHb0IaX0X_4core7convert4FromRApj17_E4fromB7_
FNDA:0,_RNvXININtCsek14CzwTA2s_13generic_array5implss2m_0pEQINtB7_12GenericArraypINtNtCsdOIG378uWuC_7typenum4uint4UIntIB1a_IB1a_IB1a_IB1a_NtB1c_5UTermNtNtB1e_3bit2B1ENtB2i_2B0EB2g_EB2g_EB2g_EEINtNtCskumHb0IaX0X_4core7convert4FromQApj17_E4fromB7_
FNDA:0,_RNvXININtCsek14CzwTA2s_13generic_array5implss2n_0pEINtB7_12GenericArraypINtNtCsdOIG378uWuC_7typenum4uint4UIntIB19_IB19_IB19_IB19_NtB1b_5UTermNtNtB1d_3bit2B1ENtB2h_2B0EB2f_EB2f_EB2f_EEINtNtCskumHb0IaX0X_4core7convert5AsRefApj17_E6as_refB7_
FNDA:0,_RNvXININtCsek14CzwTA2s_13generic_array5implss2o_0pEINtB7_12GenericArraypINtNtCsdOIG378uWuC_7typenum4uint4UIntIB19_IB19_IB19_IB19_NtB1b_5UTermNtNtB1d_3bit2B1ENtB2h_2B0EB2f_EB2f_EB2f_EEINtNtCskumHb0IaX0X_4core7convert5AsMutApj17_E6as_mutB7_
FNDA:0,_RNvXININtCsek14CzwTA2s_13generic_array5implss2p_0pEINtB7_12GenericArraypINtNtCsdOIG378uWuC_7typenum4uint4UIntIB19_IB19_IB19_IB19_NtB1b_5UTermNtNtB1d_3bit2B1EB2f_ENtB2h_2B0EB2A_EB2A_EEINtNtCskumHb0IaX0X_4core7convert4FromApj18_E4fromB7_
FNDA:0,_RNvXININtCsek14CzwTA2s_13generic_array5implss2q_0pEApj18_INtNtCskumHb0IaX0X_4core7convert4FromINtB7_12GenericArraypINtNtCsdOIG378uWuC_7typenum4uint4UIntIB1Q_IB1Q_IB1Q_IB1Q_NtB1S_5UTermNtNtB1U_3bit2B1EB2W_ENtB2Y_2B0EB3h_EB3h_EEE4fromB7_
FNDA:0,_RNvXININtCsek14CzwTA2s_13generic_array5implss2r_0pERINtB7_12GenericArraypINtNtCsdOIG378uWuC_7typenum4uint4UIntIB1a_IB1a_IB1a_IB1a_NtB1c_5UTermNtNtB1e_3bit2B1EB2g_ENtB2i_2B0EB2B_EB2B_EEINtNtCskumHb0IaX0X_4core7convert4FromRApj18_E4fromB7_
FNDA:0,_RNvXININtCsek14CzwTA2s_13generic_array5implss2s_0pEQINtB7_12GenericArraypINtNtCsdOIG378uWuC_7typenum4uint4UIntIB1a_IB1a_IB1a_IB1a_NtB1c_5UTermNtNtB1e_3bit2B1EB2g_ENtB2i_2B0EB2B_EB2B_EEINtNtCskumHb0IaX0X_4core7convert4FromQApj18_E4fromB7_
FNDA:0,_RNvXININtCsek14CzwTA2s_13generic_array5implss2t_0pEINtB7_12GenericArraypINtNtCsdOIG378uWuC_7typenum4uint4UIntIB19_IB19_IB19_IB19_NtB1b_5UTermNtNtB1d_3bit2B1EB2f_ENtB2h_2B0EB2A_EB2A_EEINtNtCskumHb0IaX0X_4core7convert5AsRefApj18_E6as_refB7_
FNDA:0,_RNvXININtCsek14CzwTA2s_13generic_array5implss2u_0pEINtB7_12GenericArraypINtNtCsdOIG378uWuC_7typenum4uint4UIntIB19_IB19_IB19_IB19_NtB1b_5UTermNtNtB1d_3bit2B1EB2f_ENtB2h_2B0EB2A_EB2A_EEINtNtCskumHb0IaX0X_4core7convert5AsMutApj18_E6as_mutB7_
FNDA:0,_RNvXININtCsek14CzwTA2s_13generic_array5implss2v_0pEINtB7_12GenericArraypINtNtCsdOIG378uWuC_7typenum4uint4UIntIB19_IB19_IB19_IB19_NtB1b_5UTermNtNtB1d_3bit2B1EB2f_ENtB2h_2B0EB2A_EB2f_EEINtNtCskumHb0IaX0X_4core7convert4FromApj19_E4fromB7_
FNDA:0,_RNvXININtCsek14CzwTA2s_13generic_array5implss2w_0pEApj19_INtNtCskumHb0IaX0X_4core7convert4FromINtB7_12GenericArraypINtNtCsdOIG378uWuC_7typenum4uint4UIntIB1Q_IB1Q_IB1Q_IB1Q_NtB1S_5UTermNtNtB1U_3bit2B1EB2W_ENtB2Y_2B0EB3h_EB2W_EEE4fromB7_
FNDA:0,_RNvXININtCsek14CzwTA2s_13generic_array5implss2x_0pERINtB7_12GenericArraypINtNtCsdOIG378uWuC_7typenum4uint4UIntIB1a_IB1a_IB1a_IB1a_NtB1c_5UTermNtNtB1e_3bit2B1EB2g_ENtB2i_2B0EB2B_EB2g_EEINtNtCskumHb0IaX0X_4core7convert4FromRApj19_E4fromB7_
FNDA:0,_RNvXININtCsek14CzwTA2s_13generic_array5implss2y_0pEQINtB7_12GenericArraypINtNtCsdOIG378uWuC_7typenum4uint4UIntIB1a_IB1a_IB1a_IB1a_NtB1c_5UTermNtNtB1e_3bit2B1EB2g_ENtB2i_2B0EB2B_EB2g_EEINtNtCskumHb0IaX0X_4core7convert4FromQApj19_E4fromB7_
FNDA:0,_RNvXININtCsek14CzwTA2s_13generic_array5implss2z_0pEINtB7_12GenericArraypINtNtCsdOIG378uWuC_7typenum4uint4UIntIB19_IB19_IB19_IB19_NtB1b_5UTermNtNtB1d_3bit2B1EB2f_ENtB2h_2B0EB2A_EB2f_EEINtNtCskumHb0IaX0X_4core7convert5AsRefApj19_E6as_refB7_
FNDA:0,_RNvXININtCsek14CzwTA2s_13generic_array5implss30_0pEApj1e_INtNtCskumHb0IaX0X_4core7convert4FromINtB7_12GenericArraypINtNtCsdOIG378uWuC_7typenum4uint4UIntIB1Q_IB1Q_IB1Q_IB1Q_NtB1S_5UTermNtNtB1U_3bit2B1EB2W_EB2W_EB2W_ENtB2Y_2B0EEE4fromB7_
FNDA:0,_RNvXININtCsek14CzwTA2s_13generic_array5implss31_0pERINtB7_12GenericArraypINtNtCsdOIG378uWuC_7typenum4uint4UIntIB1a_IB1a_IB1a_IB1a_NtB1c_5UTermNtNtB1e_3bit2B1EB2g_EB2g_EB2g_ENtB2i_2B0EEINtNtCskumHb0IaX0X_4core7convert4FromRApj1e_E4fromB7_
FNDA:0,_RNvXININtCsek14CzwTA2s_13generic_array5implss32_0pEQINtB7_12GenericArraypINtNtCsdOIG378uWuC_7typenum4uint4UIntIB1a_IB1a_IB1a_IB1a_NtB1c_5UTermNtNtB1e_3bit2B1EB2g_EB2g_EB2g_ENtB2i_2B0EEINtNtCskumHb0IaX0X_4core7convert4FromQApj1e_E4fromB7_
FNDA:0,_RNvXININtCsek14CzwTA2s_13generic_array5implss33_0pEINtB7_12GenericArraypINtNtCsdOIG378uWuC_7typenum4uint4UIntIB19_IB19_IB19_IB19_NtB1b_5UTermNtNtB1d_3bit2B1EB2f_EB2f_EB2f_ENtB2h_2B0EEINtNtCskumHb0IaX0X_4core7convert5AsRefApj1e_E6as_refB7_
FNDA:0,_RNvXININtCsek14CzwTA2s_13generic_array5implss34_0pEINtB7_12GenericArraypINtNtCsdOIG378uWuC_7typenum4uint4UIntIB19_IB19_IB19_IB19_NtB1b_5UTermNtNtB1d_3bit2B1EB2f_EB2f_EB2f_ENtB2h_2B0EEINtNtCskumHb0IaX0X_4core7convert5AsMutApj1e_E6as_mutB7_
FNDA:0,_RNvXININtCsek14CzwTA2s_13generic_array5implss35_0pEINtB7_12GenericArraypINtNtCsdOIG378uWuC_7typenum4uint4UIntIB19_IB19_IB19_IB19_NtB1b_5UTermNtNtB1d_3bit2B1EB2f_EB2f_EB2f_EB2f_EEINtNtCskumHb0IaX0X_4core7convert4FromApj1f_E4fromB7_
FNDA:0,_RNvXININtCsek14CzwTA2s_13generic_array5implss36_0pEApj1f_INtNtCskumHb0IaX0X_4core7convert4FromINtB7_12GenericArraypINtNtCsdOIG378uWuC_7typenum4uint4UIntIB1Q_IB1Q_IB1Q_IB1Q_NtB1S_5UTermNtNtB1U_3bit2B1EB2W_EB2W_EB2W_EB2W_EEE4fromB7_
FNDA:0,_RNvXININtCsek14CzwTA2s_13generic_array5implss37_0pERINtB7_12GenericArraypINtNtCsdOIG378uWuC_7typenum4uint4UIntIB1a_IB1a_IB1a_IB1a_NtB1c_5UTermNtNtB1e_3bit2B1EB2g_EB2g_EB2g_EB2g_EEINtNtCskumHb0IaX0X_4core7convert4FromRApj1f_E4fromB7_
FNDA:0,_RNvXININtCsek14CzwTA2s_13generic_array5implss38_0pEQINtB7_12GenericArraypINtNtCsdOIG378uWuC_7typenum4uint4UIntIB1a_IB1a_IB1a_IB1a_NtB1c_5UTermNtNtB1e_3bit2B1EB2g_EB2g_EB2g_EB2g_EEINtNtCskumHb0IaX0X_4core7convert4FromQApj1f_E4fromB7_
FNDA:0,_RNvXININtCsek14CzwTA2s_13generic_array5implss39_0pEINtB7_12GenericArraypINtNtCsdOIG378uWuC_7typenum4uint4UIntIB19_IB19_IB19_IB19_NtB1b_5UTermNtNtB1d_3bit2B1EB2f_EB2f_EB2f_EB2f_EEINtNtCskumHb0IaX0X_4core7convert5AsRefApj1f_E6as_refB7_
FNDA:0,_RNvXININtCsek14CzwTA2s_13generic_array5implss3A_0pEApj24_INtNtCskumHb0IaX0X_4core7convert4FromINtB7_12GenericArraypINtNtCsdOIG378uWuC_7typenum4uint4UIntIB1Q_IB1Q_IB1Q_IB1Q_IB1Q_NtB1S_5UTermNtNtB1U_3bit2B1ENtB33_2B0EB3h_EB31_EB3h_EB3h_EEE4fromB7_
FNDA:0,_RNvXININtCsek14CzwTA2s_13generic_array5implss3B_0pERINtB7_12GenericArraypINtNtCsdOIG378uWuC_7typenum4uint4UIntIB1a_IB1a_IB1a_IB1a_IB1a_NtB1c_5UTermNtNtB1e_3bit2B1ENtB2n_2B0EB2B_EB2l_EB2B_EB2B_EEINtNtCskumHb0IaX0X_4core7convert4FromRApj24_E4fromB7_
FNDA:0,_RNvXININtCsek14CzwTA2s_13generic_array5implss3C_0pEQINtB7_12GenericArraypINtNtCsdOIG378uWuC_7typenum4uint4UIntIB1a_IB1a_IB1a_IB1a_IB1a_NtB1c_5UTermNtNtB1e_3bit2B1ENtB2n_2B0EB2B_EB2l_EB2B_EB2B_EEINtNtCskumHb0IaX0X_4core7convert4FromQApj24_E4fromB7_
FNDA:0,_RNvXININtCsek14CzwTA2s_13generic_array5implss3D_0pEINtB7_12GenericArraypINtNtCsdOIG378uWuC_7typenum4uint4UIntIB19_IB19_IB19_IB19_IB19_NtB1b_5UTermNtNtB1d_3bit2B1ENtB2m_2B0EB2A_EB2k_EB2A_EB2A_EEINtNtCskumHb0IaX0X_4core7convert5AsRefApj24_E6as_refB7_
FNDA:0,_RNvXININtCsek14CzwTA2s_13generic_array5implss3E_0pEINtB7_12GenericArraypINtNtCsdOIG378uWuC_7typenum4uint4UIntIB19_IB19_IB19_IB19_IB19_NtB1b_5UTermNtNtB1d_3bit2B1ENtB2m_2B0EB2A_EB2k_EB2A_EB2A_EEINtNtCskumHb0IaX0X_4core7convert5AsMutApj24_E6as_mutB7_
FNDA:0,_RNvXININtCsek14CzwTA2s_13generic_array5implss3F_0pEINtB7_12GenericArraypINtNtCsdOIG378uWuC_7typenum4uint4UIntIB19_IB19_IB19_IB19_IB19_NtB1b_5UTermNtNtB1d_3bit2B1ENtB2m_2B0EB2A_EB2k_EB2A_EB2k_EEINtNtCskumHb0IaX0X_4core7convert4FromApj25_E4fromB7_
FNDA:0,_RNvXININtCsek14CzwTA2s_13generic_array5implss3G_0pEApj25_INtNtCskumHb0IaX0X_4core7convert4FromINtB7_12GenericArraypINtNtCsdOIG378uWuC_7typenum4uint4UIntIB1Q_IB1Q_IB1Q_IB1Q_IB1Q_NtB1S_5UTermNtNtB1U_3bit2B1ENtB33_2B0EB3h_EB31_EB3h_EB31_EEE4fromB7_
FNDA:0,_RNvXININtCsek14CzwTA2s_13generic_array5implss3H_0pERINtB7_12GenericArraypINtNtCsdOIG378uWuC_7typenum4uint4UIntIB1a_IB1a_IB1a_IB1a_IB1a_NtB1c_5UTermNtNtB1e_3bit2B1ENtB2n_2B0EB2B_EB2l_EB2B_EB2l_EEINtNtCskumHb0IaX0X_4core7convert4FromRApj25_E4fromB7_
FNDA:0,_RNvXININtCsek14CzwTA2s_13generic_array5implss3I_0pEQINtB7_12GenericArraypINtNtCsdOIG378uWuC_7typenum4uint4UIntIB1a_IB1a_IB1a_IB1a_IB1a_NtB1c_5UTermNtNtB1e_3bit2B1ENtB2n_2B0EB2B_EB2l_EB2B_EB2l_EEINtNtCskumHb0IaX0X_4core7convert4FromQApj25_E4fromB7_
FNDA:0,_RNvXININtCsek14CzwTA2s_13generic_array5implss3J_0pEINtB7_12GenericArraypINtNtCsdOIG378uWuC_7typenum4uint4UIntIB19_IB19_IB19_IB19_IB19_NtB1b_5UTermNtNtB1d_3bit2B1ENtB2m_2B0EB2A_EB2k_EB2A_EB2k_EEINtNtCskumHb0IaX0X_4core7convert5AsRefApj25_E6as_refB7_
FNDA:0,_RNvXININtCsek14CzwTA2s_13generic_array5implss3K_0pEINtB7_12GenericArraypINtNtCsdOIG378uWuC_7typenum4uint4UIntIB19_IB19_IB19_IB19_IB19_NtB1b_5UTermNtNtB1d_3bit2B1ENtB2m_2B0EB2A_EB2k_EB2A_EB2k_EEINtNtCskumHb0IaX0X_4core7convert5AsMutApj25_E6as_mutB7_
FNDA:0,_RNvXININtCsek14CzwTA2s_13generic_array5implss3L_0pEINtB7_12GenericArraypINtNtCsdOIG378uWuC_7typenum4uint4UIntIB19_IB19_IB19_IB19_IB19_NtB1b_5UTermNtNtB1d_3bit2B1ENtB2m_2B0EB2A_EB2k_EB2k_EB2A_EEINtNtCskumHb0IaX0X_4core7convert4FromApj26_E4fromB7_
FNDA:0,_RNvXININtCsek14CzwTA2s_13generic_array5implss3M_0pEApj26_INtNtCskumHb0IaX0X_4core7convert4FromINtB7_12GenericArraypINtNtCsdOIG378uWuC_7typenum4uint4UIntIB1Q_IB1Q_IB1Q_IB1Q_IB1Q_NtB1S_5UTermNtNtB1U_3bit2B1ENtB33_2B0EB3h_EB31_EB31_EB3h_EEE4fromB7_
FNDA:0,_RNvXININtCsek14CzwTA2s_13generic_array5implss3N_0pERINtB7_12GenericArraypINtNtCsdOIG378uWuC_7typenum4uint4UIntIB1a_IB1a_IB1a_IB1a_IB1a_NtB1c_5UTermNtNtB1e_3bit2B1ENtB2n_2B0EB2B_EB2l_EB2l_EB2B_EEINtNtCskumHb0IaX0X_4core7convert4FromRApj26_E4fromB7_
FNDA:0,_RNvXININtCsek14CzwTA2s_13generic_array5implss3O_0pEQINtB7_12GenericArraypINtNtCsdOIG378uWuC_7typenum4uint4UIntIB1a_IB1a_IB1a_IB1a_IB1a_NtB1c_5UTermNtNtB1e_3bit2B1ENtB2n_2B0EB2B_EB2l_EB2l_EB2B_EEINtNtCskumHb0IaX0X_4core7convert4FromQApj26_E4fromB7_
FNDA:0,_RNvXININtCsek14CzwTA2s_13generic_array5implss3P_0pEINtB7_12GenericArraypINtNtCsdOIG378uWuC_7typenum4uint4UIntIB19_IB19_IB19_IB19_IB19_NtB1b_5UTermNtNtB1d_3bit2B1ENtB2m_2B0EB2A_EB2k_EB2k_EB2A_EEINtNtCskumHb0IaX0X_4core7convert5AsRefApj26_E6as_refB7_
FNDA:0,_RNvXININtCsek14CzwTA2s_13generic_array5implss3Q_0pEINtB7_12GenericArraypINtNtCsdOIG378uWuC_7typenum4uint4UIntIB19_IB19_IB19_IB19_IB19_NtB1b_5UTermNtNtB1d_3bit2B1ENtB2m_2B0EB2A_EB2k_EB2k_EB2A_EEINtNtCskumHb0IaX0X_4core7convert5AsMutApj26_E6as_mutB7_
FNDA:0,_RNvXININtCsek14CzwTA2s_13generic_array5implss3R_0pEINtB7_12GenericArraypINtNtCsdOIG378uWuC_7typenum4uint4UIntIB19_IB19_IB19_IB19_IB19_NtB1b_5UTermNtNtB1d_3bit2B1ENtB2m_2B0EB2A_EB2k_EB2k_EB2k_EEINtNtCskumHb0IaX0X_4core7convert4FromApj27_E4fromB7_
FNDA:0,_RNvXININtCsek14CzwTA2s_13generic_array5implss3S_0pEApj27_INtNtCskumHb0IaX0X_4core7convert4FromINtB7_12GenericArraypINtNtCsdOIG378uWuC_7typenum4uint4UIntIB1Q_IB1Q_IB1Q_IB1Q_IB1Q_NtB1S_5UTermNtNtB1U_3bit2B1ENtB33_2B0EB3h_EB31_EB31_EB31_EEE4fromB7_
FNDA:0,_RNvXININtCsek14CzwTA2s_13generic_array5implss3T_0pERINtB7_12GenericArraypINtNtCsdOIG378uWuC_7typenum4uint4UIntIB1a_IB1a_IB1a_IB1a_IB1a_NtB1c_5UTermNtNtB1e_3bit2B1ENtB2n_2B0EB2B_EB2l_EB2l_EB2l_EEINtNtCskumHb0IaX0X_4core7convert4FromRApj27_E4fromB7_
FNDA:0,_RNvXININtCsek14CzwTA2s_13generic_array5implss3U_0pEQINtB7_12GenericArraypINtNtCsdOIG378uWuC_7typenum4uint4UIntIB1a_IB1a_IB1a_IB1a_IB1a_NtB1c_5UTermNtNtB1e_3bit2B1ENtB2n_2B0EB2B_EB2l_EB2l_EB2l_EEINtNtCskumHb0IaX0X_4core7convert4FromQApj27_E4fromB7_
FNDA:0,_RNvXININtCsek14CzwTA2s_13generic_array5implss3V_0pEINtB7_12GenericArraypINtNtCsdOIG378uWuC_7typenum4uint4UIntIB19_IB19_IB19_IB19_IB19_NtB1b_5UTermNtNtB1d_3bit2B1ENtB2m_2B0EB2A_EB2k_EB2k_EB2k_EEINtNtCskumHb0IaX0X_4core7convert5AsRefApj27_E6as_refB7_
FNDA:0,_RNvXININtCsek14CzwTA2s_13generic_array5implss3W_0pEINtB7_12GenericArraypINtNtCsdOIG378uWuC_7typenum4uint4UIntIB19_IB19_IB19_IB19_IB19_NtB1b_5UTermNtNtB1d_3bit2B1ENtB2m_2B0EB2A_EB2k_EB2k_EB2k_EEINtNtCskumHb0IaX0X_4core7convert5AsMutApj27_E6as_mutB7_
FNDA:0,_RNvXININtCsek14CzwTA2s_13generic_array5implss3X_0pEINtB7_12GenericArraypINtNtCsdOIG378uWuC_7typenum4uint4UIntIB19_IB19_IB19_IB19_IB19_NtB1b_5UTermNtNtB1d_3bit2B1ENtB2m_2B0EB2k_EB2A_EB2A_EB2A_EEINtNtCskumHb0IaX0X_4core7convert4FromApj28_E4fromB7_
FNDA:0,_RNvXININtCsek14CzwTA2s_13generic_array5implss3Y_0pEApj28_INtNtCskumHb0IaX0X_4core7convert4FromINtB7_12GenericArraypINtNtCsdOIG378uWuC_7typenum4uint4UIntIB1Q_IB1Q_IB1Q_IB1Q_IB1Q_NtB1S_5UTermNtNtB1U_3bit2B1ENtB33_2B0EB31_EB3h_EB3h_EB3h_EEE4fromB7_
FNDA:0,_RNvXININtCsek14CzwTA2s_13generic_array5implss3Z_0pERINtB7_12GenericArraypINtNtCsdOIG378uWuC_7typenum4uint4UIntIB1a_IB1a_IB1a_IB1a_IB1a_NtB1c_5UTermNtNtB1e_3bit2B1ENtB2n_2B0EB2l_EB2B_EB2B_EB2B_EEINtNtCskumHb0IaX0X_4core7convert4FromRApj28_E4fromB7_
FNDA:0,_RNvXININtCsek14CzwTA2s_13generic_array5implss3_0ppEINtB7_12GenericArrayppENtNtCskumHb0IaX0X_4core3cmp10PartialOrd11partial_cmpB7_
FNDA:0,_RNvXININtCsek14CzwTA2s_13generic_array5implss3a_0pEINtB7_12GenericArraypINtNtCsdOIG378uWuC_7typenum4uint4UIntIB19_IB19_IB19_IB19_NtB1b_5UTermNtNtB1d_3bit2B1EB2f_EB2f_EB2f_EB2f_EEINtNtCskumHb0IaX0X_4core7convert5AsMutApj1f_E6as_mutB7_
FNDA:0,_RNvXININtCsek14CzwTA2s_13generic_array5implss3b_0pEINtB7_12GenericArraypINtNtCsdOIG378uWuC_7typenum4uint4UIntIB19_IB19_IB19_IB19_IB19_NtB1b_5UTermNtNtB1d_3bit2B1ENtB2m_2B0EB2A_EB2A_EB2A_EB2A_EEINtNtCskumHb0IaX0X_4core7convert4FromApj20_E4fromB7_
FNDA:0,_RNvXININtCsek14CzwTA2s_13generic_array5implss3c_0pEApj20_INtNtCskumHb0IaX0X_4core7convert4FromINtB7_12GenericArraypINtNtCsdOIG378uWuC_7typenum4uint4UIntIB1Q_IB1Q_IB1Q_IB1Q_IB1Q_NtB1S_5UTermNtNtB1U_3bit2B1ENtB33_2B0EB3h_EB3h_EB3h_EB3h_EEE4fromB7_
FNDA:0,_RNvXININtCsek14CzwTA2s_13generic_array5implss3d_0pERINtB7_12GenericArraypINtNtCsdOIG378uWuC_7typenum4uint4UIntIB1a_IB1a_IB1a_IB1a_IB1a_NtB1c_5UTermNtNtB1e_3bit2B1ENtB2n_2B0EB2B_EB2B_EB2B_EB2B_EEINtNtCskumHb0IaX0X_4core7convert4FromRApj20_E4fromB7_
FNDA:0,_RNvXININtCsek14CzwTA2s_13generic_array5implss3e_0pEQINtB7_12GenericArraypINtNtCsdOIG378uWuC_7typenum4uint4UIntIB1a_IB1a_IB1a_IB1a_IB1a_NtB1c_5UTermNtNtB1e_3bit2B1ENtB2n_2B0EB2B_EB2B_EB2B_EB2B_EEINtNtCskumHb0IaX0X_4core7convert4FromQApj20_E4fromB7_
FNDA:0,_RNvXININtCsek14CzwTA2s_13generic_array5implss3f_0pEINtB7_12GenericArraypINtNtCsdOIG378uWuC_7typenum4uint4UIntIB19_IB19_IB19_IB19_IB19_NtB1b_5UTermNtNtB1d_3bit2B1ENtB2m_2B0EB2A_EB2A_EB2A_EB2A_EEINtNtCskumHb0IaX0X_4core7convert5AsRefApj20_E6as_refB7_
FNDA:0,_RNvXININtCsek14CzwTA2s_13generic_array5implss3g_0pEINtB7_12GenericArraypINtNtCsdOIG378uWuC_7typenum4uint4UIntIB19_IB19_IB19_IB19_IB19_NtB1b_5UTermNtNtB1d_3bit2B1ENtB2m_2B0EB2A_EB2A_EB2A_EB2A_EEINtNtCskumHb0IaX0X_4core7convert5AsMutApj20_E6as_mutB7_
FNDA:0,_RNvXININtCsek14CzwTA2s_13generic_array5implss3h_0pEINtB7_12GenericArraypINtNtCsdOIG378uWuC_7typenum4uint4UIntIB19_IB19_IB19_IB19_IB19_NtB1b_5UTermNtNtB1d_3bit2B1ENtB2m_2B0EB2A_EB2A_EB2A_EB2k_EEINtNtCskumHb0IaX0X_4core7convert4FromApj21_E4fromB7_
FNDA:0,_RNvXININtCsek14CzwTA2s_13generic_array5implss3i_0pEApj21_INtNtCskumHb0IaX0X_4core7convert4FromINtB7_12GenericArraypINtNtCsdOIG378uWuC_7typenum4uint4UIntIB1Q_IB1Q_IB1Q_IB1Q_IB1Q_NtB1S_5UTermNtNtB1U_3bit2B1ENtB33_2B0EB3h_EB3h_EB3h_EB31_EEE4fromB7_
FNDA:0,_RNvXININtCsek14CzwTA2s_13generic_array5implss3j_0pERINtB7_12GenericArraypINtNtCsdOIG378uWuC_7typenum4uint4UIntIB1a_IB1a_IB1a_IB1a_IB1a_NtB1c_5UTermNtNtB1e_3bit2B1ENtB2n_2B0EB2B_EB2B_EB2B_EB2l_EEINtNtCskumHb0IaX0X_4core7convert4FromRApj21_E4fromB7_
FNDA:0,_RNvXININtCsek14CzwTA2s_13generic_array5implss3k_0pEQINtB7_12GenericArraypINtNtCsdOIG378uWuC_7typenum4uint4UIntIB1a_IB1a_IB1a_IB1a_IB1a_NtB1c_5UTermNtNtB1e_3bit2B1ENtB2n_2B0EB2B_EB2B_EB2B_EB2l_EEINtNtCskumHb0IaX0X_4core7convert4FromQApj21_E4fromB7_
FNDA:0,_RNvXININtCsek14CzwTA2s_13generic_array5implss3l_0pEINtB7_12GenericArraypINtNtCsdOIG378uWuC_7typenum4uint4UIntIB19_IB19_IB19_IB19_IB19_NtB1b_5UTermNtNtB1d_3bit2B1ENtB2m_2B0EB2A_EB2A_EB2A_EB2k_EEINtNtCskumHb0IaX0X_4core7convert5AsRefApj21_E6as_refB7_
FNDA:0,_RNvXININtCsek14CzwTA2s_13generic_array5implss3m_0pEINtB7_12GenericArraypINtNtCsdOIG378uWuC_7typenum4uint4UIntIB19_IB19_IB19_IB19_IB19_NtB1b_5UTermNtNtB1d_3bit2B1ENtB2m_2B0EB2A_EB2A_EB2A_EB2k_EEINtNtCskumHb0IaX0X_4core7convert5AsMutApj21_E6as_mutB7_
FNDA:0,_RNvXININtCsek14CzwTA2s_13generic_array5implss3n_0pEINtB7_12GenericArraypINtNtCsdOIG378uWuC_7typenum4uint4UIntIB19_IB19_IB19_IB19_IB19_NtB1b_5UTermNtNtB1d_3bit2B1ENtB2m_2B0EB2A_EB2A_EB2k_EB2A_EEINtNtCskumHb0IaX0X_4core7convert4FromApj22_E4fromB7_
FNDA:0,_RNvXININtCsek14CzwTA2s_13generic_array5implss3o_0pEApj22_INtNtCskumHb0IaX0X_4core7convert4FromINtB7_12GenericArraypINtNtCsdOIG378uWuC_7typenum4uint4UIntIB1Q_IB1Q_IB1Q_IB1Q_IB1Q_NtB1S_5UTermNtNtB1U_3bit2B1ENtB33_2B0EB3h_EB3h_EB31_EB3h_EEE4fromB7_
FNDA:0,_RNvXININtCsek14CzwTA2s_13generic_array5implss3p_0pERINtB7_12GenericArraypINtNtCsdOIG378uWuC_7typenum4uint4UIntIB1a_IB1a_IB1a_IB1a_IB1a_NtB1c_5UTermNtNtB1e_3bit2B1ENtB2n_2B0EB2B_EB2B_EB2l_EB2B_EEINtNtCskumHb0IaX0X_4core7convert4FromRApj22_E4fromB7_
FNDA:0,_RNvXININtCsek14CzwTA2s_13generic_array5implss3q_0pEQINtB7_12GenericArraypINtNtCsdOIG378uWuC_7typenum4uint4UIntIB1a_IB1a_IB1a_IB1a_IB1a_NtB1c_5UTermNtNtB1e_3bit2B1ENtB2n_2B0EB2B_EB2B_EB2l_EB2B_EEINtNtCskumHb0IaX0X_4core7convert4FromQApj22_E4fromB7_
FNDA:0,_RNvXININtCsek14CzwTA2s_13generic_array5implss3r_0pEINtB7_12GenericArraypINtNtCsdOIG378uWuC_7typenum4uint4UIntIB19_IB19_IB19_IB19_IB19_NtB1b_5UTermNtNtB1d_3bit2B1ENtB2m_2B0EB2A_EB2A_EB2k_EB2A_EEINtNtCskumHb0IaX0X_4core7convert5AsRefApj22_E6as_refB7_
FNDA:0,_RNvXININtCsek14CzwTA2s_13generic_array5implss3s_0pEINtB7_12GenericArraypINtNtCsdOIG378uWuC_7typenum4uint4UIntIB19_IB19_IB19_IB19_IB19_NtB1b_5UTermNtNtB1d_3bit2B1ENtB2m_2B0EB2A_EB2A_EB2k_EB2A_EEINtNtCskumHb0IaX0X_4core7convert5AsMutApj22_E6as_mutB7_
FNDA:0,_RNvXININtCsek14CzwTA2s_13generic_array5implss3t_0pEINtB7_12GenericArraypINtNtCsdOIG378uWuC_7typenum4uint4UIntIB19_IB19_IB19_IB19_IB19_NtB1b_5UTermNtNtB1d_3bit2B1ENtB2m_2B0EB2A_EB2A_EB2k_EB2k_EEINtNtCskumHb0IaX0X_4core7convert4FromApj23_E4fromB7_
FNDA:0,_RNvXININtCsek14CzwTA2s_13generic_array5implss3u_0pEApj23_INtNtCskumHb0IaX0X_4core7convert4FromINtB7_12GenericArraypINtNtCsdOIG378uWuC_7typenum4uint4UIntIB1Q_IB1Q_IB1Q_IB1Q_IB1Q_NtB1S_5UTermNtNtB1U_3bit2B1ENtB33_2B0EB3h_EB3h_EB31_EB31_EEE4fromB7_
FNDA:0,_RNvXININtCsek14CzwTA2s_13generic_array5implss3v_0pERINtB7_12GenericArraypINtNtCsdOIG378uWuC_7typenum4uint4UIntIB1a_IB1a_IB1a_IB1a_IB1a_NtB1c_5UTermNtNtB1e_3bit2B1ENtB2n_2B0EB2B_EB2B_EB2l_EB2l_EEINtNtCskumHb0IaX0X_4core7convert4FromRApj23_E4fromB7_
FNDA:0,_RNvXININtCsek14CzwTA2s_13generic_array5implss3w_0pEQINtB7_12GenericArraypINtNtCsdOIG378uWuC_7typenum4uint4UIntIB1a_IB1a_IB1a_IB1a_IB1a_NtB1c_5UTermNtNtB1e_3bit2B1ENtB2n_2B0EB2B_EB2B_EB2l_EB2l_EEINtNtCskumHb0IaX0X_4core7convert4FromQApj23_E4fromB7_
FNDA:0,_RNvXININtCsek14CzwTA2s_13generic_array5implss3x_0pEINtB7_12GenericArraypINtNtCsdOIG378uWuC_7typenum4uint4UIntIB19_IB19_IB19_IB19_IB19_NtB1b_5UTermNtNtB1d_3bit2B1ENtB2m_2B0EB2A_EB2A_EB2k_EB2k_EEINtNtCskumHb0IaX0X_4core7convert5AsRefApj23_E6as_refB7_
FNDA:0,_RNvXININtCsek14CzwTA2s_13generic_array5implss3y_0pEINtB7_12GenericArraypINtNtCsdOIG378uWuC_7typenum4uint4UIntIB19_IB19_IB19_IB19_IB19_NtB1b_5UTermNtNtB1d_3bit2B1ENtB2m_2B0EB2A_EB2A_EB2k_EB2k_EEINtNtCskumHb0IaX0X_4core7convert5AsMutApj23_E6as_mutB7_
FNDA:0,_RNvXININtCsek14CzwTA2s_13generic_array5implss3z_0pEINtB7_12GenericArraypINtNtCsdOIG378uWuC_7typenum4uint4UIntIB19_IB19_IB19_IB19_IB19_NtB1b_5UTermNtNtB1d_3bit2B1ENtB2m_2B0EB2A_EB2k_EB2A_EB2A_EEINtNtCskumHb0IaX0X_4core7convert4FromApj24_E4fromB7_
FNDA:0,_RNvXININtCsek14CzwTA2s_13generic_array5implss40_0pEQINtB7_12GenericArraypINtNtCsdOIG378uWuC_7typenum4uint4UIntIB1a_IB1a_IB1a_IB1a_IB1a_NtB1c_5UTermNtNtB1e_3bit2B1ENtB2n_2B0EB2l_EB2B_EB2B_EB2B_EEINtNtCskumHb0IaX0X_4core7convert4FromQApj28_E4fromB7_
FNDA:0,_RNvXININtCsek14CzwTA2s_13generic_array5implss41_0pEINtB7_12GenericArraypINtNtCsdOIG378uWuC_7typenum4uint4UIntIB19_IB19_IB19_IB19_IB19_NtB1b_5UTermNtNtB1d_3bit2B1ENtB2m_2B0EB2k_EB2A_EB2A_EB2A_EEINtNtCskumHb0IaX0X_4core7convert5AsRefApj28_E6as_refB7_
FNDA:0,_RNvXININtCsek14CzwTA2s_13generic_array5implss42_0pEINtB7_12GenericArraypINtNtCsdOIG378uWuC_7typenum4uint4UIntIB19_IB19_IB19_IB19_IB19_NtB1b_5UTermNtNtB1d_3bit2B1ENtB2m_2B0EB2k_EB2A_EB2A_EB2A_EEINtNtCskumHb0IaX0X_4core7convert5AsMutApj28_E6as_mutB7_
FNDA:0,_RNvXININtCsek14CzwTA2s_13generic_array5implss43_0pEINtB7_12GenericArraypINtNtCsdOIG378uWuC_7typenum4uint4UIntIB19_IB19_IB19_IB19_IB19_NtB1b_5UTermNtNtB1d_3bit2B1ENtB2m_2B0EB2k_EB2A_EB2A_EB2k_EEINtNtCskumHb0IaX0X_4core7convert4FromApj29_E4fromB7_
FNDA:0,_RNvXININtCsek14CzwTA2s_13generic_array5implss44_0pEApj29_INtNtCskumHb0IaX0X_4core7convert4FromINtB7_12GenericArraypINtNtCsdOIG378uWuC_7typenum4uint4UIntIB1Q_IB1Q_IB1Q_IB1Q_IB1Q_NtB1S_5UTermNtNtB1U_3bit2B1ENtB33_2B0EB31_EB3h_EB3h_EB31_EEE4fromB7_
FNDA:0,_RNvXININtCsek14CzwTA2s_13generic_array5implss45_0pERINtB7_12GenericArraypINtNtCsdOIG378uWuC_7typenum4uint4UIntIB1a_IB1a_IB1a_IB1a_IB1a_NtB1c_5UTermNtNtB1e_3bit2B1ENtB2n_2B0EB2l_EB2B_EB2B_EB2l_EEINtNtCskumHb0IaX0X_4core7convert4FromRApj29_E4fromB7_
FNDA:0,_RNvXININtCsek14CzwTA2s_13generic_array5implss46_0pEQINtB7_12GenericArraypINtNtCsdOIG378uWuC_7typenum4uint4UIntIB1a_IB1a_IB1a_IB1a_IB1a_NtB1c_5UTermNtNtB1e_3bit2B1ENtB2n_2B0EB2l_EB2B_EB2B_EB2l_EEINtNtCskumHb0IaX0X_4core7convert4FromQApj29_E4fromB7_
FNDA:0,_RNvXININtCsek14CzwTA2s_13generic_array5implss47_0pEINtB7_12GenericArraypINtNtCsdOIG378uWuC_7typenum4uint4UIntIB19_IB19_IB19_IB19_IB19_NtB1b_5UTermNtNtB1d_3bit2B1ENtB2m_2B0EB2k_EB2A_EB2A_EB2k_EEINtNtCskumHb0IaX0X_4core7convert5AsRefApj29_E6as_refB7_
FNDA:0,_RNvXININtCsek14CzwTA2s_13generic_array5implss48_0pEINtB7_12GenericArraypINtNtCsdOIG378uWuC_7typenum4uint4UIntIB19_IB19_IB19_IB19_IB19_NtB1b_5UTermNtNtB1d_3bit2B1ENtB2m_2B0EB2k_EB2A_EB2A_EB2k_EEINtNtCskumHb0IaX0X_4core7convert5AsMutApj29_E6as_mutB7_
FNDA:0,_RNvXININtCsek14CzwTA2s_13generic_array5implss49_0pEINtB7_12GenericArraypINtNtCsdOIG378uWuC_7typenum4uint4UIntIB19_IB19_IB19_IB19_IB19_NtB1b_5UTermNtNtB1d_3bit2B1ENtB2m_2B0EB2k_EB2A_EB2k_EB2A_EEINtNtCskumHb0IaX0X_4core7convert4FromApj2a_E4fromB7_
FNDA:0,_RNvXININtCsek14CzwTA2s_13generic_array5implss4A_0pEQINtB7_12GenericArraypINtNtCsdOIG378uWuC_7typenum4uint4UIntIB1a_IB1a_IB1a_IB1a_IB1a_NtB1c_5UTermNtNtB1e_3bit2B1ENtB2n_2B0EB2l_EB2l_EB2l_EB2B_EEINtNtCskumHb0IaX0X_4core7convert4FromQApj2e_E4fromB7_
FNDA:0,_RNvXININtCsek14CzwTA2s_13generic_array5implss4B_0pEINtB7_12GenericArraypINtNtCsdOIG378uWuC_7typenum4uint4UIntIB19_IB19_IB19_IB19_IB19_NtB1b_5UTermNtNtB1d_3bit2B1ENtB2m_2B0EB2k_EB2k_EB2k_EB2A_EEINtNtCskumHb0IaX0X_4core7convert5AsRefApj2e_E6as_refB7_
FNDA:0,_RNvXININtCsek14CzwTA2s_13generic_array5implss4C_0pEINtB7_12GenericArraypINtNtCsdOIG378uWuC_7typenum4uint4UIntIB19_IB19_IB19_IB19_IB19_NtB1b_5UTermNtNtB1d_3bit2B1ENtB2m_2B0EB2k_EB2k_EB2k_EB2A_EEINtNtCskumHb0IaX0X_4core7convert5AsMutApj2e_E6as_mutB7_
FNDA:0,_RNvXININtCsek14CzwTA2s_13generic_array5implss4D_0pEINtB7_12GenericArraypINtNtCsdOIG378uWuC_7typenum4uint4UIntIB19_IB19_IB19_IB19_IB19_NtB1b_5UTermNtNtB1d_3bit2B1ENtB2m_2B0EB2k_EB2k_EB2k_EB2k_EEINtNtCskumHb0IaX0X_4core7convert4FromApj2f_E4fromB7_
FNDA:0,_RNvXININtCsek14CzwTA2s_13generic_array5implss4E_0pEApj2f_INtNtCskumHb0IaX0X_4core7convert4FromINtB7_12GenericArraypINtNtCsdOIG378uWuC_7typenum4uint4UIntIB1Q_IB1Q_IB1Q_IB1Q_IB1Q_NtB1S_5UTermNtNtB1U_3bit2B1ENtB33_2B0EB31_EB31_EB31_EB31_EEE4fromB7_
FNDA:0,_RNvXININtCsek14CzwTA2s_13generic_array5implss4F_0pERINtB7_12GenericArraypINtNtCsdOIG378uWuC_7typenum4uint4UIntIB1a_IB1a_IB1a_IB1a_IB1a_NtB1c_5UTermNtNtB1e_3bit2B1ENtB2n_2B0EB2l_EB2l_EB2l_EB2l_EEINtNtCskumHb0IaX0X_4core7convert4FromRApj2f_E4fromB7_
FNDA:0,_RNvXININtCsek14CzwTA2s_13generic_array5implss4G_0pEQINtB7_12GenericArraypINtNtCsdOIG378uWuC_7typenum4uint4UIntIB1a_IB1a_IB1a_IB1a_IB1a_NtB1c_5UTermNtNtB1e_3bit2B1ENtB2n_2B0EB2l_EB2l_EB2l_EB2l_EEINtNtCskumHb0IaX0X_4core7convert4FromQApj2f_E4fromB7_
FNDA:0,_RNvXININtCsek14CzwTA2s_13generic_array5implss4H_0pEINtB7_12GenericArraypINtNtCsdOIG378uWuC_7typenum4uint4UIntIB19_IB19_IB19_IB19_IB19_NtB1b_5UTermNtNtB1d_3bit2B1ENtB2m_2B0EB2k_EB2k_EB2k_EB2k_EEINtNtCskumHb0IaX0X_4core7convert5AsRefApj2f_E6as_refB7_
FNDA:0,_RNvXININtCsek14CzwTA2s_13generic_array5implss4I_0pEINtB7_12GenericArraypINtNtCsdOIG378uWuC_7typenum4uint4UIntIB19_IB19_IB19_IB19_IB19_NtB1b_5UTermNtNtB1d_3bit2B1ENtB2m_2B0EB2k_EB2k_EB2k_EB2k_EEINtNtCskumHb0IaX0X_4core7convert5AsMutApj2f_E6as_mutB7_
FNDA:0,_RNvXININtCsek14CzwTA2s_13generic_array5implss4J_0pEINtB7_12GenericArraypINtNtCsdOIG378uWuC_7typenum4uint4UIntIB19_IB19_IB19_IB19_IB19_NtB1b_5UTermNtNtB1d_3bit2B1EB2k_ENtB2m_2B0EB2F_EB2F_EB2F_EEINtNtCskumHb0IaX0X_4core7convert4FromApj30_E4fromB7_
FNDA:0,_RNvXININtCsek14CzwTA2s_13generic_array5implss4K_0pEApj30_INtNtCskumHb0IaX0X_4core7convert4FromINtB7_12GenericArraypINtNtCsdOIG378uWuC_7typenum4uint4UIntIB1Q_IB1Q_IB1Q_IB1Q_IB1Q_NtB1S_5UTermNtNtB1U_3bit2B1EB31_ENtB33_2B0EB3m_EB3m_EB3m_EEE4fromB7_
FNDA:0,_RNvXININtCsek14CzwTA2s_13generic_array5implss4L_0pERINtB7_12GenericArraypINtNtCsdOIG378uWuC_7typenum4uint4UIntIB1a_IB1a_IB1a_IB1a_IB1a_NtB1c_5UTermNtNtB1e_3bit2B1EB2l_ENtB2n_2B0EB2G_EB2G_EB2G_EEINtNtCskumHb0IaX0X_4core7convert4FromRApj30_E4fromB7_
FNDA:0,_RNvXININtCsek14CzwTA2s_13generic_array5implss4M_0pEQINtB7_12GenericArraypINtNtCsdOIG378uWuC_7typenum4uint4UIntIB1a_IB1a_IB1a_IB1a_IB1a_NtB1c_5UTermNtNtB1e_3bit2B1EB2l_ENtB2n_2B0EB2G_EB2G_EB2G_EEINtNtCskumHb0IaX0X_4core7convert4FromQApj30_E4fromB7_
FNDA:0,_RNvXININtCsek14CzwTA2s_13generic_array5implss4N_0pEINtB7_12GenericArraypINtNtCsdOIG378uWuC_7typenum4uint4UIntIB19_IB19_IB19_IB19_IB19_NtB1b_5UTermNtNtB1d_3bit2B1EB2k_ENtB2m_2B0EB2F_EB2F_EB2F_EEINtNtCskumHb0IaX0X_4core7convert5AsRefApj30_E6as_refB7_
FNDA:0,_RNvXININtCsek14CzwTA2s_13generic_array5implss4O_0pEINtB7_12GenericArraypINtNtCsdOIG378uWuC_7typenum4uint4UIntIB19_IB19_IB19_IB19_IB19_NtB1b_5UTermNtNtB1d_3bit2B1EB2k_ENtB2m_2B0EB2F_EB2F_EB2F_EEINtNtCskumHb0IaX0X_4core7convert5AsMutApj30_E6as_mutB7_
FNDA:0,_RNvXININtCsek14CzwTA2s_13generic_array5implss4P_0pEINtB7_12GenericArraypINtNtCsdOIG378uWuC_7typenum4uint4UIntIB19_IB19_IB19_IB19_IB19_NtB1b_5UTermNtNtB1d_3bit2B1EB2k_ENtB2m_2B0EB2F_EB2F_EB2k_EEINtNtCskumHb0IaX0X_4core7convert4FromApj31_E4fromB7_
FNDA:0,_RNvXININtCsek14CzwTA2s_13generic_array5implss4Q_0pEApj31_INtNtCskumHb0IaX0X_4core7convert4FromINtB7_12GenericArraypINtNtCsdOIG378uWuC_7typenum4uint4UIntIB1Q_IB1Q_IB1Q_IB1Q_IB1Q_NtB1S_5UTermNtNtB1U_3bit2B1EB31_ENtB33_2B0EB3m_EB3m_EB31_EEE4fromB7_
FNDA:0,_RNvXININtCsek14CzwTA2s_13generic_array5implss4R_0pERINtB7_12GenericArraypINtNtCsdOIG378uWuC_7typenum4uint4UIntIB1a_IB1a_IB1a_IB1a_IB1a_NtB1c_5UTermNtNtB1e_3bit2B1EB2l_ENtB2n_2B0EB2G_EB2G_EB2l_EEINtNtCskumHb0IaX0X_4core7convert4FromRApj31_E4fromB7_
FNDA:0,_RNvXININtCsek14CzwTA2s_13generic_array5implss4S_0pEQINtB7_12GenericArraypINtNtCsdOIG378uWuC_7typenum4uint4UIntIB1a_IB1a_IB1a_IB1a_IB1a_NtB1c_5UTermNtNtB1e_3bit2B1EB2l_ENtB2n_2B0EB2G_EB2G_EB2l_EEINtNtCskumHb0IaX0X_4core7convert4FromQApj31_E4fromB7_
FNDA:0,_RNvXININtCsek14CzwTA2s_13generic_array5implss4T_0pEINtB7_12GenericArraypINtNtCsdOIG378uWuC_7typenum4uint4UIntIB19_IB19_IB19_IB19_IB19_NtB1b_5UTermNtNtB1d_3bit2B1EB2k_ENtB2m_2B0EB2F_EB2F_EB2k_EEINtNtCskumHb0IaX0X_4core7convert5AsRefApj31_E6as_refB7_
FNDA:0,_RNvXININtCsek14CzwTA2s_13generic_array5implss4U_0pEINtB7_12GenericArraypINtNtCsdOIG378uWuC_7typenum4uint4UIntIB19_IB19_IB19_IB19_IB19_NtB1b_5UTermNtNtB1d_3bit2B1EB2k_ENtB2m_2B0EB2F_EB2F_EB2k_EEINtNtCskumHb0IaX0X_4core7convert5AsMutApj31_E6as_mutB7_
FNDA:0,_RNvXININtCsek14CzwTA2s_13generic_array5implss4V_0pEINtB7_12GenericArraypINtNtCsdOIG378uWuC_7typenum4uint4UIntIB19_IB19_IB19_IB19_IB19_NtB1b_5UTermNtNtB1d_3bit2B1EB2k_ENtB2m_2B0EB2F_EB2k_EB2F_EEINtNtCskumHb0IaX0X_4core7convert4FromApj32_E4fromB7_
FNDA:0,_RNvXININtCsek14CzwTA2s_13generic_array5implss4W_0pEApj32_INtNtCskumHb0IaX0X_4core7convert4FromINtB7_12GenericArraypINtNtCsdOIG378uWuC_7typenum4uint4UIntIB1Q_IB1Q_IB1Q_IB1Q_IB1Q_NtB1S_5UTermNtNtB1U_3bit2B1EB31_ENtB33_2B0EB3m_EB31_EB3m_EEE4fromB7_
FNDA:0,_RNvXININtCsek14CzwTA2s_13generic_array5implss4X_0pERINtB7_12GenericArraypINtNtCsdOIG378uWuC_7typenum4uint4UIntIB1a_IB1a_IB1a_IB1a_IB1a_NtB1c_5UTermNtNtB1e_3bit2B1EB2l_ENtB2n_2B0EB2G_EB2l_EB2G_EEINtNtCskumHb0IaX0X_4core7convert4FromRApj32_E4fromB7_
FNDA:0,_RNvXININtCsek14CzwTA2s_13generic_array5implss4Y_0pEQINtB7_12GenericArraypINtNtCsdOIG378uWuC_7typenum4uint4UIntIB1a_IB1a_IB1a_IB1a_IB1a_NtB1c_5UTermNtNtB1e_3bit2B1EB2l_ENtB2n_2B0EB2G_EB2l_EB2G_EEINtNtCskumHb0IaX0X_4core7convert4FromQApj32_E4fromB7_
FNDA:0,_RNvXININtCsek14CzwTA2s_13generic_array5implss4Z_0pEINtB7_12GenericArraypINtNtCsdOIG378uWuC_7typenum4uint4UIntIB19_IB19_IB19_IB19_IB19_NtB1b_5UTermNtNtB1d_3bit2B1EB2k_ENtB2m_2B0EB2F_EB2k_EB2F_EEINtNtCskumHb0IaX0X_4core7convert5AsRefApj32_E6as_refB7_
FNDA:0,_RNvXININtCsek14CzwTA2s_13generic_array5implss4_0ppEINtB7_12GenericArrayppENtNtCskumHb0IaX0X_4core3cmp3Ord3cmpB7_
FNDA:0,_RNvXININtCsek14CzwTA2s_13generic_array5implss4a_0pEApj2a_INtNtCskumHb0IaX0X_4core7convert4FromINtB7_12GenericArraypINtNtCsdOIG378uWuC_7typenum4uint4UIntIB1Q_IB1Q_IB1Q_IB1Q_IB1Q_NtB1S_5UTermNtNtB1U_3bit2B1ENtB33_2B0EB31_EB3h_EB31_EB3h_EEE4fromB7_
FNDA:0,_RNvXININtCsek14CzwTA2s_13generic_array5implss4b_0pERINtB7_12GenericArraypINtNtCsdOIG378uWuC_7typenum4uint4UIntIB1a_IB1a_IB1a_IB1a_IB1a_NtB1c_5UTermNtNtB1e_3bit2B1ENtB2n_2B0EB2l_EB2B_EB2l_EB2B_EEINtNtCskumHb0IaX0X_4core7convert4FromRApj2a_E4fromB7_
FNDA:0,_RNvXININtCsek14CzwTA2s_13generic_array5implss4c_0pEQINtB7_12GenericArraypINtNtCsdOIG378uWuC_7typenum4uint4UIntIB1a_IB1a_IB1a_IB1a_IB1a_NtB1c_5UTermNtNtB1e_3bit2B1ENtB2n_2B0EB2l_EB2B_EB2l_EB2B_EEINtNtCskumHb0IaX0X_4core7convert4FromQApj2a_E4fromB7_
FNDA:0,_RNvXININtCsek14CzwTA2s_13generic_array5implss4d_0pEINtB7_12GenericArraypINtNtCsdOIG378uWuC_7typenum4uint4UIntIB19_IB19_IB19_IB19_IB19_NtB1b_5UTermNtNtB1d_3bit2B1ENtB2m_2B0EB2k_EB2A_EB2k_EB2A_EEINtNtCskumHb0IaX0X_4core7convert5AsRefApj2a_E6as_refB7_
FNDA:0,_RNvXININtCsek14CzwTA2s_13generic_array5implss4e_0pEINtB7_12GenericArraypINtNtCsdOIG378uWuC_7typenum4uint4UIntIB19_IB19_IB19_IB19_IB19_NtB1b_5UTermNtNtB1d_3bit2B1ENtB2m_2B0EB2k_EB2A_EB2k_EB2A_EEINtNtCskumHb0IaX0X_4core7convert5AsMutApj2a_E6as_mutB7_
FNDA:0,_RNvXININtCsek14CzwTA2s_13generic_array5implss4f_0pEINtB7_12GenericArraypINtNtCsdOIG378uWuC_7typenum4uint4UIntIB19_IB19_IB19_IB19_IB19_NtB1b_5UTermNtNtB1d_3bit2B1ENtB2m_2B0EB2k_EB2A_EB2k_EB2k_EEINtNtCskumHb0IaX0X_4core7convert4FromApj2b_E4fromB7_
FNDA:0,_RNvXININtCsek14CzwTA2s_13generic_array5implss4g_0pEApj2b_INtNtCskumHb0IaX0X_4core7convert4FromINtB7_12GenericArraypINtNtCsdOIG378uWuC_7typenum4uint4UIntIB1Q_IB1Q_IB1Q_IB1Q_IB1Q_NtB1S_5UTermNtNtB1U_3bit2B1ENtB33_2B0EB31_EB3h_EB31_EB31_EEE4fromB7_
FNDA:0,_RNvXININtCsek14CzwTA2s_13generic_array5implss4h_0pERINtB7_12GenericArraypINtNtCsdOIG378uWuC_7typenum4uint4UIntIB1a_IB1a_IB1a_IB1a_IB1a_NtB1c_5UTermNtNtB1e_3bit2B1ENtB2n_2B0EB2l_EB2B_EB2l_EB2l_EEINtNtCskumHb0IaX0X_4core7convert4FromRApj2b_E4fromB7_
FNDA:0,_RNvXININtCsek14CzwTA2s_13generic_array5implss4i_0pEQINtB7_12GenericArraypINtNtCsdOIG378uWuC_7typenum4uint4UIntIB1a_IB1a_IB1a_IB1a_IB1a_NtB1c_5UTermNtNtB1e_3bit2B1ENtB2n_2B0EB2l_EB2B_EB2l_EB2l_EEINtNtCskumHb0IaX0X_4core7convert4FromQApj2b_E4fromB7_
FNDA:0,_RNvXININtCsek14CzwTA2s_13generic_array5implss4j_0pEINtB7_12GenericArraypINtNtCsdOIG378uWuC_7typenum4uint4UIntIB19_IB19_IB19_IB19_IB19_NtB1b_5UTermNtNtB1d_3bit2B1ENtB2m_2B0EB2k_EB2A_EB2k_EB2k_EEINtNtCskumHb0IaX0X_4core7convert5AsRefApj2b_E6as_refB7_
FNDA:0,_RNvXININtCsek14CzwTA2s_13generic_array5implss4k_0pEINtB7_12GenericArraypINtNtCsdOIG378uWuC_7typenum4uint4UIntIB19_IB19_IB19_IB19_IB19_NtB1b_5UTermNtNtB1d_3bit2B1ENtB2m_2B0EB2k_EB2A_EB2k_EB2k_EEINtNtCskumHb0IaX0X_4core7convert5AsMutApj2b_E6as_mutB7_
FNDA:0,_RNvXININtCsek14CzwTA2s_13generic_array5implss4l_0pEINtB7_12GenericArraypINtNtCsdOIG378uWuC_7typenum4uint4UIntIB19_IB19_IB19_IB19_IB19_NtB1b_5UTermNtNtB1d_3bit2B1ENtB2m_2B0EB2k_EB2k_EB2A_EB2A_EEINtNtCskumHb0IaX0X_4core7convert4FromApj2c_E4fromB7_
FNDA:0,_RNvXININtCsek14CzwTA2s_13generic_array5implss4m_0pEApj2c_INtNtCskumHb0IaX0X_4core7convert4FromINtB7_12GenericArraypINtNtCsdOIG378uWuC_7typenum4uint4UIntIB1Q_IB1Q_IB1Q_IB1Q_IB1Q_NtB1S_5UTermNtNtB1U_3bit2B1ENtB33_2B0EB31_EB31_EB3h_EB3h_EEE4fromB7_
FNDA:0,_RNvXININtCsek14CzwTA2s_13generic_array5implss4n_0pERINtB7_12GenericArraypINtNtCsdOIG378uWuC_7typenum4uint4UIntIB1a_IB1a_IB1a_IB1a_IB1a_NtB1c_5UTermNtNtB1e_3bit2B1ENtB2n_2B0EB2l_EB2l_EB2B_EB2B_EEINtNtCskumHb0IaX0X_4core7convert4FromRApj2c_E4fromB7_
FNDA:0,_RNvXININtCsek14CzwTA2s_13generic_array5implss4o_0pEQINtB7_12GenericArraypINtNtCsdOIG378uWuC_7typenum4uint4UIntIB1a_IB1a_IB1a_IB1a_IB1a_NtB1c_5UTermNtNtB1e_3bit2B1ENtB2n_2B0EB2l_EB2l_EB2B_EB2B_EEINtNtCskumHb0IaX0X_4core7convert4FromQApj2c_E4fromB7_
FNDA:0,_RNvXININtCsek14CzwTA2s_13generic_array5implss4p_0pEINtB7_12GenericArraypINtNtCsdOIG378uWuC_7typenum4uint4UIntIB19_IB19_IB19_IB19_IB19_NtB1b_5UTermNtNtB1d_3bit2B1ENtB2m_2B0EB2k_EB2k_EB2A_EB2A_EEINtNtCskumHb0IaX0X_4core7convert5AsRefApj2c_E6as_refB7_
FNDA:0,_RNvXININtCsek14CzwTA2s_13generic_array5implss4q_0pEINtB7_12GenericArraypINtNtCsdOIG378uWuC_7typenum4uint4UIntIB19_IB19_IB19_IB19_IB19_NtB1b_5UTermNtNtB1d_3bit2B1ENtB2m_2B0EB2k_EB2k_EB2A_EB2A_EEINtNtCskumHb0IaX0X_4core7convert5AsMutApj2c_E6as_mutB7_
FNDA:0,_RNvXININtCsek14CzwTA2s_13generic_array5implss4r_0pEINtB7_12GenericArraypINtNtCsdOIG378uWuC_7typenum4uint4UIntIB19_IB19_IB19_IB19_IB19_NtB1b_5UTermNtNtB1d_3bit2B1ENtB2m_2B0EB2k_EB2k_EB2A_EB2k_EEINtNtCskumHb0IaX0X_4core7convert4FromApj2d_E4fromB7_
FNDA:0,_RNvXININtCsek14CzwTA2s_13generic_array5implss4s_0pEApj2d_INtNtCskumHb0IaX0X_4core7convert4FromINtB7_12GenericArraypINtNtCsdOIG378uWuC_7typenum4uint4UIntIB1Q_IB1Q_IB1Q_IB1Q_IB1Q_NtB1S_5UTermNtNtB1U_3bit2B1ENtB33_2B0EB31_EB31_EB3h_EB31_EEE4fromB7_
FNDA:0,_RNvXININtCsek14CzwTA2s_13generic_array5implss4t_0pERINtB7_12GenericArraypINtNtCsdOIG378uWuC_7typenum4uint4UIntIB1a_IB1a_IB1a_IB1a_IB1a_NtB1c_5UTermNtNtB1e_3bit2B1ENtB2n_2B0EB2l_EB2l_EB2B_EB2l_EEINtNtCskumHb0IaX0X_4core7convert4FromRApj2d_E4fromB7_
FNDA:0,_RNvXININtCsek14CzwTA2s_13generic_array5implss4u_0pEQINtB7_12GenericArraypINtNtCsdOIG378uWuC_7typenum4uint4UIntIB1a_IB1a_IB1a_IB1a_IB1a_NtB1c_5UTermNtNtB1e_3bit2B1ENtB2n_2B0EB2l_EB2l_EB2B_EB2l_EEINtNtCskumHb0IaX0X_4core7convert4FromQApj2d_E4fromB7_
FNDA:0,_RNvXININtCsek14CzwTA2s_13generic_array5implss4v_0pEINtB7_12GenericArraypINtNtCsdOIG378uWuC_7typenum4uint4UIntIB19_IB19_IB19_IB19_IB19_NtB1b_5UTermNtNtB1d_3bit2B1ENtB2m_2B0EB2k_EB2k_EB2A_EB2k_EEINtNtCskumHb0IaX0X_4core7convert5AsRefApj2d_E6as_refB7_
FNDA:0,_RNvXININtCsek14CzwTA2s_13generic_array5implss4w_0pEINtB7_12GenericArraypINtNtCsdOIG378uWuC_7typenum4uint4UIntIB19_IB19_IB19_IB19_IB19_NtB1b_5UTermNtNtB1d_3bit2B1ENtB2m_2B0EB2k_EB2k_EB2A_EB2k_EEINtNtCskumHb0IaX0X_4core7convert5AsMutApj2d_E6as_mutB7_
FNDA:0,_RNvXININtCsek14CzwTA2s_13generic_array5implss4x_0pEINtB7_12GenericArraypINtNtCsdOIG378uWuC_7typenum4uint4UIntIB19_IB19_IB19_IB19_IB19_NtB1b_5UTermNtNtB1d_3bit2B1ENtB2m_2B0EB2k_EB2k_EB2k_EB2A_EEINtNtCskumHb0IaX0X_4core7convert4FromApj2e_E4fromB7_
FNDA:0,_RNvXININtCsek14CzwTA2s_13generic_array5implss4y_0pEApj2e_INtNtCskumHb0IaX0X_4core7convert4FromINtB7_12GenericArraypINtNtCsdOIG378uWuC_7typenum4uint4UIntIB1Q_IB1Q_IB1Q_IB1Q_IB1Q_NtB1S_5UTermNtNtB1U_3bit2B1ENtB33_2B0EB31_EB31_EB31_EB3h_EEE4fromB7_
FNDA:0,_RNvXININtCsek14CzwTA2s_13generic_array5implss4z_0pERINtB7_12GenericArraypINtNtCsdOIG378uWuC_7typenum4uint4UIntIB1a_IB1a_IB1a_IB1a_IB1a_NtB1c_5UTermNtNtB1e_3bit2B1ENtB2n_2B0EB2l_EB2l_EB2l_EB2B_EEINtNtCskumHb0IaX0X_4core7convert4FromRApj2e_E4fromB7_
FNDA:0,_RNvXININtCsek14CzwTA2s_13generic_array5implss50_0pEINtB7_12GenericArraypINtNtCsdOIG378uWuC_7typenum4uint4UIntIB19_IB19_IB19_IB19_IB19_NtB1b_5UTermNtNtB1d_3bit2B1EB2k_ENtB2m_2B0EB2F_EB2k_EB2F_EEINtNtCskumHb0IaX0X_4core7convert5AsMutApj32_E6as_mutB7_
FNDA:0,_RNvXININtCsek14CzwTA2s_13generic_array5implss51_0pEINtB7_12GenericArraypINtNtCsdOIG378uWuC_7typenum4uint4UIntIB19_IB19_IB19_IB19_IB19_NtB1b_5UTermNtNtB1d_3bit2B1EB2k_ENtB2m_2B0EB2F_EB2k_EB2k_EEINtNtCskumHb0IaX0X_4core7convert4FromApj33_E4fromB7_
FNDA:0,_RNvXININtCsek14CzwTA2s_13generic_array5implss52_0pEApj33_INtNtCskumHb0IaX0X_4core7convert4FromINtB7_12GenericArraypINtNtCsdOIG378uWuC_7typenum4uint4UIntIB1Q_IB1Q_IB1Q_IB1Q_IB1Q_NtB1S_5UTermNtNtB1U_3bit2B1EB31_ENtB33_2B0EB3m_EB31_EB31_EEE4fromB7_
FNDA:0,_RNvXININtCsek14CzwTA2s_13generic_array5implss53_0pERINtB7_12GenericArraypINtNtCsdOIG378uWuC_7typenum4uint4UIntIB1a_IB1a_IB1a_IB1a_IB1a_NtB1c_5UTermNtNtB1e_3bit2B1EB2l_ENtB2n_2B0EB2G_EB2l_EB2l_EEINtNtCskumHb0IaX0X_4core7convert4FromRApj33_E4fromB7_
FNDA:0,_RNvXININtCsek14CzwTA2s_13generic_array5implss54_0pEQINtB7_12GenericArraypINtNtCsdOIG378uWuC_7typenum4uint4UIntIB1a_IB1a_IB1a_IB1a_IB1a_NtB1c_5UTermNtNtB1e_3bit2B1EB2l_ENtB2n_2B0EB2G_EB2l_EB2l_EEINtNtCskumHb0IaX0X_4core7convert4FromQApj33_E4fromB7_
FNDA:0,_RNvXININtCsek14CzwTA2s_13generic_array5implss55_0pEINtB7_12GenericArraypINtNtCsdOIG378uWuC_7typenum4uint4UIntIB19_IB19_IB19_IB19_IB19_NtB1b_5UTermNtNtB1d_3bit2B1EB2k_ENtB2m_2B0EB2F_EB2k_EB2k_EEINtNtCskumHb0IaX0X_4core7convert5AsRefApj33_E6as_refB7_
FNDA:0,_RNvXININtCsek14CzwTA2s_13generic_array5implss56_0pEINtB7_12GenericArraypINtNtCsdOIG378uWuC_7typenum4uint4UIntIB19_IB19_IB19_IB19_IB19_NtB1b_5UTermNtNtB1d_3bit2B1EB2k_ENtB2m_2B0EB2F_EB2k_EB2k_EEINtNtCskumHb0IaX0X_4core7convert5AsMutApj33_E6as_mutB7_
FNDA:0,_RNvXININtCsek14CzwTA2s_13generic_array5implss57_0pEINtB7_12GenericArraypINtNtCsdOIG378uWuC_7typenum4uint4UIntIB19_IB19_IB19_IB19_IB19_NtB1b_5UTermNtNtB1d_3bit2B1EB2k_ENtB2m_2B0EB2k_EB2F_EB2F_EEINtNtCskumHb0IaX0X_4core7convert4FromApj34_E4fromB7_
FNDA:0,_RNvXININtCsek14CzwTA2s_13generic_array5implss58_0pEApj34_INtNtCskumHb0IaX0X_4core7convert4FromINtB7_12GenericArraypINtNtCsdOIG378uWuC_7typenum4uint4UIntIB1Q_IB1Q_IB1Q_IB1Q_IB1Q_NtB1S_5UTermNtNtB1U_3bit2B1EB31_ENtB33_2B0EB31_EB3m_EB3m_EEE4fromB7_
FNDA:0,_RNvXININtCsek14CzwTA2s_13generic_array5implss59_0pERINtB7_12GenericArraypINtNtCsdOIG378uWuC_7typenum4uint4UIntIB1a_IB1a_IB1a_IB1a_IB1a_NtB1c_5UTermNtNtB1e_3bit2B1EB2l_ENtB2n_2B0EB2l_EB2G_EB2G_EEINtNtCskumHb0IaX0X_4core7convert4FromRApj34_E4fromB7_
FNDA:0,_RNvXININtCsek14CzwTA2s_13generic_array5implss5A_0pEINtB7_12GenericArraypINtNtCsdOIG378uWuC_7typenum4uint4UIntIB19_IB19_IB19_IB19_IB19_NtB1b_5UTermNtNtB1d_3bit2B1EB2k_EB2k_ENtB2m_2B0EB2K_EB2K_EEINtNtCskumHb0IaX0X_4core7convert5AsMutApj38_E6as_mutB7_
FNDA:0,_RNvXININtCsek14CzwTA2s_13generic_array5implss5B_0pEINtB7_12GenericArraypINtNtCsdOIG378uWuC_7typenum4uint4UIntIB19_IB19_IB19_IB19_IB19_NtB1b_5UTermNtNtB1d_3bit2B1EB2k_EB2k_ENtB2m_2B0EB2K_EB2k_EEINtNtCskumHb0IaX0X_4core7convert4FromApj39_E4fromB7_
FNDA:0,_RNvXININtCsek14CzwTA2s_13generic_array5implss5C_0pEApj39_INtNtCskumHb0IaX0X_4core7convert4FromINtB7_12GenericArraypINtNtCsdOIG378uWuC_7typenum4uint4UIntIB1Q_IB1Q_IB1Q_IB1Q_IB1Q_NtB1S_5UTermNtNtB1U_3bit2B1EB31_EB31_ENtB33_2B0EB3r_EB31_EEE4fromB7_
FNDA:0,_RNvXININtCsek14CzwTA2s_13generic_array5implss5D_0pERINtB7_12GenericArraypINtNtCsdOIG378uWuC_7typenum4uint4UIntIB1a_IB1a_IB1a_IB1a_IB1a_NtB1c_5UTermNtNtB1e_3bit2B1EB2l_EB2l_ENtB2n_2B0EB2L_EB2l_EEINtNtCskumHb0IaX0X_4core7convert4FromRApj39_E4fromB7_
FNDA:0,_RNvXININtCsek14CzwTA2s_13generic_array5implss5E_0pEQINtB7_12GenericArraypINtNtCsdOIG378uWuC_7typenum4uint4UIntIB1a_IB1a_IB1a_IB1a_IB1a_NtB1c_5UTermNtNtB1e_3bit2B1EB2l_EB2l_ENtB2n_2B0EB2L_EB2l_EEINtNtCskumHb0IaX0X_4core7convert4FromQApj39_E4fromB7_
FNDA:0,_RNvXININtCsek14CzwTA2s_13generic_array5implss5F_0pEINtB7_12GenericArraypINtNtCsdOIG378uWuC_7typenum4uint4UIntIB19_IB19_IB19_IB19_IB19_NtB1b_5UTermNtNtB1d_3bit2B1EB2k_EB2k_ENtB2m_2B0EB2K_EB2k_EEINtNtCskumHb0IaX0X_4core7convert5AsRefApj39_E6as_refB7_
FNDA:0,_RNvXININtCsek14CzwTA2s_13generic_array5implss5G_0pEINtB7_12GenericArraypINtNtCsdOIG378uWuC_7typenum4uint4UIntIB19_IB19_IB19_IB19_IB19_NtB1b_5UTermNtNtB1d_3bit2B1EB2k_EB2k_ENtB2m_2B0EB2K_EB2k_EEINtNtCskumHb0IaX0X_4core7convert5AsMutApj39_E6as_mutB7_
FNDA:0,_RNvXININtCsek14CzwTA2s_13generic_array5implss5H_0pEINtB7_12GenericArraypINtNtCsdOIG378uWuC_7typenum4uint4UIntIB19_IB19_IB19_IB19_IB19_NtB1b_5UTermNtNtB1d_3bit2B1EB2k_EB2k_ENtB2m_2B0EB2k_EB2K_EEINtNtCskumHb0IaX0X_4core7convert4FromApj3a_E4fromB7_
FNDA:0,_RNvXININtCsek14CzwTA2s_13generic_array5implss5I_0pEApj3a_INtNtCskumHb0IaX0X_4core7convert4FromINtB7_12GenericArraypINtNtCsdOIG378uWuC_7typenum4uint4UIntIB1Q_IB1Q_IB1Q_IB1Q_IB1Q_NtB1S_5UTermNtNtB1U_3bit2B1EB31_EB31_ENtB33_2B0EB31_EB3r_EEE4fromB7_
FNDA:0,_RNvXININtCsek14CzwTA2s_13generic_array5implss5J_0pERINtB7_12GenericArraypINtNtCsdOIG378uWuC_7typenum4uint4UIntIB1a_IB1a_IB1a_IB1a_IB1a_NtB1c_5UTermNtNtB1e_3bit2B1EB2l_EB2l_ENtB2n_2B0EB2l_EB2L_EEINtNtCskumHb0IaX0X_4core7convert4FromRApj3a_E4fromB7_
FNDA:0,_RNvXININtCsek14CzwTA2s_13generic_array5implss5K_0pEQINtB7_12GenericArraypINtNtCsdOIG378uWuC_7typenum4uint4UIntIB1a_IB1a_IB1a_IB1a_IB1a_NtB1c_5UTermNtNtB1e_3bit2B1EB2l_EB2l_ENtB2n_2B0EB2l_EB2L_EEINtNtCskumHb0IaX0X_4core7convert4FromQApj3a_E4fromB7_
FNDA:0,_RNvXININtCsek14CzwTA2s_13generic_array5implss5L_0pEINtB7_12GenericArraypINtNtCsdOIG378uWuC_7typenum4uint4UIntIB19_IB19_IB19_IB19_IB19_NtB1b_5UTermNtNtB1d_3bit2B1EB2k_EB2k_ENtB2m_2B0EB2k_EB2K_EEINtNtCskumHb0IaX0X_4core7convert5AsRefApj3a_E6as_refB7_
FNDA:0,_RNvXININtCsek14CzwTA2s_13generic_array5implss5M_0pEINtB7_12GenericArraypINtNtCsdOIG378uWuC_7typenum4uint4UIntIB19_IB19_IB19_IB19_IB19_NtB1b_5UTermNtNtB1d_3bit2B1EB2k_EB2k_ENtB2m_2B0EB2k_EB2K_EEINtNtCskumHb0IaX0X_4core7convert5AsMutApj3a_E6as_mutB7_
FNDA:0,_RNvXININtCsek14CzwTA2s_13generic_array5implss5N_0pEINtB7_12GenericArraypINtNtCsdOIG378uWuC_7typenum4uint4UIntIB19_IB19_IB19_IB19_IB19_NtB1b_5UTermNtNtB1d_3bit2B1EB2k_EB2k_ENtB2m_2B0EB2k_EB2k_EEINtNtCskumHb0IaX0X_4core7convert4FromApj3b_E4fromB7_
FNDA:0,_RNvXININtCsek14CzwTA2s_13generic_array5implss5O_0pEApj3b_INtNtCskumHb0IaX0X_4core7convert4FromINtB7_12GenericArraypINtNtCsdOIG378uWuC_7typenum4uint4UIntIB1Q_IB1Q_IB1Q_IB1Q_IB1Q_NtB1S_5UTermNtNtB1U_3bit2B1EB31_EB31_ENtB33_2B0EB31_EB31_EEE4fromB7_
FNDA:0,_RNvXININtCsek14CzwTA2s_13generic_array5implss5P_0pERINtB7_12GenericArraypINtNtCsdOIG378uWuC_7typenum4uint4UIntIB1a_IB1a_IB1a_IB1a_IB1a_NtB1c_5UTermNtNtB1e_3bit2B1EB2l_EB2l_ENtB2n_2B0EB2l_EB2l_EEINtNtCskumHb0IaX0X_4core7convert4FromRApj3b_E4fromB7_
FNDA:0,_RNvXININtCsek14CzwTA2s_13generic_array5implss5Q_0pEQINtB7_12GenericArraypINtNtCsdOIG378uWuC_7typenum4uint4UIntIB1a_IB1a_IB1a_IB1a_IB1a_NtB1c_5UTermNtNtB1e_3bit2B1EB2l_EB2l_ENtB2n_2B0EB2l_EB2l_EEINtNtCskumHb0IaX0X_4core7convert4FromQApj3b_E4fromB7_
FNDA:0,_RNvXININtCsek14CzwTA2s_13generic_array5implss5R_0pEINtB7_12GenericArraypINtNtCsdOIG378uWuC_7typenum4uint4UIntIB19_IB19_IB19_IB19_IB19_NtB1b_5UTermNtNtB1d_3bit2B1EB2k_EB2k_ENtB2m_2B0EB2k_EB2k_EEINtNtCskumHb0IaX0X_4core7convert5AsRefApj3b_E6as_refB7_
FNDA:0,_RNvXININtCsek14CzwTA2s_13generic_array5implss5S_0pEINtB7_12GenericArraypINtNtCsdOIG378uWuC_7typenum4uint4UIntIB19_IB19_IB19_IB19_IB19_NtB1b_5UTermNtNtB1d_3bit2B1EB2k_EB2k_ENtB2m_2B0EB2k_EB2k_EEINtNtCskumHb0IaX0X_4core7convert5AsMutApj3b_E6as_mutB7_
FNDA:0,_RNvXININtCsek14CzwTA2s_13generic_array5implss5T_0pEINtB7_12GenericArraypINtNtCsdOIG378uWuC_7typenum4uint4UIntIB19_IB19_IB19_IB19_IB19_NtB1b_5UTermNtNtB1d_3bit2B1EB2k_EB2k_EB2k_ENtB2m_2B0EB2P_EEINtNtCskumHb0IaX0X_4core7convert4FromApj3c_E4fromB7_
FNDA:0,_RNvXININtCsek14CzwTA2s_13generic_array5implss5U_0pEApj3c_INtNtCskumHb0IaX0X_4core7convert4FromINtB7_12GenericArraypINtNtCsdOIG378uWuC_7typenum4uint4UIntIB1Q_IB1Q_IB1Q_IB1Q_IB1Q_NtB1S_5UTermNtNtB1U_3bit2B1EB31_EB31_EB31_ENtB33_2B0EB3w_EEE4fromB7_
FNDA:0,_RNvXININtCsek14CzwTA2s_13generic_array5implss5V_0pERINtB7_12GenericArraypINtNtCsdOIG378uWuC_7typenum4uint4UIntIB1a_IB1a_IB1a_IB1a_IB1a_NtB1c_5UTermNtNtB1e_3bit2B1EB2l_EB2l_EB2l_ENtB2n_2B0EB2Q_EEINtNtCskumHb0IaX0X_4core7convert4FromRApj3c_E4fromB7_
FNDA:0,_RNvXININtCsek14CzwTA2s_13generic_array5implss5W_0pEQINtB7_12GenericArraypINtNtCsdOIG378uWuC_7typenum4uint4UIntIB1a_IB1a_IB1a_IB1a_IB1a_NtB1c_5UTermNtNtB1e_3bit2B1EB2l_EB2l_EB2l_ENtB2n_2B0EB2Q_EEINtNtCskumHb0IaX0X_4core7convert4FromQApj3c_E4fromB7_
FNDA:0,_RNvXININtCsek14CzwTA2s_13generic_array5implss5X_0pEINtB7_12GenericArraypINtNtCsdOIG378uWuC_7typenum4uint4UIntIB19_IB19_IB19_IB19_IB19_NtB1b_5UTermNtNtB1d_3bit2B1EB2k_EB2k_EB2k_ENtB2m_2B0EB2P_EEINtNtCskumHb0IaX0X_4core7convert5AsRefApj3c_E6as_refB7_
FNDA:0,_RNvXININtCsek14CzwTA2s_13generic_array5implss5Y_0pEINtB7_12GenericArraypINtNtCsdOIG378uWuC_7typenum4uint4UIntIB19_IB19_IB19_IB19_IB19_NtB1b_5UTermNtNtB1d_3bit2B1EB2k_EB2k_EB2k_ENtB2m_2B0EB2P_EEINtNtCskumHb0IaX0X_4core7convert5AsMutApj3c_E6as_mutB7_
FNDA:0,_RNvXININtCsek14CzwTA2s_13generic_array5implss5Z_0pEINtB7_12GenericArraypINtNtCsdOIG378uWuC_7typenum4uint4UIntIB19_IB19_IB19_IB19_IB19_NtB1b_5UTermNtNtB1d_3bit2B1EB2k_EB2k_EB2k_ENtB2m_2B0EB2k_EEINtNtCskumHb0IaX0X_4core7convert4FromApj3d_E4fromB7_
FNDA:0,_RNvXININtCsek14CzwTA2s_13generic_array5implss5_0ppEINtB7_12GenericArrayppENtNtCskumHb0IaX0X_4core3fmt5Debug3fmtB7_
FNDA:0,_RNvXININtCsek14CzwTA2s_13generic_array5implss5a_0pEQINtB7_12GenericArraypINtNtCsdOIG378uWuC_7typenum4uint4UIntIB1a_IB1a_IB1a_IB1a_IB1a_NtB1c_5UTermNtNtB1e_3bit2B1EB2l_ENtB2n_2B0EB2l_EB2G_EB2G_EEINtNtCskumHb0IaX0X_4core7convert4FromQApj34_E4fromB7_
FNDA:0,_RNvXININtCsek14CzwTA2s_13generic_array5implss5b_0pEINtB7_12GenericArraypINtNtCsdOIG378uWuC_7typenum4uint4UIntIB19_IB19_IB19_IB19_IB19_NtB1b_5UTermNtNtB1d_3bit2B1EB2k_ENtB2m_2B0EB2k_EB2F_EB2F_EEINtNtCskumHb0IaX0X_4core7convert5AsRefApj34_E6as_refB7_
FNDA:0,_RNvXININtCsek14CzwTA2s_13generic_array5implss5c_0pEINtB7_12GenericArraypINtNtCsdOIG378uWuC_7typenum4uint4UIntIB19_IB19_IB19_IB19_IB19_NtB1b_5UTermNtNtB1d_3bit2B1EB2k_ENtB2m_2B0EB2k_EB2F_EB2F_EEINtNtCskumHb0IaX0X_4core7convert5AsMutApj34_E6as_mutB7_
FNDA:0,_RNvXININtCsek14CzwTA2s_13generic_array5implss5d_0pEINtB7_12GenericArraypINtNtCsdOIG378uWuC_7typenum4uint4UIntIB19_IB19_IB19_IB19_IB19_NtB1b_5UTermNtNtB1d_3bit2B1EB2k_ENtB2m_2B0EB2k_EB2F_EB2k_EEINtNtCskumHb0IaX0X_4core7convert4FromApj35_E4fromB7_
FNDA:0,_RNvXININtCsek14CzwTA2s_13generic_array5implss5e_0pEApj35_INtNtCskumHb0IaX0X_4core7convert4FromINtB7_12GenericArraypINtNtCsdOIG378uWuC_7typenum4uint4UIntIB1Q_IB1Q_IB1Q_IB1Q_IB1Q_NtB1S_5UTermNtNtB1U_3bit2B1EB31_ENtB33_2B0EB31_EB3m_EB31_EEE4fromB7_
FNDA:0,_RNvXININtCsek14CzwTA2s_13generic_array5implss5f_0pERINtB7_12GenericArraypINtNtCsdOIG378uWuC_7typenum4uint4UIntIB1a_IB1a_IB1a_IB1a_IB1a_NtB1c_5UTermNtNtB1e_3bit2B1EB2l_ENtB2n_2B0EB2l_EB2G_EB2l_EEINtNtCskumHb0IaX0X_4core7convert4FromRApj35_E4fromB7_
FNDA:0,_RNvXININtCsek14CzwTA2s_13generic_array5implss5g_0pEQINtB7_12GenericArraypINtNtCsdOIG378uWuC_7typenum4uint4UIntIB1a_IB1a_IB1a_IB1a_IB1a_NtB1c_5UTermNtNtB1e_3bit2B1EB2l_ENtB2n_2B0EB2l_EB2G_EB2l_EEINtNtCskumHb0IaX0X_4core7convert4FromQApj35_E4fromB7_
FNDA:0,_RNvXININtCsek14CzwTA2s_13generic_array5implss5h_0pEINtB7_12GenericArraypINtNtCsdOIG378uWuC_7typenum4uint4UIntIB19_IB19_IB19_IB19_IB19_NtB1b_5UTermNtNtB1d_3bit2B1EB2k_ENtB2m_2B0EB2k_EB2F_EB2k_EEINtNtCskumHb0IaX0X_4core7convert5AsRefApj35_E6as_refB7_
FNDA:0,_RNvXININtCsek14CzwTA2s_13generic_array5implss5i_0pEINtB7_12GenericArraypINtNtCsdOIG378uWuC_7typenum4uint4UIntIB19_IB19_IB19_IB19_IB19_NtB1b_5UTermNtNtB1d_3bit2B1EB2k_ENtB2m_2B0EB2k_EB2F_EB2k_EEINtNtCskumHb0IaX0X_4core7convert5AsMutApj35_E6as_mutB7_
FNDA:0,_RNvXININtCsek14CzwTA2s_13generic_array5implss5j_0pEINtB7_12GenericArraypINtNtCsdOIG378uWuC_7typenum4uint4UIntIB19_IB19_IB19_IB19_IB19_NtB1b_5UTermNtNtB1d_3bit2B1EB2k_ENtB2m_2B0EB2k_EB2k_EB2F_EEINtNtCskumHb0IaX0X_4core7convert4FromApj36_E4fromB7_
FNDA:0,_RNvXININtCsek14CzwTA2s_13generic_array5implss5k_0pEApj36_INtNtCskumHb0IaX0X_4core7convert4FromINtB7_12GenericArraypINtNtCsdOIG378uWuC_7typenum4uint4UIntIB1Q_IB1Q_IB1Q_IB1Q_IB1Q_NtB1S_5UTermNtNtB1U_3bit2B1EB31_ENtB33_2B0EB31_EB31_EB3m_EEE4fromB7_
FNDA:0,_RNvXININtCsek14CzwTA2s_13generic_array5implss5l_0pERINtB7_12GenericArraypINtNtCsdOIG378uWuC_7typenum4uint4UIntIB1a_IB1a_IB1a_IB1a_IB1a_NtB1c_5UTermNtNtB1e_3bit2B1EB2l_ENtB2n_2B0EB2l_EB2l_EB2G_EEINtNtCskumHb0IaX0X_4core7convert4FromRApj36_E4fromB7_
FNDA:0,_RNvXININtCsek14CzwTA2s_13generic_array5implss5m_0pEQINtB7_12GenericArraypINtNtCsdOIG378uWuC_7typenum4uint4UIntIB1a_IB1a_IB1a_IB1a_IB1a_NtB1c_5UTermNtNtB1e_3bit2B1EB2l_ENtB2n_2B0EB2l_EB2l_EB2G_EEINtNtCskumHb0IaX0X_4core7convert4FromQApj36_E4fromB7_
FNDA:0,_RNvXININtCsek14CzwTA2s_13generic_array5implss5n_0pEINtB7_12GenericArraypINtNtCsdOIG378uWuC_7typenum4uint4UIntIB19_IB19_IB19_IB19_IB19_NtB1b_5UTermNtNtB1d_3bit2B1EB2k_ENtB2m_2B0EB2k_EB2k_EB2F_EEINtNtCskumHb0IaX0X_4core7convert5AsRefApj36_E6as_refB7_
FNDA:0,_RNvXININtCsek14CzwTA2s_13generic_array5implss5o_0pEINtB7_12GenericArraypINtNtCsdOIG378uWuC_7typenum4uint4UIntIB19_IB19_IB19_IB19_IB19_NtB1b_5UTermNtNtB1d_3bit2B1EB2k_ENtB2m_2B0EB2k_EB2k_EB2F_EEINtNtCskumHb0IaX0X_4core7convert5AsMutApj36_E6as_mutB7_
FNDA:0,_RNvXININtCsek14CzwTA2s_13generic_array5implss5p_0pEINtB7_12GenericArraypINtNtCsdOIG378uWuC_7typenum4uint4UIntIB19_IB19_IB19_IB19_IB19_NtB1b_5UTermNtNtB1d_3bit2B1EB2k_ENtB2m_2B0EB2k_EB2k_EB2k_EEINtNtCskumHb0IaX0X_4core7convert4FromApj37_E4fromB7_
FNDA:0,_RNvXININtCsek14CzwTA2s_13generic_array5implss5q_0pEApj37_INtNtCskumHb0IaX0X_4core7convert4FromINtB7_12GenericArraypINtNtCsdOIG378uWuC_7typenum4uint4UIntIB1Q_IB1Q_IB1Q_IB1Q_IB1Q_NtB1S_5UTermNtNtB1U_3bit2B1EB31_ENtB33_2B0EB31_EB31_EB31_EEE4fromB7_
FNDA:0,_RNvXININtCsek14CzwTA2s_13generic_array5implss5r_0pERINtB7_12GenericArraypINtNtCsdOIG378uWuC_7typenum4uint4UIntIB1a_IB1a_IB1a_IB1a_IB1a_NtB1c_5UTermNtNtB1e_3bit2B1EB2l_ENtB2n_2B0EB2l_EB2l_EB2l_EEINtNtCskumHb0IaX0X_4core7convert4FromRApj37_E4fromB7_
FNDA:0,_RNvXININtCsek14CzwTA2s_13generic_array5implss5s_0pEQINtB7_12GenericArraypINtNtCsdOIG378uWuC_7typenum4uint4UIntIB1a_IB1a_IB1a_IB1a_IB1a_NtB1c_5UTermNtNtB1e_3bit2B1EB2l_ENtB2n_2B0EB2l_EB2l_EB2l_EEINtNtCskumHb0IaX0X_4core7convert4FromQApj37_E4fromB7_
FNDA:0,_RNvXININtCsek14CzwTA2s_13generic_array5implss5t_0pEINtB7_12GenericArraypINtNtCsdOIG378uWuC_7typenum4uint4UIntIB19_IB19_IB19_IB19_IB19_NtB1b_5UTermNtNtB1d_3bit2B1EB2k_ENtB2m_2B0EB2k_EB2k_EB2k_EEINtNtCskumHb0IaX0X_4core7convert5AsRefApj37_E6as_refB7_
FNDA:0,_RNvXININtCsek14CzwTA2s_13generic_array5implss5u_0pEINtB7_12GenericArraypINtNtCsdOIG378uWuC_7typenum4uint4UIntIB19_IB19_IB19_IB19_IB19_NtB1b_5UTermNtNtB1d_3bit2B1EB2k_ENtB2m_2B0EB2k_EB2k_EB2k_EEINtNtCskumHb0IaX0X_4core7convert5AsMutApj37_E6as_mutB7_
FNDA:0,_RNvXININtCsek14CzwTA2s_13generic_array5implss5v_0pEINtB7_12GenericArraypINtNtCsdOIG378uWuC_7typenum4uint4UIntIB19_IB19_IB19_IB19_IB19_NtB1b_5UTermNtNtB1d_3bit2B1EB2k_EB2k_ENtB2m_2B0EB2K_EB2K_EEINtNtCskumHb0IaX0X_4core7convert4FromApj38_E4fromB7_
FNDA:0,_RNvXININtCsek14CzwTA2s_13generic_array5implss5w_0pEApj38_INtNtCskumHb0IaX0X_4core7convert4FromINtB7_12GenericArraypINtNtCsdOIG378uWuC_7typenum4uint4UIntIB1Q_IB1Q_IB1Q_IB1Q_IB1Q_NtB1S_5UTermNtNtB1U_3bit2B1EB31_EB31_ENtB33_2B0EB3r_EB3r_EEE4fromB7_
FNDA:0,_RNvXININtCsek14CzwTA2s_13generic_array5implss5x_0pERINtB7_12GenericArraypINtNtCsdOIG378uWuC_7typenum4uint4UIntIB1a_IB1a_IB1a_IB1a_IB1a_NtB1c_5UTermNtNtB1e_3bit2B1EB2l_EB2l_ENtB2n_2B0EB2L_EB2L_EEINtNtCskumHb0IaX0X_4core7convert4FromRApj38_E4fromB7_
FNDA:0,_RNvXININtCsek14CzwTA2s_13generic_array5implss5y_0pEQINtB7_12GenericArraypINtNtCsdOIG378uWuC_7typenum4uint4UIntIB1a_IB1a_IB1a_IB1a_IB1a_NtB1c_5UTermNtNtB1e_3bit2B1EB2l_EB2l_ENtB2n_2B0EB2L_EB2L_EEINtNtCskumHb0IaX0X_4core7convert4FromQApj38_E4fromB7_
FNDA:0,_RNvXININtCsek14CzwTA2s_13generic_array5implss5z_0pEINtB7_12GenericArraypINtNtCsdOIG378uWuC_7typenum4uint4UIntIB19_IB19_IB19_IB19_IB19_NtB1b_5UTermNtNtB1d_3bit2B1EB2k_EB2k_ENtB2m_2B0EB2K_EB2K_EEINtNtCskumHb0IaX0X_4core7convert5AsRefApj38_E6as_refB7_
FNDA:0,_RNvXININtCsek14CzwTA2s_13generic_array5implss60_0pEApj3d_INtNtCskumHb0IaX0X_4core7convert4FromINtB7_12GenericArraypINtNtCsdOIG378uWuC_7typenum4uint4UIntIB1Q_IB1Q_IB1Q_IB1Q_IB1Q_NtB1S_5UTermNtNtB1U_3bit2B1EB31_EB31_EB31_ENtB33_2B0EB31_EEE4fromB7_
FNDA:0,_RNvXININtCsek14CzwTA2s_13generic_array5implss61_0pERINtB7_12GenericArraypINtNtCsdOIG378uWuC_7typenum4uint4UIntIB1a_IB1a_IB1a_IB1a_IB1a_NtB1c_5UTermNtNtB1e_3bit2B1EB2l_EB2l_EB2l_ENtB2n_2B0EB2l_EEINtNtCskumHb0IaX0X_4core7convert4FromRApj3d_E4fromB7_
FNDA:0,_RNvXININtCsek14CzwTA2s_13generic_array5implss62_0pEQINtB7_12GenericArraypINtNtCsdOIG378uWuC_7typenum4uint4UIntIB1a_IB1a_IB1a_IB1a_IB1a_NtB1c_5UTermNtNtB1e_3bit2B1EB2l_EB2l_EB2l_ENtB2n_2B0EB2l_EEINtNtCskumHb0IaX0X_4core7convert4FromQApj3d_E4fromB7_
FNDA:0,_RNvXININtCsek14CzwTA2s_13generic_array5implss63_0pEINtB7_12GenericArraypINtNtCsdOIG378uWuC_7typenum4uint4UIntIB19_IB19_IB19_IB19_IB19_NtB1b_5UTermNtNtB1d_3bit2B1EB2k_EB2k_EB2k_ENtB2m_2B0EB2k_EEINtNtCskumHb0IaX0X_4core7convert5AsRefApj3d_E6as_refB7_
FNDA:0,_RNvXININtCsek14CzwTA2s_13generic_array5implss64_0pEINtB7_12GenericArraypINtNtCsdOIG378uWuC_7typenum4uint4UIntIB19_IB19_IB19_IB19_IB19_NtB1b_5UTermNtNtB1d_3bit2B1EB2k_EB2k_EB2k_ENtB2m_2B0EB2k_EEINtNtCskumHb0IaX0X_4core7convert5AsMutApj3d_E6as_mutB7_
FNDA:0,_RNvXININtCsek14CzwTA2s_13generic_array5implss65_0pEINtB7_12GenericArraypINtNtCsdOIG378uWuC_7typenum4uint4UIntIB19_IB19_IB19_IB19_IB19_NtB1b_5UTermNtNtB1d_3bit2B1EB2k_EB2k_EB2k_EB2k_ENtB2m_2B0EEINtNtCskumHb0IaX0X_4core7convert4FromApj3e_E4fromB7_
FNDA:0,_RNvXININtCsek14CzwTA2s_13generic_array5implss66_0pEApj3e_INtNtCskumHb0IaX0X_4core7convert4FromINtB7_12GenericArraypINtNtCsdOIG378uWuC_7typenum4uint4UIntIB1Q_IB1Q_IB1Q_IB1Q_IB1Q_NtB1S_5UTermNtNtB1U_3bit2B1EB31_EB31_EB31_EB31_ENtB33_2B0EEE4fromB7_
FNDA:0,_RNvXININtCsek14CzwTA2s_13generic_array5implss67_0pERINtB7_12GenericArraypINtNtCsdOIG378uWuC_7typenum4uint4UIntIB1a_IB1a_IB1a_IB1a_IB1a_NtB1c_5UTermNtNtB1e_3bit2B1EB2l_EB2l_EB2l_EB2l_ENtB2n_2B0EEINtNtCskumHb0IaX0X_4core7convert4FromRApj3e_E4fromB7_
FNDA:0,_RNvXININtCsek14CzwTA2s_13generic_array5implss68_0pEQINtB7_12GenericArraypINtNtCsdOIG378uWuC_7typenum4uint4UIntIB1a_IB1a_IB1a_IB1a_IB1a_NtB1c_5UTermNtNtB1e_3bit2B1EB2l_EB2l_EB2l_EB2l_ENtB2n_2B0EEINtNtCskumHb0IaX0X_4core7convert4FromQApj3e_E4fromB7_
FNDA:0,_RNvXININtCsek14CzwTA2s_13generic_array5implss69_0pEINtB7_12GenericArraypINtNtCsdOIG378uWuC_7typenum4uint4UIntIB19_IB19_IB19_IB19_IB19_NtB1b_5UTermNtNtB1d_3bit2B1EB2k_EB2k_EB2k_EB2k_ENtB2m_2B0EEINtNtCskumHb0IaX0X_4core7convert5AsRefApj3e_E6as_refB7_
FNDA:0,_RNvXININtCsek14CzwTA2s_13generic_array5implss6A_0pEApj5a_INtNtCskumHb0IaX0X_4core7convert4FromINtB7_12GenericArraypINtNtCsdOIG378uWuC_7typenum4uint4UIntIB1Q_IB1Q_IB1Q_IB1Q_IB1Q_IB1Q_NtB1S_5UTermNtNtB1U_3bit2B1ENtB38_2B0EB36_EB36_EB3m_EB36_EB3m_EEE4fromB7_
FNDA:0,_RNvXININtCsek14CzwTA2s_13generic_array5implss6B_0pERINtB7_12GenericArraypINtNtCsdOIG378uWuC_7typenum4uint4UIntIB1a_IB1a_IB1a_IB1a_IB1a_IB1a_NtB1c_5UTermNtNtB1e_3bit2B1ENtB2s_2B0EB2q_EB2q_EB2G_EB2q_EB2G_EEINtNtCskumHb0IaX0X_4core7convert4FromRApj5a_E4fromB7_
FNDA:0,_RNvXININtCsek14CzwTA2s_13generic_array5implss6C_0pEQINtB7_12GenericArraypINtNtCsdOIG378uWuC_7typenum4uint4UIntIB1a_IB1a_IB1a_IB1a_IB1a_IB1a_NtB1c_5UTermNtNtB1e_3bit2B1ENtB2s_2B0EB2q_EB2q_EB2G_EB2q_EB2G_EEINtNtCskumHb0IaX0X_4core7convert4FromQApj5a_E4fromB7_
FNDA:0,_RNvXININtCsek14CzwTA2s_13generic_array5implss6D_0pEINtB7_12GenericArraypINtNtCsdOIG378uWuC_7typenum4uint4UIntIB19_IB19_IB19_IB19_IB19_IB19_NtB1b_5UTermNtNtB1d_3bit2B1ENtB2r_2B0EB2p_EB2p_EB2F_EB2p_EB2F_EEINtNtCskumHb0IaX0X_4core7convert5AsRefApj5a_E6as_refB7_
FNDA:0,_RNvXININtCsek14CzwTA2s_13generic_array5implss6E_0pEINtB7_12GenericArraypINtNtCsdOIG378uWuC_7typenum4uint4UIntIB19_IB19_IB19_IB19_IB19_IB19_NtB1b_5UTermNtNtB1d_3bit2B1ENtB2r_2B0EB2p_EB2p_EB2F_EB2p_EB2F_EEINtNtCskumHb0IaX0X_4core7convert5AsMutApj5a_E6as_mutB7_
FNDA:0,_RNvXININtCsek14CzwTA2s_13generic_array5implss6F_0pEINtB7_12GenericArraypINtNtCsdOIG378uWuC_7typenum4uint4UIntIB19_IB19_IB19_IB19_IB19_IB19_NtB1b_5UTermNtNtB1d_3bit2B1EB2p_ENtB2r_2B0EB2K_EB2p_EB2K_EB2K_EEINtNtCskumHb0IaX0X_4core7convert4FromApj64_E4fromB7_
FNDA:0,_RNvXININtCsek14CzwTA2s_13generic_array5implss6G_0pEApj64_INtNtCskumHb0IaX0X_4core7convert4FromINtB7_12GenericArraypINtNtCsdOIG378uWuC_7typenum4uint4UIntIB1Q_IB1Q_IB1Q_IB1Q_IB1Q_IB1Q_NtB1S_5UTermNtNtB1U_3bit2B1EB36_ENtB38_2B0EB3r_EB36_EB3r_EB3r_EEE4fromB7_
FNDA:0,_RNvXININtCsek14CzwTA2s_13generic_array5implss6H_0pERINtB7_12GenericArraypINtNtCsdOIG378uWuC_7typenum4uint4UIntIB1a_IB1a_IB1a_IB1a_IB1a_IB1a_NtB1c_5UTermNtNtB1e_3bit2B1EB2q_ENtB2s_2B0EB2L_EB2q_EB2L_EB2L_EEINtNtCskumHb0IaX0X_4core7convert4FromRApj64_E4fromB7_
FNDA:0,_RNvXININtCsek14CzwTA2s_13generic_array5implss6I_0pEQINtB7_12GenericArraypINtNtCsdOIG378uWuC_7typenum4uint4UIntIB1a_IB1a_IB1a_IB1a_IB1a_IB1a_NtB1c_5UTermNtNtB1e_3bit2B1EB2q_ENtB2s_2B0EB2L_EB2q_EB2L_EB2L_EEINtNtCskumHb0IaX0X_4core7convert4FromQApj64_E4fromB7_
FNDA:0,_RNvXININtCsek14CzwTA2s_13generic_array5implss6J_0pEINtB7_12GenericArraypINtNtCsdOIG378uWuC_7typenum4uint4UIntIB19_IB19_IB19_IB19_IB19_IB19_NtB1b_5UTermNtNtB1d_3bit2B1EB2p_ENtB2r_2B0EB2K_EB2p_EB2K_EB2K_EEINtNtCskumHb0IaX0X_4core7convert5AsRefApj64_E6as_refB7_
FNDA:0,_RNvXININtCsek14CzwTA2s_13generic_array5implss6K_0pEINtB7_12GenericArraypINtNtCsdOIG378uWuC_7typenum4uint4UIntIB19_IB19_IB19_IB19_IB19_IB19_NtB1b_5UTermNtNtB1d_3bit2B1EB2p_ENtB2r_2B0EB2K_EB2p_EB2K_EB2K_EEINtNtCskumHb0IaX0X_4core7convert5AsMutApj64_E6as_mutB7_
FNDA:0,_RNvXININtCsek14CzwTA2s_13generic_array5implss6L_0pEINtB7_12GenericArraypINtNtCsdOIG378uWuC_7typenum4uint4UIntIB19_IB19_IB19_IB19_IB19_IB19_IB19_NtB1b_5UTermNtNtB1d_3bit2B1EB2u_ENtB2w_2B0EB2P_EB2u_EB2P_EB2P_EB2P_EEINtNtCskumHb0IaX0X_4core7convert4FromApjc8_E4fromB7_
FNDA:0,_RNvXININtCsek14CzwTA2s_13generic_array5implss6M_0pEApjc8_INtNtCskumHb0IaX0X_4core7convert4FromINtB7_12GenericArraypINtNtCsdOIG378uWuC_7typenum4uint4UIntIB1Q_IB1Q_IB1Q_IB1Q_IB1Q_IB1Q_IB1Q_NtB1S_5UTermNtNtB1U_3bit2B1EB3b_ENtB3d_2B0EB3w_EB3b_EB3w_EB3w_EB3w_EEE4fromB7_
FNDA:0,_RNvXININtCsek14CzwTA2s_13generic_array5implss6N_0pERINtB7_12GenericArraypINtNtCsdOIG378uWuC_7typenum4uint4UIntIB1a_IB1a_IB1a_IB1a_IB1a_IB1a_IB1a_NtB1c_5UTermNtNtB1e_3bit2B1EB2v_ENtB2x_2B0EB2Q_EB2v_EB2Q_EB2Q_EB2Q_EEINtNtCskumHb0IaX0X_4core7convert4FromRApjc8_E4fromB7_
FNDA:0,_RNvXININtCsek14CzwTA2s_13generic_array5implss6O_0pEQINtB7_12GenericArraypINtNtCsdOIG378uWuC_7typenum4uint4UIntIB1a_IB1a_IB1a_IB1a_IB1a_IB1a_IB1a_NtB1c_5UTermNtNtB1e_3bit2B1EB2v_ENtB2x_2B0EB2Q_EB2v_EB2Q_EB2Q_EB2Q_EEINtNtCskumHb0IaX0X_4core7convert4FromQApjc8_E4fromB7_
FNDA:0,_RNvXININtCsek14CzwTA2s_13generic_array5implss6P_0pEINtB7_12GenericArraypINtNtCsdOIG378uWuC_7typenum4uint4UIntIB19_IB19_IB19_IB19_IB19_IB19_IB19_NtB1b_5UTermNtNtB1d_3bit2B1EB2u_ENtB2w_2B0EB2P_EB2u_EB2P_EB2P_EB2P_EEINtNtCskumHb0IaX0X_4core7convert5AsRefApjc8_E6as_refB7_
FNDA:0,_RNvXININtCsek14CzwTA2s_13generic_array5implss6Q_0pEINtB7_12GenericArraypINtNtCsdOIG378uWuC_7typenum4uint4UIntIB19_IB19_IB19_IB19_IB19_IB19_IB19_NtB1b_5UTermNtNtB1d_3bit2B1EB2u_ENtB2w_2B0EB2P_EB2u_EB2P_EB2P_EB2P_EEINtNtCskumHb0IaX0X_4core7convert5AsMutApjc8_E6as_mutB7_
FNDA:0,_RNvXININtCsek14CzwTA2s_13generic_array5implss6R_0pEINtB7_12GenericArraypINtNtCsdOIG378uWuC_7typenum4uint4UIntIB19_IB19_IB19_IB19_IB19_IB19_IB19_IB19_NtB1b_5UTermNtNtB1d_3bit2B1ENtB2B_2B0EB2P_EB2z_EB2P_EB2z_EB2z_EB2P_EB2P_EEINtNtCskumHb0IaX0X_4core7convert4FromApj12c_E4fromB7_
FNDA:0,_RNvXININtCsek14CzwTA2s_13generic_array5implss6S_0pEApj12c_INtNtCskumHb0IaX0X_4core7convert4FromINtB7_12GenericArraypINtNtCsdOIG378uWuC_7typenum4uint4UIntIB1R_IB1R_IB1R_IB1R_IB1R_IB1R_IB1R_IB1R_NtB1T_5UTermNtNtB1V_3bit2B1ENtB3j_2B0EB3x_EB3h_EB3x_EB3h_EB3h_EB3x_EB3x_EEE4fromB7_
FNDA:0,_RNvXININtCsek14CzwTA2s_13generic_array5implss6T_0pERINtB7_12GenericArraypINtNtCsdOIG378uWuC_7typenum4uint4UIntIB1a_IB1a_IB1a_IB1a_IB1a_IB1a_IB1a_IB1a_NtB1c_5UTermNtNtB1e_3bit2B1ENtB2C_2B0EB2Q_EB2A_EB2Q_EB2A_EB2A_EB2Q_EB2Q_EEINtNtCskumHb0IaX0X_4core7convert4FromRApj12c_E4fromB7_
FNDA:0,_RNvXININtCsek14CzwTA2s_13generic_array5implss6U_0pEQINtB7_12GenericArraypINtNtCsdOIG378uWuC_7typenum4uint4UIntIB1a_IB1a_IB1a_IB1a_IB1a_IB1a_IB1a_IB1a_NtB1c_5UTermNtNtB1e_3bit2B1ENtB2C_2B0EB2Q_EB2A_EB2Q_EB2A_EB2A_EB2Q_EB2Q_EEINtNtCskumHb0IaX0X_4core7convert4FromQApj12c_E4fromB7_
FNDA:0,_RNvXININtCsek14CzwTA2s_13generic_array5implss6V_0pEINtB7_12GenericArraypINtNtCsdOIG378uWuC_7typenum4uint4UIntIB19_IB19_IB19_IB19_IB19_IB19_IB19_IB19_NtB1b_5UTermNtNtB1d_3bit2B1ENtB2B_2B0EB2P_EB2z_EB2P_EB2z_EB2z_EB2P_EB2P_EEINtNtCskumHb0IaX0X_4core7convert5AsRefApj12c_E6as_refB7_
FNDA:0,_RNvXININtCsek14CzwTA2s_13generic_array5implss6W_0pEINtB7_12GenericArraypINtNtCsdOIG378uWuC_7typenum4uint4UIntIB19_IB19_IB19_IB19_IB19_IB19_IB19_IB19_NtB1b_5UTermNtNtB1d_3bit2B1ENtB2B_2B0EB2P_EB2z_EB2P_EB2z_EB2z_EB2P_EB2P_EEINtNtCskumHb0IaX0X_4core7convert5AsMutApj12c_E6as_mutB7_
FNDA:0,_RNvXININtCsek14CzwTA2s_13generic_array5implss6X_0pEINtB7_12GenericArraypINtNtCsdOIG378uWuC_7typenum4uint4UIntIB19_IB19_IB19_IB19_IB19_IB19_IB19_IB19_NtB1b_5UTermNtNtB1d_3bit2B1EB2z_ENtB2B_2B0EB2U_EB2z_EB2U_EB2U_EB2U_EB2U_EEINtNtCskumHb0IaX0X_4core7convert4FromApj190_E4fromB7_
FNDA:0,_RNvXININtCsek14CzwTA2s_13generic_array5implss6Y_0pEApj190_INtNtCskumHb0IaX0X_4core7convert4FromINtB7_12GenericArraypINtNtCsdOIG378uWuC_7typenum4uint4UIntIB1R_IB1R_IB1R_IB1R_IB1R_IB1R_IB1R_IB1R_NtB1T_5UTermNtNtB1V_3bit2B1EB3h_ENtB3j_2B0EB3C_EB3h_EB3C_EB3C_EB3C_EB3C_EEE4fromB7_
FNDA:0,_RNvXININtCsek14CzwTA2s_13generic_array5implss6Z_0pERINtB7_12GenericArraypINtNtCsdOIG378uWuC_7typenum4uint4UIntIB1a_IB1a_IB1a_IB1a_IB1a_IB1a_IB1a_IB1a_NtB1c_5UTermNtNtB1e_3bit2B1EB2A_ENtB2C_2B0EB2V_EB2A_EB2V_EB2V_EB2V_EB2V_EEINtNtCskumHb0IaX0X_4core7convert4FromRApj190_E4fromB7_
FNDA:0,_RNvXININtCsek14CzwTA2s_13generic_array5implss6_0ppEINtB7_12GenericArrayppEINtNtCskumHb0IaX0X_4core6borrow6BorrowSpE6borrowB7_
FNDA:0,_RNvXININtCsek14CzwTA2s_13generic_array5implss6a_0pEINtB7_12GenericArraypINtNtCsdOIG378uWuC_7typenum4uint4UIntIB19_IB19_IB19_IB19_IB19_NtB1b_5UTermNtNtB1d_3bit2B1EB2k_EB2k_EB2k_EB2k_ENtB2m_2B0EEINtNtCskumHb0IaX0X_4core7convert5AsMutApj3e_E6as_mutB7_
FNDA:0,_RNvXININtCsek14CzwTA2s_13generic_array5implss6b_0pEINtB7_12GenericArraypINtNtCsdOIG378uWuC_7typenum4uint4UIntIB19_IB19_IB19_IB19_IB19_NtB1b_5UTermNtNtB1d_3bit2B1EB2k_EB2k_EB2k_EB2k_EB2k_EEINtNtCskumHb0IaX0X_4core7convert4FromApj3f_E4fromB7_
FNDA:0,_RNvXININtCsek14CzwTA2s_13generic_array5implss6c_0pEApj3f_INtNtCskumHb0IaX0X_4core7convert4FromINtB7_12GenericArraypINtNtCsdOIG378uWuC_7typenum4uint4UIntIB1Q_IB1Q_IB1Q_IB1Q_IB1Q_NtB1S_5UTermNtNtB1U_3bit2B1EB31_EB31_EB31_EB31_EB31_EEE4fromB7_
FNDA:0,_RNvXININtCsek14CzwTA2s_13generic_array5implss6d_0pERINtB7_12GenericArraypINtNtCsdOIG378uWuC_7typenum4uint4UIntIB1a_IB1a_IB1a_IB1a_IB1a_NtB1c_5UTermNtNtB1e_3bit2B1EB2l_EB2l_EB2l_EB2l_EB2l_EEINtNtCskumHb0IaX0X_4core7convert4FromRApj3f_E4fromB7_
FNDA:0,_RNvXININtCsek14CzwTA2s_13generic_array5implss6e_0pEQINtB7_12GenericArraypINtNtCsdOIG378uWuC_7typenum4uint4UIntIB1a_IB1a_IB1a_IB1a_IB1a_NtB1c_5UTermNtNtB1e_3bit2B1EB2l_EB2l_EB2l_EB2l_EB2l_EEINtNtCskumHb0IaX0X_4core7convert4FromQApj3f_E4fromB7_
FNDA:0,_RNvXININtCsek14CzwTA2s_13generic_array5implss6f_0pEINtB7_12GenericArraypINtNtCsdOIG378uWuC_7typenum4uint4UIntIB19_IB19_IB19_IB19_IB19_NtB1b_5UTermNtNtB1d_3bit2B1EB2k_EB2k_EB2k_EB2k_EB2k_EEINtNtCskumHb0IaX0X_4core7convert5AsRefApj3f_E6as_refB7_
FNDA:0,_RNvXININtCsek14CzwTA2s_13generic_array5implss6g_0pEINtB7_12GenericArraypINtNtCsdOIG378uWuC_7typenum4uint4UIntIB19_IB19_IB19_IB19_IB19_NtB1b_5UTermNtNtB1d_3bit2B1EB2k_EB2k_EB2k_EB2k_EB2k_EEINtNtCskumHb0IaX0X_4core7convert5AsMutApj3f_E6as_mutB7_
FNDA:0,_RNvXININtCsek14CzwTA2s_13generic_array5implss6h_0pEINtB7_12GenericArraypINtNtCsdOIG378uWuC_7typenum4uint4UIntIB19_IB19_IB19_IB19_IB19_IB19_NtB1b_5UTermNtNtB1d_3bit2B1ENtB2r_2B0EB2F_EB2F_EB2F_EB2F_EB2F_EEINtNtCskumHb0IaX0X_4core7convert4FromApj40_E4fromB7_
FNDA:0,_RNvXININtCsek14CzwTA2s_13generic_array5implss6i_0pEApj40_INtNtCskumHb0IaX0X_4core7convert4FromINtB7_12GenericArraypINtNtCsdOIG378uWuC_7typenum4uint4UIntIB1Q_IB1Q_IB1Q_IB1Q_IB1Q_IB1Q_NtB1S_5UTermNtNtB1U_3bit2B1ENtB38_2B0EB3m_EB3m_EB3m_EB3m_EB3m_EEE4fromB7_
FNDA:0,_RNvXININtCsek14CzwTA2s_13generic_array5implss6j_0pERINtB7_12GenericArraypINtNtCsdOIG378uWuC_7typenum4uint4UIntIB1a_IB1a_IB1a_IB1a_IB1a_IB1a_NtB1c_5UTermNtNtB1e_3bit2B1ENtB2s_2B0EB2G_EB2G_EB2G_EB2G_EB2G_EEINtNtCskumHb0IaX0X_4core7convert4FromRApj40_E4fromB7_
FNDA:0,_RNvXININtCsek14CzwTA2s_13generic_array5implss6k_0pEQINtB7_12GenericArraypINtNtCsdOIG378uWuC_7typenum4uint4UIntIB1a_IB1a_IB1a_IB1a_IB1a_IB1a_NtB1c_5UTermNtNtB1e_3bit2B1ENtB2s_2B0EB2G_EB2G_EB2G_EB2G_EB2G_EEINtNtCskumHb0IaX0X_4core7convert4FromQApj40_E4fromB7_
FNDA:0,_RNvXININtCsek14CzwTA2s_13generic_array5implss6l_0pEINtB7_12GenericArraypINtNtCsdOIG378uWuC_7typenum4uint4UIntIB19_IB19_IB19_IB19_IB19_IB19_NtB1b_5UTermNtNtB1d_3bit2B1ENtB2r_2B0EB2F_EB2F_EB2F_EB2F_EB2F_EEINtNtCskumHb0IaX0X_4core7convert5AsRefApj40_E6as_refB7_
FNDA:0,_RNvXININtCsek14CzwTA2s_13generic_array5implss6m_0pEINtB7_12GenericArraypINtNtCsdOIG378uWuC_7typenum4uint4UIntIB19_IB19_IB19_IB19_IB19_IB19_NtB1b_5UTermNtNtB1d_3bit2B1ENtB2r_2B0EB2F_EB2F_EB2F_EB2F_EB2F_EEINtNtCskumHb0IaX0X_4core7convert5AsMutApj40_E6as_mutB7_
FNDA:0,_RNvXININtCsek14CzwTA2s_13generic_array5implss6n_0pEINtB7_12GenericArraypINtNtCsdOIG378uWuC_7typenum4uint4UIntIB19_IB19_IB19_IB19_IB19_IB19_NtB1b_5UTermNtNtB1d_3bit2B1ENtB2r_2B0EB2F_EB2F_EB2p_EB2p_EB2F_EEINtNtCskumHb0IaX0X_4core7convert4FromApj46_E4fromB7_
FNDA:0,_RNvXININtCsek14CzwTA2s_13generic_array5implss6o_0pEApj46_INtNtCskumHb0IaX0X_4core7convert4FromINtB7_12GenericArraypINtNtCsdOIG378uWuC_7typenum4uint4UIntIB1Q_IB1Q_IB1Q_IB1Q_IB1Q_IB1Q_NtB1S_5UTermNtNtB1U_3bit2B1ENtB38_2B0EB3m_EB3m_EB36_EB36_EB3m_EEE4fromB7_
FNDA:0,_RNvXININtCsek14CzwTA2s_13generic_array5implss6p_0pERINtB7_12GenericArraypINtNtCsdOIG378uWuC_7typenum4uint4UIntIB1a_IB1a_IB1a_IB1a_IB1a_IB1a_NtB1c_5UTermNtNtB1e_3bit2B1ENtB2s_2B0EB2G_EB2G_EB2q_EB2q_EB2G_EEINtNtCskumHb0IaX0X_4core7convert4FromRApj46_E4fromB7_
FNDA:0,_RNvXININtCsek14CzwTA2s_13generic_array5implss6q_0pEQINtB7_12GenericArraypINtNtCsdOIG378uWuC_7typenum4uint4UIntIB1a_IB1a_IB1a_IB1a_IB1a_IB1a_NtB1c_5UTermNtNtB1e_3bit2B1ENtB2s_2B0EB2G_EB2G_EB2q_EB2q_EB2G_EEINtNtCskumHb0IaX0X_4core7convert4FromQApj46_E4fromB7_
FNDA:0,_RNvXININtCsek14CzwTA2s_13generic_array5implss6r_0pEINtB7_12GenericArraypINtNtCsdOIG378uWuC_7typenum4uint4UIntIB19_IB19_IB19_IB19_IB19_IB19_NtB1b_5UTermNtNtB1d_3bit2B1ENtB2r_2B0EB2F_EB2F_EB2p_EB2p_EB2F_EEINtNtCskumHb0IaX0X_4core7convert5AsRefApj46_E6as_refB7_
FNDA:0,_RNvXININtCsek14CzwTA2s_13generic_array5implss6s_0pEINtB7_12GenericArraypINtNtCsdOIG378uWuC_7typenum4uint4UIntIB19_IB19_IB19_IB19_IB19_IB19_NtB1b_5UTermNtNtB1d_3bit2B1ENtB2r_2B0EB2F_EB2F_EB2p_EB2p_EB2F_EEINtNtCskumHb0IaX0X_4core7convert5AsMutApj46_E6as_mutB7_
FNDA:0,_RNvXININtCsek14CzwTA2s_13generic_array5implss6t_0pEINtB7_12GenericArraypINtNtCsdOIG378uWuC_7typenum4uint4UIntIB19_IB19_IB19_IB19_IB19_IB19_NtB1b_5UTermNtNtB1d_3bit2B1ENtB2r_2B0EB2p_EB2F_EB2F_EB2F_EB2F_EEINtNtCskumHb0IaX0X_4core7convert4FromApj50_E4fromB7_
FNDA:0,_RNvXININtCsek14CzwTA2s_13generic_array5implss6u_0pEApj50_INtNtCskumHb0IaX0X_4core7convert4FromINtB7_12GenericArraypINtNtCsdOIG378uWuC_7typenum4uint4UIntIB1Q_IB1Q_IB1Q_IB1Q_IB1Q_IB1Q_NtB1S_5UTermNtNtB1U_3bit2B1ENtB38_2B0EB36_EB3m_EB3m_EB3m_EB3m_EEE4fromB7_
FNDA:0,_RNvXININtCsek14CzwTA2s_13generic_array5implss6v_0pERINtB7_12GenericArraypINtNtCsdOIG378uWuC_7typenum4uint4UIntIB1a_IB1a_IB1a_IB1a_IB1a_IB1a_NtB1c_5UTermNtNtB1e_3bit2B1ENtB2s_2B0EB2q_EB2G_EB2G_EB2G_EB2G_EEINtNtCskumHb0IaX0X_4core7convert4FromRApj50_E4fromB7_
FNDA:0,_RNvXININtCsek14CzwTA2s_13generic_array5implss6w_0pEQINtB7_12GenericArraypINtNtCsdOIG378uWuC_7typenum4uint4UIntIB1a_IB1a_IB1a_IB1a_IB1a_IB1a_NtB1c_5UTermNtNtB1e_3bit2B1ENtB2s_2B0EB2q_EB2G_EB2G_EB2G_EB2G_EEINtNtCskumHb0IaX0X_4core7convert4FromQApj50_E4fromB7_
FNDA:0,_RNvXININtCsek14CzwTA2s_13generic_array5implss6x_0pEINtB7_12GenericArraypINtNtCsdOIG378uWuC_7typenum4uint4UIntIB19_IB19_IB19_IB19_IB19_IB19_NtB1b_5UTermNtNtB1d_3bit2B1ENtB2r_2B0EB2p_EB2F_EB2F_EB2F_EB2F_EEINtNtCskumHb0IaX0X_4core7convert5AsRefApj50_E6as_refB7_
FNDA:0,_RNvXININtCsek14CzwTA2s_13generic_array5implss6y_0pEINtB7_12GenericArraypINtNtCsdOIG378uWuC_7typenum4uint4UIntIB19_IB19_IB19_IB19_IB19_IB19_NtB1b_5UTermNtNtB1d_3bit2B1ENtB2r_2B0EB2p_EB2F_EB2F_EB2F_EB2F_EEINtNtCskumHb0IaX0X_4core7convert5AsMutApj50_E6as_mutB7_
FNDA:0,_RNvXININtCsek14CzwTA2s_13generic_array5implss6z_0pEINtB7_12GenericArraypINtNtCsdOIG378uWuC_7typenum4uint4UIntIB19_IB19_IB19_IB19_IB19_IB19_NtB1b_5UTermNtNtB1d_3bit2B1ENtB2r_2B0EB2p_EB2p_EB2F_EB2p_EB2F_EEINtNtCskumHb0IaX0X_4core7convert4FromApj5a_E4fromB7_
FNDA:0,_RNvXININtCsek14CzwTA2s_13generic_array5implss70_0pEQINtB7_12GenericArraypINtNtCsdOIG378uWuC_7typenum4uint4UIntIB1a_IB1a_IB1a_IB1a_IB1a_IB1a_IB1a_IB1a_NtB1c_5UTermNtNtB1e_3bit2B1EB2A_ENtB2C_2B0EB2V_EB2A_EB2V_EB2V_EB2V_EB2V_EEINtNtCskumHb0IaX0X_4core7convert4FromQApj190_E4fromB7_
FNDA:0,_RNvXININtCsek14CzwTA2s_13generic_array5implss71_0pEINtB7_12GenericArraypINtNtCsdOIG378uWuC_7typenum4uint4UIntIB19_IB19_IB19_IB19_IB19_IB19_IB19_IB19_NtB1b_5UTermNtNtB1d_3bit2B1EB2z_ENtB2B_2B0EB2U_EB2z_EB2U_EB2U_EB2U_EB2U_EEINtNtCskumHb0IaX0X_4core7convert5AsRefApj190_E6as_refB7_
FNDA:0,_RNvXININtCsek14CzwTA2s_13generic_array5implss72_0pEINtB7_12GenericArraypINtNtCsdOIG378uWuC_7typenum4uint4UIntIB19_IB19_IB19_IB19_IB19_IB19_IB19_IB19_NtB1b_5UTermNtNtB1d_3bit2B1EB2z_ENtB2B_2B0EB2U_EB2z_EB2U_EB2U_EB2U_EB2U_EEINtNtCskumHb0IaX0X_4core7convert5AsMutApj190_E6as_mutB7_
FNDA:0,_RNvXININtCsek14CzwTA2s_13generic_array5implss73_0pEINtB7_12GenericArraypINtNtCsdOIG378uWuC_7typenum4uint4UIntIB19_IB19_IB19_IB19_IB19_IB19_IB19_IB19_NtB1b_5UTermNtNtB1d_3bit2B1EB2z_EB2z_EB2z_EB2z_ENtB2B_2B0EB2z_EB39_EB39_EEINtNtCskumHb0IaX0X_4core7convert4FromApj1f4_E4fromB7_
FNDA:0,_RNvXININtCsek14CzwTA2s_13generic_array5implss74_0pEApj1f4_INtNtCskumHb0IaX0X_4core7convert4FromINtB7_12GenericArraypINtNtCsdOIG378uWuC_7typenum4uint4UIntIB1R_IB1R_IB1R_IB1R_IB1R_IB1R_IB1R_IB1R_NtB1T_5UTermNtNtB1V_3bit2B1EB3h_EB3h_EB3h_EB3h_ENtB3j_2B0EB3h_EB3R_EB3R_EEE4fromB7_
FNDA:0,_RNvXININtCsek14CzwTA2s_13generic_array5implss75_0pERINtB7_12GenericArraypINtNtCsdOIG378uWuC_7typenum4uint4UIntIB1a_IB1a_IB1a_IB1a_IB1a_IB1a_IB1a_IB1a_NtB1c_5UTermNtNtB1e_3bit2B1EB2A_EB2A_EB2A_EB2A_ENtB2C_2B0EB2A_EB3a_EB3a_EEINtNtCskumHb0IaX0X_4core7convert4FromRApj1f4_E4fromB7_
FNDA:0,_RNvXININtCsek14CzwTA2s_13generic_array5implss76_0pEQINtB7_12GenericArraypINtNtCsdOIG378uWuC_7typenum4uint4UIntIB1a_IB1a_IB1a_IB1a_IB1a_IB1a_IB1a_IB1a_NtB1c_5UTermNtNtB1e_3bit2B1EB2A_EB2A_EB2A_EB2A_ENtB2C_2B0EB2A_EB3a_EB3a_EEINtNtCskumHb0IaX0X_4core7convert4FromQApj1f4_E4fromB7_
FNDA:0,_RNvXININtCsek14CzwTA2s_13generic_array5implss77_0pEINtB7_12GenericArraypINtNtCsdOIG378uWuC_7typenum4uint4UIntIB19_IB19_IB19_IB19_IB19_IB19_IB19_IB19_NtB1b_5UTermNtNtB1d_3bit2B1EB2z_EB2z_EB2z_EB2z_ENtB2B_2B0EB2z_EB39_EB39_EEINtNtCskumHb0IaX0X_4core7convert5AsRefApj1f4_E6as_refB7_
FNDA:0,_RNvXININtCsek14CzwTA2s_13generic_array5implss78_0pEINtB7_12GenericArraypINtNtCsdOIG378uWuC_7typenum4uint4UIntIB19_IB19_IB19_IB19_IB19_IB19_IB19_IB19_NtB1b_5UTermNtNtB1d_3bit2B1EB2z_EB2z_EB2z_EB2z_ENtB2B_2B0EB2z_EB39_EB39_EEINtNtCskumHb0IaX0X_4core7convert5AsMutApj1f4_E6as_mutB7_
FNDA:0,_RNvXININtCsek14CzwTA2s_13generic_array5implss79_0pEINtB7_12GenericArraypINtNtCsdOIG378uWuC_7typenum4uint4UIntIB19_IB19_IB19_IB19_IB19_IB19_IB19_NtB1b_5UTermNtNtB1d_3bit2B1ENtB2w_2B0EB2K_EB2K_EB2K_EB2K_EB2K_EB2K_EEINtNtCskumHb0IaX0X_4core7convert4FromApj80_E4fromB7_
FNDA:0,_RNvXININtCsek14CzwTA2s_13generic_array5implss7A_0pEQINtB7_12GenericArraypINtNtCsdOIG378uWuC_7typenum4uint4UIntIB1a_IB1a_IB1a_IB1a_IB1a_IB1a_IB1a_IB1a_IB1a_IB1a_NtB1c_5UTermNtNtB1e_3bit2B1ENtB2M_2B0EB30_EB30_EB30_EB30_EB30_EB30_EB30_EB30_EB30_EEINtNtCskumHb0IaX0X_4core7convert4FromQApj400_E4fromB7_
FNDA:0,_RNvXININtCsek14CzwTA2s_13generic_array5implss7B_0pEINtB7_12GenericArraypINtNtCsdOIG378uWuC_7typenum4uint4UIntIB19_IB19_IB19_IB19_IB19_IB19_IB19_IB19_IB19_IB19_NtB1b_5UTermNtNtB1d_3bit2B1ENtB2L_2B0EB2Z_EB2Z_EB2Z_EB2Z_EB2Z_EB2Z_EB2Z_EB2Z_EB2Z_EEINtNtCskumHb0IaX0X_4core7convert5AsRefApj400_E6as_refB7_
FNDA:0,_RNvXININtCsek14CzwTA2s_13generic_array5implss7C_0pEINtB7_12GenericArraypINtNtCsdOIG378uWuC_7typenum4uint4UIntIB19_IB19_IB19_IB19_IB19_IB19_IB19_IB19_IB19_IB19_NtB1b_5UTermNtNtB1d_3bit2B1ENtB2L_2B0EB2Z_EB2Z_EB2Z_EB2Z_EB2Z_EB2Z_EB2Z_EB2Z_EB2Z_EEINtNtCskumHb0IaX0X_4core7convert5AsMutApj400_E6as_mutB7_
FNDA:0,_RNvXININtCsek14CzwTA2s_13generic_array5implss7_0ppEINtB7_12GenericArrayppEINtNtCskumHb0IaX0X_4core6borrow9BorrowMutSpE10borrow_mutB7_
FNDA:0,_RNvXININtCsek14CzwTA2s_13generic_array5implss7a_0pEApj80_INtNtCskumHb0IaX0X_4core7convert4FromINtB7_12GenericArraypINtNtCsdOIG378uWuC_7typenum4uint4UIntIB1Q_IB1Q_IB1Q_IB1Q_IB1Q_IB1Q_IB1Q_NtB1S_5UTermNtNtB1U_3bit2B1ENtB3d_2B0EB3r_EB3r_EB3r_EB3r_EB3r_EB3r_EEE4fromB7_
FNDA:0,_RNvXININtCsek14CzwTA2s_13generic_array5implss7b_0pERINtB7_12GenericArraypINtNtCsdOIG378uWuC_7typenum4uint4UIntIB1a_IB1a_IB1a_IB1a_IB1a_IB1a_IB1a_NtB1c_5UTermNtNtB1e_3bit2B1ENtB2x_2B0EB2L_EB2L_EB2L_EB2L_EB2L_EB2L_EEINtNtCskumHb0IaX0X_4core7convert4FromRApj80_E4fromB7_
FNDA:0,_RNvXININtCsek14CzwTA2s_13generic_array5implss7c_0pEQINtB7_12GenericArraypINtNtCsdOIG378uWuC_7typenum4uint4UIntIB1a_IB1a_IB1a_IB1a_IB1a_IB1a_IB1a_NtB1c_5UTermNtNtB1e_3bit2B1ENtB2x_2B0EB2L_EB2L_EB2L_EB2L_EB2L_EB2L_EEINtNtCskumHb0IaX0X_4core7convert4FromQApj80_E4fromB7_
FNDA:0,_RNvXININtCsek14CzwTA2s_13generic_array5implss7d_0pEINtB7_12GenericArraypINtNtCsdOIG378uWuC_7typenum4uint4UIntIB19_IB19_IB19_IB19_IB19_IB19_IB19_NtB1b_5UTermNtNtB1d_3bit2B1ENtB2w_2B0EB2K_EB2K_EB2K_EB2K_EB2K_EB2K_EEINtNtCskumHb0IaX0X_4core7convert5AsRefApj80_E6as_refB7_
FNDA:0,_RNvXININtCsek14CzwTA2s_13generic_array5implss7e_0pEINtB7_12GenericArraypINtNtCsdOIG378uWuC_7typenum4uint4UIntIB19_IB19_IB19_IB19_IB19_IB19_IB19_NtB1b_5UTermNtNtB1d_3bit2B1ENtB2w_2B0EB2K_EB2K_EB2K_EB2K_EB2K_EB2K_EEINtNtCskumHb0IaX0X_4core7convert5AsMutApj80_E6as_mutB7_
FNDA:0,_RNvXININtCsek14CzwTA2s_13generic_array5implss7f_0pEINtB7_12GenericArraypINtNtCsdOIG378uWuC_7typenum4uint4UIntIB19_IB19_IB19_IB19_IB19_IB19_IB19_IB19_NtB1b_5UTermNtNtB1d_3bit2B1ENtB2B_2B0EB2P_EB2P_EB2P_EB2P_EB2P_EB2P_EB2P_EEINtNtCskumHb0IaX0X_4core7convert4FromApj100_E4fromB7_
FNDA:0,_RNvXININtCsek14CzwTA2s_13generic_array5implss7g_0pEApj100_INtNtCskumHb0IaX0X_4core7convert4FromINtB7_12GenericArraypINtNtCsdOIG378uWuC_7typenum4uint4UIntIB1R_IB1R_IB1R_IB1R_IB1R_IB1R_IB1R_IB1R_NtB1T_5UTermNtNtB1V_3bit2B1ENtB3j_2B0EB3x_EB3x_EB3x_EB3x_EB3x_EB3x_EB3x_EEE4fromB7_
FNDA:0,_RNvXININtCsek14CzwTA2s_13generic_array5implss7h_0pERINtB7_12GenericArraypINtNtCsdOIG378uWuC_7typenum4uint4UIntIB1a_IB1a_IB1a_IB1a_IB1a_IB1a_IB1a_IB1a_NtB1c_5UTermNtNtB1e_3bit2B1ENtB2C_2B0EB2Q_EB2Q_EB2Q_EB2Q_EB2Q_EB2Q_EB2Q_EEINtNtCskumHb0IaX0X_4core7convert4FromRApj100_E4fromB7_
FNDA:0,_RNvXININtCsek14CzwTA2s_13generic_array5implss7i_0pEQINtB7_12GenericArraypINtNtCsdOIG378uWuC_7typenum4uint4UIntIB1a_IB1a_IB1a_IB1a_IB1a_IB1a_IB1a_IB1a_NtB1c_5UTermNtNtB1e_3bit2B1ENtB2C_2B0EB2Q_EB2Q_EB2Q_EB2Q_EB2Q_EB2Q_EB2Q_EEINtNtCskumHb0IaX0X_4core7convert4FromQApj100_E4fromB7_
FNDA:0,_RNvXININtCsek14CzwTA2s_13generic_array5implss7j_0pEINtB7_12GenericArraypINtNtCsdOIG378uWuC_7typenum4uint4UIntIB19_IB19_IB19_IB19_IB19_IB19_IB19_IB19_NtB1b_5UTermNtNtB1d_3bit2B1ENtB2B_2B0EB2P_EB2P_EB2P_EB2P_EB2P_EB2P_EB2P_EEINtNtCskumHb0IaX0X_4core7convert5AsRefApj100_E6as_refB7_
FNDA:0,_RNvXININtCsek14CzwTA2s_13generic_array5implss7k_0pEINtB7_12GenericArraypINtNtCsdOIG378uWuC_7typenum4uint4UIntIB19_IB19_IB19_IB19_IB19_IB19_IB19_IB19_NtB1b_5UTermNtNtB1d_3bit2B1ENtB2B_2B0EB2P_EB2P_EB2P_EB2P_EB2P_EB2P_EB2P_EEINtNtCskumHb0IaX0X_4core7convert5AsMutApj100_E6as_mutB7_
FNDA:0,_RNvXININtCsek14CzwTA2s_13generic_array5implss7l_0pEINtB7_12GenericArraypINtNtCsdOIG378uWuC_7typenum4uint4UIntIB19_IB19_IB19_IB19_IB19_IB19_IB19_IB19_IB19_NtB1b_5UTermNtNtB1d_3bit2B1ENtB2G_2B0EB2U_EB2U_EB2U_EB2U_EB2U_EB2U_EB2U_EB2U_EEINtNtCskumHb0IaX0X_4core7convert4FromApj200_E4fromB7_
FNDA:0,_RNvXININtCsek14CzwTA2s_13generic_array5implss7m_0pEApj200_INtNtCskumHb0IaX0X_4core7convert4FromINtB7_12GenericArraypINtNtCsdOIG378uWuC_7typenum4uint4UIntIB1R_IB1R_IB1R_IB1R_IB1R_IB1R_IB1R_IB1R_IB1R_NtB1T_5UTermNtNtB1V_3bit2B1ENtB3o_2B0EB3C_EB3C_EB3C_EB3C_EB3C_EB3C_EB3C_EB3C_EEE4fromB7_
FNDA:0,_RNvXININtCsek14CzwTA2s_13generic_array5implss7n_0pERINtB7_12GenericArraypINtNtCsdOIG378uWuC_7typenum4uint4UIntIB1a_IB1a_IB1a_IB1a_IB1a_IB1a_IB1a_IB1a_IB1a_NtB1c_5UTermNtNtB1e_3bit2B1ENtB2H_2B0EB2V_EB2V_EB2V_EB2V_EB2V_EB2V_EB2V_EB2V_EEINtNtCskumHb0IaX0X_4core7convert4FromRApj200_E4fromB7_
FNDA:0,_RNvXININtCsek14CzwTA2s_13generic_array5implss7o_0pEQINtB7_12GenericArraypINtNtCsdOIG378uWuC_7typenum4uint4UIntIB1a_IB1a_IB1a_IB1a_IB1a_IB1a_IB1a_IB1a_IB1a_NtB1c_5UTermNtNtB1e_3bit2B1ENtB2H_2B0EB2V_EB2V_EB2V_EB2V_EB2V_EB2V_EB2V_EB2V_EEINtNtCskumHb0IaX0X_4core7convert4FromQApj200_E4fromB7_
FNDA:0,_RNvXININtCsek14CzwTA2s_13generic_array5implss7p_0pEINtB7_12GenericArraypINtNtCsdOIG378uWuC_7typenum4uint4UIntIB19_IB19_IB19_IB19_IB19_IB19_IB19_IB19_IB19_NtB1b_5UTermNtNtB1d_3bit2B1ENtB2G_2B0EB2U_EB2U_EB2U_EB2U_EB2U_EB2U_EB2U_EB2U_EEINtNtCskumHb0IaX0X_4core7convert5AsRefApj200_E6as_refB7_
FNDA:0,_RNvXININtCsek14CzwTA2s_13generic_array5implss7q_0pEINtB7_12GenericArraypINtNtCsdOIG378uWuC_7typenum4uint4UIntIB19_IB19_IB19_IB19_IB19_IB19_IB19_IB19_IB19_NtB1b_5UTermNtNtB1d_3bit2B1ENtB2G_2B0EB2U_EB2U_EB2U_EB2U_EB2U_EB2U_EB2U_EB2U_EEINtNtCskumHb0IaX0X_4core7convert5AsMutApj200_E6as_mutB7_
FNDA:0,_RNvXININtCsek14CzwTA2s_13generic_array5implss7r_0pEINtB7_12GenericArraypINtNtCsdOIG378uWuC_7typenum4uint4UIntIB19_IB19_IB19_IB19_IB19_IB19_IB19_IB19_IB19_NtB1b_5UTermNtNtB1d_3bit2B1EB2E_EB2E_EB2E_EB2E_ENtB2G_2B0EB2E_EB3e_EB3e_EB3e_EEINtNtCskumHb0IaX0X_4core7convert4FromApj3e8_E4fromB7_
FNDA:0,_RNvXININtCsek14CzwTA2s_13generic_array5implss7s_0pEApj3e8_INtNtCskumHb0IaX0X_4core7convert4FromINtB7_12GenericArraypINtNtCsdOIG378uWuC_7typenum4uint4UIntIB1R_IB1R_IB1R_IB1R_IB1R_IB1R_IB1R_IB1R_IB1R_NtB1T_5UTermNtNtB1V_3bit2B1EB3m_EB3m_EB3m_EB3m_ENtB3o_2B0EB3m_EB3W_EB3W_EB3W_EEE4fromB7_
FNDA:0,_RNvXININtCsek14CzwTA2s_13generic_array5implss7t_0pERINtB7_12GenericArraypINtNtCsdOIG378uWuC_7typenum4uint4UIntIB1a_IB1a_IB1a_IB1a_IB1a_IB1a_IB1a_IB1a_IB1a_NtB1c_5UTermNtNtB1e_3bit2B1EB2F_EB2F_EB2F_EB2F_ENtB2H_2B0EB2F_EB3f_EB3f_EB3f_EEINtNtCskumHb0IaX0X_4core7convert4FromRApj3e8_E4fromB7_
FNDA:0,_RNvXININtCsek14CzwTA2s_13generic_array5implss7u_0pEQINtB7_12GenericArraypINtNtCsdOIG378uWuC_7typenum4uint4UIntIB1a_IB1a_IB1a_IB1a_IB1a_IB1a_IB1a_IB1a_IB1a_NtB1c_5UTermNtNtB1e_3bit2B1EB2F_EB2F_EB2F_EB2F_ENtB2H_2B0EB2F_EB3f_EB3f_EB3f_EEINtNtCskumHb0IaX0X_4core7convert4FromQApj3e8_E4fromB7_
FNDA:0,_RNvXININtCsek14CzwTA2s_13generic_array5implss7v_0pEINtB7_12GenericArraypINtNtCsdOIG378uWuC_7typenum4uint4UIntIB19_IB19_IB19_IB19_IB19_IB19_IB19_IB19_IB19_NtB1b_5UTermNtNtB1d_3bit2B1EB2E_EB2E_EB2E_EB2E_ENtB2G_2B0EB2E_EB3e_EB3e_EB3e_EEINtNtCskumHb0IaX0X_4core7convert5AsRefApj3e8_E6as_refB7_
FNDA:0,_RNvXININtCsek14CzwTA2s_13generic_array5implss7w_0pEINtB7_12GenericArraypINtNtCsdOIG378uWuC_7typenum4uint4UIntIB19_IB19_IB19_IB19_IB19_IB19_IB19_IB19_IB19_NtB1b_5UTermNtNtB1d_3bit2B1EB2E_EB2E_EB2E_EB2E_ENtB2G_2B0EB2E_EB3e_EB3e_EB3e_EEINtNtCskumHb0IaX0X_4core7convert5AsMutApj3e8_E6as_mutB7_
FNDA:0,_RNvXININtCsek14CzwTA2s_13generic_array5implss7x_0pEINtB7_12GenericArraypINtNtCsdOIG378uWuC_7typenum4uint4UIntIB19_IB19_IB19_IB19_IB19_IB19_IB19_IB19_IB19_IB19_NtB1b_5UTermNtNtB1d_3bit2B1ENtB2L_2B0EB2Z_EB2Z_EB2Z_EB2Z_EB2Z_EB2Z_EB2Z_EB2Z_EB2Z_EEINtNtCskumHb0IaX0X_4core7convert4FromApj400_E4fromB7_
FNDA:0,_RNvXININtCsek14CzwTA2s_13generic_array5implss7y_0pEApj400_INtNtCskumHb0IaX0X_4core7convert4FromINtB7_12GenericArraypINtNtCsdOIG378uWuC_7typenum4uint4UIntIB1R_IB1R_IB1R_IB1R_IB1R_IB1R_IB1R_IB1R_IB1R_IB1R_NtB1T_5UTermNtNtB1V_3bit2B1ENtB3t_2B0EB3H_EB3H_EB3H_EB3H_EB3H_EB3H_EB3H_EB3H_EB3H_EEE4fromB7_
FNDA:0,_RNvXININtCsek14CzwTA2s_13generic_array5implss7z_0pERINtB7_12GenericArraypINtNtCsdOIG378uWuC_7typenum4uint4UIntIB1a_IB1a_IB1a_IB1a_IB1a_IB1a_IB1a_IB1a_IB1a_IB1a_NtB1c_5UTermNtNtB1e_3bit2B1ENtB2M_2B0EB30_EB30_EB30_EB30_EB30_EB30_EB30_EB30_EB30_EEINtNtCskumHb0IaX0X_4core7convert4FromRApj400_E4fromB7_
FNDA:0,_RNvXININtCsek14CzwTA2s_13generic_array5implss8_0ppEINtB7_12GenericArrayppEINtNtCskumHb0IaX0X_4core7convert5AsRefSpE6as_refB7_
FNDA:0,_RNvXININtCsek14CzwTA2s_13generic_array5implss9_0ppEINtB7_12GenericArrayppEINtNtCskumHb0IaX0X_4core7convert5AsMutSpE6as_mutB7_
FNDA:0,_RNvXININtCsek14CzwTA2s_13generic_array5implssA_0pEApj5_INtNtCskumHb0IaX0X_4core7convert4FromINtB7_12GenericArraypINtNtCsdOIG378uWuC_7typenum4uint4UIntIB1O_IB1O_NtB1Q_5UTermNtNtB1S_3bit2B1ENtB2M_2B0EB2K_EEE4fromB7_
FNDA:0,_RNvXININtCsek14CzwTA2s_13generic_array5implssB_0pERINtB7_12GenericArraypINtNtCsdOIG378uWuC_7typenum4uint4UIntIB19_IB19_NtB1b_5UTermNtNtB1d_3bit2B1ENtB27_2B0EB25_EEINtNtCskumHb0IaX0X_4core7convert4FromRApj5_E4fromB7_
FNDA:0,_RNvXININtCsek14CzwTA2s_13generic_array5implssC_0pEQINtB7_12GenericArraypINtNtCsdOIG378uWuC_7typenum4uint4UIntIB19_IB19_NtB1b_5UTermNtNtB1d_3bit2B1ENtB27_2B0EB25_EEINtNtCskumHb0IaX0X_4core7convert4FromQApj5_E4fromB7_
FNDA:0,_RNvXININtCsek14CzwTA2s_13generic_array5implssD_0pEINtB7_12GenericArraypINtNtCsdOIG378uWuC_7typenum4uint4UIntIB18_IB18_NtB1a_5UTermNtNtB1c_3bit2B1ENtB26_2B0EB24_EEINtNtCskumHb0IaX0X_4core7convert5AsRefApj5_E6as_refB7_
FNDA:0,_RNvXININtCsek14CzwTA2s_13generic_array5implssE_0pEINtB7_12GenericArraypINtNtCsdOIG378uWuC_7typenum4uint4UIntIB18_IB18_NtB1a_5UTermNtNtB1c_3bit2B1ENtB26_2B0EB24_EEINtNtCskumHb0IaX0X_4core7convert5AsMutApj5_E6as_mutB7_
FNDA:0,_RNvXININtCsek14CzwTA2s_13generic_array5implssF_0pEINtB7_12GenericArraypINtNtCsdOIG378uWuC_7typenum4uint4UIntIB18_IB18_NtB1a_5UTermNtNtB1c_3bit2B1EB24_ENtB26_2B0EEINtNtCskumHb0IaX0X_4core7convert4FromApj6_E4fromB7_
FNDA:0,_RNvXININtCsek14CzwTA2s_13generic_array5implssG_0pEApj6_INtNtCskumHb0IaX0X_4core7convert4FromINtB7_12GenericArraypINtNtCsdOIG378uWuC_7typenum4uint4UIntIB1O_IB1O_NtB1Q_5UTermNtNtB1S_3bit2B1EB2K_ENtB2M_2B0EEE4fromB7_
FNDA:0,_RNvXININtCsek14CzwTA2s_13generic_array5implssH_0pERINtB7_12GenericArraypINtNtCsdOIG378uWuC_7typenum4uint4UIntIB19_IB19_NtB1b_5UTermNtNtB1d_3bit2B1EB25_ENtB27_2B0EEINtNtCskumHb0IaX0X_4core7convert4FromRApj6_E4fromB7_
FNDA:0,_RNvXININtCsek14CzwTA2s_13generic_array5implssI_0pEQINtB7_12GenericArraypINtNtCsdOIG378uWuC_7typenum4uint4UIntIB19_IB19_NtB1b_5UTermNtNtB1d_3bit2B1EB25_ENtB27_2B0EEINtNtCskumHb0IaX0X_4core7convert4FromQApj6_E4fromB7_
FNDA:0,_RNvXININtCsek14CzwTA2s_13generic_array5implssJ_0pEINtB7_12GenericArraypINtNtCsdOIG378uWuC_7typenum4uint4UIntIB18_IB18_NtB1a_5UTermNtNtB1c_3bit2B1EB24_ENtB26_2B0EEINtNtCskumHb0IaX0X_4core7convert5AsRefApj6_E6as_refB7_
FNDA:0,_RNvXININtCsek14CzwTA2s_13generic_array5implssK_0pEINtB7_12GenericArraypINtNtCsdOIG378uWuC_7typenum4uint4UIntIB18_IB18_NtB1a_5UTermNtNtB1c_3bit2B1EB24_ENtB26_2B0EEINtNtCskumHb0IaX0X_4core7convert5AsMutApj6_E6as_mutB7_
FNDA:0,_RNvXININtCsek14CzwTA2s_13generic_array5implssL_0pEINtB7_12GenericArraypINtNtCsdOIG378uWuC_7typenum4uint4UIntIB18_IB18_NtB1a_5UTermNtNtB1c_3bit2B1EB24_EB24_EEINtNtCskumHb0IaX0X_4core7convert4FromApj7_E4fromB7_
FNDA:0,_RNvXININtCsek14CzwTA2s_13generic_array5implssM_0pEApj7_INtNtCskumHb0IaX0X_4core7convert4FromINtB7_12GenericArraypINtNtCsdOIG378uWuC_7typenum4uint4UIntIB1O_IB1O_NtB1Q_5UTermNtNtB1S_3bit2B1EB2K_EB2K_EEE4fromB7_
FNDA:0,_RNvXININtCsek14CzwTA2s_13generic_array5implssN_0pERINtB7_12GenericArraypINtNtCsdOIG378uWuC_7typenum4uint4UIntIB19_IB19_NtB1b_5UTermNtNtB1d_3bit2B1EB25_EB25_EEINtNtCskumHb0IaX0X_4core7convert4FromRApj7_E4fromB7_
FNDA:0,_RNvXININtCsek14CzwTA2s_13generic_array5implssO_0pEQINtB7_12GenericArraypINtNtCsdOIG378uWuC_7typenum4uint4UIntIB19_IB19_NtB1b_5UTermNtNtB1d_3bit2B1EB25_EB25_EEINtNtCskumHb0IaX0X_4core7convert4FromQApj7_E4fromB7_
FNDA:0,_RNvXININtCsek14CzwTA2s_13generic_array5implssP_0pEINtB7_12GenericArraypINtNtCsdOIG378uWuC_7typenum4uint4UIntIB18_IB18_NtB1a_5UTermNtNtB1c_3bit2B1EB24_EB24_EEINtNtCskumHb0IaX0X_4core7convert5AsRefApj7_E6as_refB7_
FNDA:0,_RNvXININtCsek14CzwTA2s_13generic_array5implssQ_0pEINtB7_12GenericArraypINtNtCsdOIG378uWuC_7typenum4uint4UIntIB18_IB18_NtB1a_5UTermNtNtB1c_3bit2B1EB24_EB24_EEINtNtCskumHb0IaX0X_4core7convert5AsMutApj7_E6as_mutB7_
FNDA:0,_RNvXININtCsek14CzwTA2s_13generic_array5implssR_0pEINtB7_12GenericArraypINtNtCsdOIG378uWuC_7typenum4uint4UIntIB18_IB18_IB18_NtB1a_5UTermNtNtB1c_3bit2B1ENtB2b_2B0EB2p_EB2p_EEINtNtCskumHb0IaX0X_4core7convert4FromApj8_E4fromB7_
FNDA:0,_RNvXININtCsek14CzwTA2s_13generic_array5implssS_0pEApj8_INtNtCskumHb0IaX0X_4core7convert4FromINtB7_12GenericArraypINtNtCsdOIG378uWuC_7typenum4uint4UIntIB1O_IB1O_IB1O_NtB1Q_5UTermNtNtB1S_3bit2B1ENtB2R_2B0EB35_EB35_EEE4fromB7_
FNDA:0,_RNvXININtCsek14CzwTA2s_13generic_array5implssT_0pERINtB7_12GenericArraypINtNtCsdOIG378uWuC_7typenum4uint4UIntIB19_IB19_IB19_NtB1b_5UTermNtNtB1d_3bit2B1ENtB2c_2B0EB2q_EB2q_EEINtNtCskumHb0IaX0X_4core7convert4FromRApj8_E4fromB7_
FNDA:0,_RNvXININtCsek14CzwTA2s_13generic_array5implssU_0pEQINtB7_12GenericArraypINtNtCsdOIG378uWuC_7typenum4uint4UIntIB19_IB19_IB19_NtB1b_5UTermNtNtB1d_3bit2B1ENtB2c_2B0EB2q_EB2q_EEINtNtCskumHb0IaX0X_4core7convert4FromQApj8_E4fromB7_
FNDA:0,_RNvXININtCsek14CzwTA2s_13generic_array5implssV_0pEINtB7_12GenericArraypINtNtCsdOIG378uWuC_7typenum4uint4UIntIB18_IB18_IB18_NtB1a_5UTermNtNtB1c_3bit2B1ENtB2b_2B0EB2p_EB2p_EEINtNtCskumHb0IaX0X_4core7convert5AsRefApj8_E6as_refB7_
FNDA:0,_RNvXININtCsek14CzwTA2s_13generic_array5implssW_0pEINtB7_12GenericArraypINtNtCsdOIG378uWuC_7typenum4uint4UIntIB18_IB18_IB18_NtB1a_5UTermNtNtB1c_3bit2B1ENtB2b_2B0EB2p_EB2p_EEINtNtCskumHb0IaX0X_4core7convert5AsMutApj8_E6as_mutB7_
FNDA:0,_RNvXININtCsek14CzwTA2s_13generic_array5implssX_0pEINtB7_12GenericArraypINtNtCsdOIG378uWuC_7typenum4uint4UIntIB18_IB18_IB18_NtB1a_5UTermNtNtB1c_3bit2B1ENtB2b_2B0EB2p_EB29_EEINtNtCskumHb0IaX0X_4core7convert4FromApj9_E4fromB7_
FNDA:0,_RNvXININtCsek14CzwTA2s_13generic_array5implssY_0pEApj9_INtNtCskumHb0IaX0X_4core7convert4FromINtB7_12GenericArraypINtNtCsdOIG378uWuC_7typenum4uint4UIntIB1O_IB1O_IB1O_NtB1Q_5UTermNtNtB1S_3bit2B1ENtB2R_2B0EB35_EB2P_EEE4fromB7_
FNDA:0,_RNvXININtCsek14CzwTA2s_13generic_array5implssZ_0pERINtB7_12GenericArraypINtNtCsdOIG378uWuC_7typenum4uint4UIntIB19_IB19_IB19_NtB1b_5UTermNtNtB1d_3bit2B1ENtB2c_2B0EB2q_EB2a_EEINtNtCskumHb0IaX0X_4core7convert4FromRApj9_E4fromB7_
FNDA:0,_RNvXININtCsek14CzwTA2s_13generic_array5implss_0ppEINtB7_12GenericArrayppENtNtCskumHb0IaX0X_4core5clone5Clone5cloneB7_
FNDA:0,_RNvXININtCsek14CzwTA2s_13generic_array5implssb_0pEINtB7_12GenericArraypINtNtCsdOIG378uWuC_7typenum4uint4UIntNtB1a_5UTermNtNtB1c_3bit2B1EEINtNtCskumHb0IaX0X_4core7convert4FromApj1_E4fromB7_
FNDA:0,_RNvXININtCsek14CzwTA2s_13generic_array5implssc_0pEApj1_INtNtCskumHb0IaX0X_4core7convert4FromINtB7_12GenericArraypINtNtCsdOIG378uWuC_7typenum4uint4UIntNtB1Q_5UTermNtNtB1S_3bit2B1EEE4fromB7_
FNDA:0,_RNvXININtCsek14CzwTA2s_13generic_array5implssd_0pERINtB7_12GenericArraypINtNtCsdOIG378uWuC_7typenum4uint4UIntNtB1b_5UTermNtNtB1d_3bit2B1EEINtNtCskumHb0IaX0X_4core7convert4FromRApj1_E4fromB7_
FNDA:0,_RNvXININtCsek14CzwTA2s_13generic_array5implsse_0pEQINtB7_12GenericArraypINtNtCsdOIG378uWuC_7typenum4uint4UIntNtB1b_5UTermNtNtB1d_3bit2B1EEINtNtCskumHb0IaX0X_4core7convert4FromQApj1_E4fromB7_
FNDA:0,_RNvXININtCsek14CzwTA2s_13generic_array5implssf_0pEINtB7_12GenericArraypINtNtCsdOIG378uWuC_7typenum4uint4UIntNtB1a_5UTermNtNtB1c_3bit2B1EEINtNtCskumHb0IaX0X_4core7convert5AsRefApj1_E6as_refB7_
FNDA:0,_RNvXININtCsek14CzwTA2s_13generic_array5implssg_0pEINtB7_12GenericArraypINtNtCsdOIG378uWuC_7typenum4uint4UIntNtB1a_5UTermNtNtB1c_3bit2B1EEINtNtCskumHb0IaX0X_4core7convert5AsMutApj1_E6as_mutB7_
FNDA:0,_RNvXININtCsek14CzwTA2s_13generic_array5implssh_0pEINtB7_12GenericArraypINtNtCsdOIG378uWuC_7typenum4uint4UIntIB18_NtB1a_5UTermNtNtB1c_3bit2B1ENtB21_2B0EEINtNtCskumHb0IaX0X_4core7convert4FromApj2_E4fromB7_
FNDA:0,_RNvXININtCsek14CzwTA2s_13generic_array5implssi_0pEApj2_INtNtCskumHb0IaX0X_4core7convert4FromINtB7_12GenericArraypINtNtCsdOIG378uWuC_7typenum4uint4UIntIB1O_NtB1Q_5UTermNtNtB1S_3bit2B1ENtB2H_2B0EEE4fromB7_
FNDA:0,_RNvXININtCsek14CzwTA2s_13generic_array5implssj_0pERINtB7_12GenericArraypINtNtCsdOIG378uWuC_7typenum4uint4UIntIB19_NtB1b_5UTermNtNtB1d_3bit2B1ENtB22_2B0EEINtNtCskumHb0IaX0X_4core7convert4FromRApj2_E4fromB7_
FNDA:0,_RNvXININtCsek14CzwTA2s_13generic_array5implssk_0pEQINtB7_12GenericArraypINtNtCsdOIG378uWuC_7typenum4uint4UIntIB19_NtB1b_5UTermNtNtB1d_3bit2B1ENtB22_2B0EEINtNtCskumHb0IaX0X_4core7convert4FromQApj2_E4fromB7_
FNDA:0,_RNvXININtCsek14CzwTA2s_13generic_array5implssl_0pEINtB7_12GenericArraypINtNtCsdOIG378uWuC_7typenum4uint4UIntIB18_NtB1a_5UTermNtNtB1c_3bit2B1ENtB21_2B0EEINtNtCskumHb0IaX0X_4core7convert5AsRefApj2_E6as_refB7_
FNDA:0,_RNvXININtCsek14CzwTA2s_13generic_array5implssm_0pEINtB7_12GenericArraypINtNtCsdOIG378uWuC_7typenum4uint4UIntIB18_NtB1a_5UTermNtNtB1c_3bit2B1ENtB21_2B0EEINtNtCskumHb0IaX0X_4core7convert5AsMutApj2_E6as_mutB7_
FNDA:0,_RNvXININtCsek14CzwTA2s_13generic_array5implssn_0pEINtB7_12GenericArraypINtNtCsdOIG378uWuC_7typenum4uint4UIntIB18_NtB1a_5UTermNtNtB1c_3bit2B1EB1Z_EEINtNtCskumHb0IaX0X_4core7convert4FromApj3_E4fromB7_
FNDA:0,_RNvXININtCsek14CzwTA2s_13generic_array5implsso_0pEApj3_INtNtCskumHb0IaX0X_4core7convert4FromINtB7_12GenericArraypINtNtCsdOIG378uWuC_7typenum4uint4UIntIB1O_NtB1Q_5UTermNtNtB1S_3bit2B1EB2F_EEE4fromB7_
FNDA:0,_RNvXININtCsek14CzwTA2s_13generic_array5implssp_0pERINtB7_12GenericArraypINtNtCsdOIG378uWuC_7typenum4uint4UIntIB19_NtB1b_5UTermNtNtB1d_3bit2B1EB20_EEINtNtCskumHb0IaX0X_4core7convert4FromRApj3_E4fromB7_
FNDA:0,_RNvXININtCsek14CzwTA2s_13generic_array5implssq_0pEQINtB7_12GenericArraypINtNtCsdOIG378uWuC_7typenum4uint4UIntIB19_NtB1b_5UTermNtNtB1d_3bit2B1EB20_EEINtNtCskumHb0IaX0X_4core7convert4FromQApj3_E4fromB7_
FNDA:0,_RNvXININtCsek14CzwTA2s_13generic_array5implssr_0pEINtB7_12GenericArraypINtNtCsdOIG378uWuC_7typenum4uint4UIntIB18_NtB1a_5UTermNtNtB1c_3bit2B1EB1Z_EEINtNtCskumHb0IaX0X_4core7convert5AsRefApj3_E6as_refB7_
FNDA:0,_RNvXININtCsek14CzwTA2s_13generic_array5implsss_0pEINtB7_12GenericArraypINtNtCsdOIG378uWuC_7typenum4uint4UIntIB18_NtB1a_5UTermNtNtB1c_3bit2B1EB1Z_EEINtNtCskumHb0IaX0X_4core7convert5AsMutApj3_E6as_mutB7_
FNDA:0,_RNvXININtCsek14CzwTA2s_13generic_array5implsst_0pEINtB7_12GenericArraypINtNtCsdOIG378uWuC_7typenum4uint4UIntIB18_IB18_NtB1a_5UTermNtNtB1c_3bit2B1ENtB26_2B0EB2k_EEINtNtCskumHb0IaX0X_4core7convert4FromApj4_E4fromB7_
FNDA:0,_RNvXININtCsek14CzwTA2s_13generic_array5implssu_0pEApj4_INtNtCskumHb0IaX0X_4core7convert4FromINtB7_12GenericArraypINtNtCsdOIG378uWuC_7typenum4uint4UIntIB1O_IB1O_NtB1Q_5UTermNtNtB1S_3bit2B1ENtB2M_2B0EB30_EEE4fromB7_
FNDA:0,_RNvXININtCsek14CzwTA2s_13generic_array5implssv_0pERINtB7_12GenericArraypINtNtCsdOIG378uWuC_7typenum4uint4UIntIB19_IB19_NtB1b_5UTermNtNtB1d_3bit2B1ENtB27_2B0EB2l_EEINtNtCskumHb0IaX0X_4core7convert4FromRApj4_E4fromB7_
FNDA:0,_RNvXININtCsek14CzwTA2s_13generic_array5implssw_0pEQINtB7_12GenericArraypINtNtCsdOIG378uWuC_7typenum4uint4UIntIB19_IB19_NtB1b_5UTermNtNtB1d_3bit2B1ENtB27_2B0EB2l_EEINtNtCskumHb0IaX0X_4core7convert4FromQApj4_E4fromB7_
FNDA:0,_RNvXININtCsek14CzwTA2s_13generic_array5implssx_0pEINtB7_12GenericArraypINtNtCsdOIG378uWuC_7typenum4uint4UIntIB18_IB18_NtB1a_5UTermNtNtB1c_3bit2B1ENtB26_2B0EB2k_EEINtNtCskumHb0IaX0X_4core7convert5AsRefApj4_E6as_refB7_
FNDA:0,_RNvXININtCsek14CzwTA2s_13generic_array5implssy_0pEINtB7_12GenericArraypINtNtCsdOIG378uWuC_7typenum4uint4UIntIB18_IB18_NtB1a_5UTermNtNtB1c_3bit2B1ENtB26_2B0EB2k_EEINtNtCskumHb0IaX0X_4core7convert5AsMutApj4_E6as_mutB7_
FNDA:0,_RNvXININtCsek14CzwTA2s_13generic_array5implssz_0pEINtB7_12GenericArraypINtNtCsdOIG378uWuC_7typenum4uint4UIntIB18_IB18_NtB1a_5UTermNtNtB1c_3bit2B1ENtB26_2B0EB24_EEINtNtCskumHb0IaX0X_4core7convert4FromApj5_E4fromB7_
FNF:18
FNH:0
DA:16,0
DA:17,0
DA:18,0
DA:25,0
DA:26,0
DA:27,0
DA:41,0
DA:42,0
DA:43,0
DA:51,0
DA:52,0
DA:53,0
DA:60,0
DA:61,0
DA:62,0
DA:69,0
DA:70,0
DA:71,0
DA:79,0
DA:80,0
DA:81,0
DA:89,0
DA:90,0
DA:91,0
DA:99,0
DA:100,0
DA:101,0
DA:109,0
DA:110,0
DA:111,0
DA:118,0
DA:119,0
DA:120,0
DA:122,0
DA:123,0
DA:131,0
DA:132,0
DA:133,0
DA:139,0
DA:140,0
DA:141,0
DA:146,0
DA:147,0
DA:148,0
DA:153,0
DA:154,0
DA:155,0
DA:168,0
DA:169,0
DA:170,0
DA:175,0
DA:176,0
DA:177,0
BRF:0
BRH:0
LF:54
LH:0
end_of_record
SF:/Users/kuangtalin/.cargo/registry/src/index.crates.io-1949cf8c6b5b557f/generic-array-0.14.7/src/iter.rs
FN:136,_RINvXININtCsek14CzwTA2s_13generic_array4iters3_0ppEINtB6_16GenericArrayIterppENtNtNtNtCskumHb0IaX0X_4core4iter6traits8iterator8Iterator4foldppEB8_
FN:211,_RINvXININtCsek14CzwTA2s_13generic_array4iters4_0ppEINtB6_16GenericArrayIterppENtNtNtNtCskumHb0IaX0X_4core4iter6traits12double_ended19DoubleEndedIterator5rfoldppEB8_
FN:149,_RNCINvXININtCsek14CzwTA2s_13generic_array4iters3_0ppEINtB8_16GenericArrayIterppENtNtNtNtCskumHb0IaX0X_4core4iter6traits8iterator8Iterator4foldppE0Ba_
FN:224,_RNCINvXININtCsek14CzwTA2s_13generic_array4iters4_0ppEINtB8_16GenericArrayIterppENtNtNtNtCskumHb0IaX0X_4core4iter6traits12double_ended19DoubleEndedIterator5rfoldppE0Ba_
FN:42,_RNvMNtCsek14CzwTA2s_13generic_array4iterINtB2_16GenericArrayIterppE12as_mut_sliceB4_
FN:36,_RNvMNtCsek14CzwTA2s_13generic_array4iterINtB2_16GenericArrayIterppE8as_sliceB4_
FN:68,_RNvXININtCsek14CzwTA2s_13generic_array4iters0_0ppEINtB5_16GenericArrayIterppENtNtCskumHb0IaX0X_4core3fmt5Debug3fmtB7_
FN:80,_RNvXININtCsek14CzwTA2s_13generic_array4iters1_0ppEINtB5_16GenericArrayIterppENtNtNtCskumHb0IaX0X_4core3ops4drop4Drop4dropB7_
FN:97,_RNvXININtCsek14CzwTA2s_13generic_array4iters2_0ppEINtB5_16GenericArrayIterppENtNtCskumHb0IaX0X_4core5clone5Clone5cloneB7_
FN:175,_RNvXININtCsek14CzwTA2s_13generic_array4iters3_0ppEINtB5_16GenericArrayIterppENtNtNtNtCskumHb0IaX0X_4core4iter6traits8iterator8Iterator3nthB7_
FN:191,_RNvXININtCsek14CzwTA2s_13generic_array4iters3_0ppEINtB5_16GenericArrayIterppENtNtNtNtCskumHb0IaX0X_4core4iter6traits8iterator8Iterator4lastB7_
FN:124,_RNvXININtCsek14CzwTA2s_13generic_array4iters3_0ppEINtB5_16GenericArrayIterppENtNtNtNtCskumHb0IaX0X_4core4iter6traits8iterator8Iterator4nextB7_
FN:171,_RNvXININtCsek14CzwTA2s_13generic_array4iters3_0ppEINtB5_16GenericArrayIterppENtNtNtNtCskumHb0IaX0X_4core4iter6traits8iterator8Iterator5countB7_
FN:165,_RNvXININtCsek14CzwTA2s_13generic_array4iters3_0ppEINtB5_16GenericArrayIterppENtNtNtNtCskumHb0IaX0X_4core4iter6traits8iterator8Iterator9size_hintB7_
FN:201,_RNvXININtCsek14CzwTA2s_13generic_array4iters4_0ppEINtB5_16GenericArrayIterppENtNtNtNtCskumHb0IaX0X_4core4iter6traits12double_ended19DoubleEndedIterator9next_backB7_
FN:244,_RNvXININtCsek14CzwTA2s_13generic_array4iters5_0ppEINtB5_16GenericArrayIterppENtNtNtNtCskumHb0IaX0X_4core4iter6traits10exact_size17ExactSizeIterator3lenB7_
FN:54,_RNvXININtCsek14CzwTA2s_13generic_array4iters_0ppEINtB7_12GenericArrayppENtNtNtNtCskumHb0IaX0X_4core4iter6traits7collect12IntoIterator9into_iterB7_
FNDA:0,_RINvXININtCsek14CzwTA2s_13generic_array4iters3_0ppEINtB6_16GenericArrayIterppENtNtNtNtCskumHb0IaX0X_4core4iter6traits8iterator8Iterator4foldppEB8_
FNDA:0,_RINvXININtCsek14CzwTA2s_13generic_array4iters4_0ppEINtB6_16GenericArrayIterppENtNtNtNtCskumHb0IaX0X_4core4iter6traits12double_ended19DoubleEndedIterator5rfoldppEB8_
FNDA:0,_RNCINvXININtCsek14CzwTA2s_13generic_array4iters3_0ppEINtB8_16GenericArrayIterppENtNtNtNtCskumHb0IaX0X_4core4iter6traits8iterator8Iterator4foldppE0Ba_
FNDA:0,_RNCINvXININtCsek14CzwTA2s_13generic_array4iters4_0ppEINtB8_16GenericArrayIterppENtNtNtNtCskumHb0IaX0X_4core4iter6traits12double_ended19DoubleEndedIterator5rfoldppE0Ba_
FNDA:0,_RNvMNtCsek14CzwTA2s_13generic_array4iterINtB2_16GenericArrayIterppE12as_mut_sliceB4_
FNDA:0,_RNvMNtCsek14CzwTA2s_13generic_array4iterINtB2_16GenericArrayIterppE8as_sliceB4_
FNDA:0,_RNvXININtCsek14CzwTA2s_13generic_array4iters0_0ppEINtB5_16GenericArrayIterppENtNtCskumHb0IaX0X_4core3fmt5Debug3fmtB7_
FNDA:0,_RNvXININtCsek14CzwTA2s_13generic_array4iters1_0ppEINtB5_16GenericArrayIterppENtNtNtCskumHb0IaX0X_4core3ops4drop4Drop4dropB7_
FNDA:0,_RNvXININtCsek14CzwTA2s_13generic_array4iters2_0ppEINtB5_16GenericArrayIterppENtNtCskumHb0IaX0X_4core5clone5Clone5cloneB7_
FNDA:0,_RNvXININtCsek14CzwTA2s_13generic_array4iters3_0ppEINtB5_16GenericArrayIterppENtNtNtNtCskumHb0IaX0X_4core4iter6traits8iterator8Iterator3nthB7_
FNDA:0,_RNvXININtCsek14CzwTA2s_13generic_array4iters3_0ppEINtB5_16GenericArrayIterppENtNtNtNtCskumHb0IaX0X_4core4iter6traits8iterator8Iterator4lastB7_
FNDA:0,_RNvXININtCsek14CzwTA2s_13generic_array4iters3_0ppEINtB5_16GenericArrayIterppENtNtNtNtCskumHb0IaX0X_4core4iter6traits8iterator8Iterator4nextB7_
FNDA:0,_RNvXININtCsek14CzwTA2s_13generic_array4iters3_0ppEINtB5_16GenericArrayIterppENtNtNtNtCskumHb0IaX0X_4core4iter6traits8iterator8Iterator5countB7_
FNDA:0,_RNvXININtCsek14CzwTA2s_13generic_array4iters3_0ppEINtB5_16GenericArrayIterppENtNtNtNtCskumHb0IaX0X_4core4iter6traits8iterator8Iterator9size_hintB7_
FNDA:0,_RNvXININtCsek14CzwTA2s_13generic_array4iters4_0ppEINtB5_16GenericArrayIterppENtNtNtNtCskumHb0IaX0X_4core4iter6traits12double_ended19DoubleEndedIterator9next_backB7_
FNDA:0,_RNvXININtCsek14CzwTA2s_13generic_array4iters5_0ppEINtB5_16GenericArrayIterppENtNtNtNtCskumHb0IaX0X_4core4iter6traits10exact_size17ExactSizeIterator3lenB7_
FNDA:0,_RNvXININtCsek14CzwTA2s_13generic_array4iters_0ppEINtB7_12GenericArrayppENtNtNtNtCskumHb0IaX0X_4core4iter6traits7collect12IntoIterator9into_iterB7_
FNF:17
FNH:0
DA:36,0
DA:37,0
DA:38,0
DA:42,0
DA:43,0
DA:44,0
DA:54,0
DA:55,0
DA:56,0
DA:57,0
DA:58,0
DA:59,0
DA:60,0
DA:68,0
DA:69,0
DA:70,0
DA:71,0
DA:72,0
DA:80,0
DA:81,0
DA:83,0
DA:84,0
DA:85,0
DA:86,0
DA:88,0
DA:89,0
DA:97,0
DA:101,0
DA:102,0
DA:104,0
DA:105,0
DA:106,0
DA:107,0
DA:109,0
DA:110,0
DA:111,0
DA:112,0
DA:113,0
DA:114,0
DA:124,0
DA:125,0
DA:126,0
DA:128,0
DA:130,0
DA:132,0
DA:134,0
DA:136,0
DA:137,0
DA:138,0
DA:140,0
DA:142,0
DA:143,0
DA:144,0
DA:145,0
DA:147,0
DA:149,0
DA:150,0
DA:152,0
DA:154,0
DA:155,0
DA:159,0
DA:161,0
DA:162,0
DA:165,0
DA:166,0
DA:167,0
DA:168,0
DA:171,0
DA:172,0
DA:173,0
DA:175,0
DA:177,0
DA:179,0
DA:180,0
DA:182,0
DA:183,0
DA:184,0
DA:187,0
DA:188,0
DA:191,0
DA:193,0
DA:194,0
DA:201,0
DA:202,0
DA:203,0
DA:205,0
DA:207,0
DA:209,0
DA:211,0
DA:212,0
DA:213,0
DA:215,0
DA:217,0
DA:218,0
DA:219,0
DA:220,0
DA:222,0
DA:224,0
DA:225,0
DA:227,0
DA:229,0
DA:230,0
DA:234,0
DA:236,0
DA:237,0
DA:244,0
DA:245,0
DA:246,0
BRF:0
BRH:0
LF:110
LH:0
end_of_record
SF:/Users/kuangtalin/.cargo/registry/src/index.crates.io-1949cf8c6b5b557f/generic-array-0.14.7/src/lib.rs
FN:653,_RINvCsek14CzwTA2s_13generic_array9transmuteRINtB2_12GenericArrayhINtNtCsdOIG378uWuC_7typenum4uint4UIntIB12_IB12_IB12_IB12_IB12_IB12_NtB14_5UTermNtNtB16_3bit2B1ENtB2k_2B0EB2y_EB2y_EB2y_EB2y_EB2y_EERAhj40_ECs7KSaGTpB2VC_13ed25519_dalek
FN:380,_RINvXsg_Csek14CzwTA2s_13generic_arrayINtB6_12GenericArrayhINtNtCsdOIG378uWuC_7typenum4uint4UIntIBV_IBV_IBV_IBV_IBV_IBV_IBV_NtBX_5UTermNtNtBZ_3bit2B1ENtB2a_2B0EB2n_EB2n_EB2n_EB2n_EB2n_EB2n_EEINtNtB6_8sequence15GenericSequencehE8generateNCNvXNtB6_5implsBz_NtNtCskumHb0IaX0X_4core7default7Default7default0ECs7KSaGTpB2VC_13ed25519_dalek
FN:380,_RINvXsg_Csek14CzwTA2s_13generic_arrayINtB6_12GenericArrayhINtNtCsdOIG378uWuC_7typenum4uint4UIntIBV_IBV_IBV_IBV_IBV_IBV_NtBX_5UTermNtNtBZ_3bit2B1ENtB26_2B0EB2j_EB2j_EB2j_EB2j_EB2j_EEINtNtB6_8sequence15GenericSequencehE8generateNCNvXNtB6_5implsBz_NtNtCskumHb0IaX0X_4core7default7Default7default0ECs7KSaGTpB2VC_13ed25519_dalek
FN:390,_RNCINvXsg_Csek14CzwTA2s_13generic_arrayINtB8_12GenericArrayhINtNtCsdOIG378uWuC_7typenum4uint4UIntIBX_IBX_IBX_IBX_IBX_IBX_IBX_NtBZ_5UTermNtNtB11_3bit2B1ENtB2c_2B0EB2q_EB2q_EB2q_EB2q_EB2q_EB2q_EEINtNtB8_8sequence15GenericSequencehE8generateNCNvXNtB8_5implsBB_NtNtCskumHb0IaX0X_4core7default7Default7default0E0Cs7KSaGTpB2VC_13ed25519_dalek
FN:390,_RNCINvXsg_Csek14CzwTA2s_13generic_arrayINtB8_12GenericArrayhINtNtCsdOIG378uWuC_7typenum4uint4UIntIBX_IBX_IBX_IBX_IBX_IBX_NtBZ_5UTermNtNtB11_3bit2B1ENtB28_2B0EB2m_EB2m_EB2m_EB2m_EB2m_EEINtNtB8_8sequence15GenericSequencehE8generateNCNvXNtB8_5implsBB_NtNtCskumHb0IaX0X_4core7default7Default7default0E0Cs7KSaGTpB2VC_13ed25519_dalek
FN:243,_RNvMs9_Csek14CzwTA2s_13generic_arrayINtB5_12ArrayBuilderhINtNtCsdOIG378uWuC_7typenum4uint4UIntIBU_IBU_IBU_IBU_IBU_IBU_IBU_NtBW_5UTermNtNtBY_3bit2B1ENtB29_2B0EB2m_EB2m_EB2m_EB2m_EB2m_EB2m_EE10into_innerCs7KSaGTpB2VC_13ed25519_dalek
FN:235,_RNvMs9_Csek14CzwTA2s_13generic_arrayINtB5_12ArrayBuilderhINtNtCsdOIG378uWuC_7typenum4uint4UIntIBU_IBU_IBU_IBU_IBU_IBU_IBU_NtBW_5UTermNtNtBY_3bit2B1ENtB29_2B0EB2m_EB2m_EB2m_EB2m_EB2m_EB2m_EE13iter_positionCs7KSaGTpB2VC_13ed25519_dalek
FN:222,_RNvMs9_Csek14CzwTA2s_13generic_arrayINtB5_12ArrayBuilderhINtNtCsdOIG378uWuC_7typenum4uint4UIntIBU_IBU_IBU_IBU_IBU_IBU_IBU_NtBW_5UTermNtNtBY_3bit2B1ENtB29_2B0EB2m_EB2m_EB2m_EB2m_EB2m_EB2m_EE3newCs7KSaGTpB2VC_13ed25519_dalek
FN:243,_RNvMs9_Csek14CzwTA2s_13generic_arrayINtB5_12ArrayBuilderhINtNtCsdOIG378uWuC_7typenum4uint4UIntIBU_IBU_IBU_IBU_IBU_IBU_NtBW_5UTermNtNtBY_3bit2B1ENtB25_2B0EB2i_EB2i_EB2i_EB2i_EB2i_EE10into_innerCs7KSaGTpB2VC_13ed25519_dalek
FN:235,_RNvMs9_Csek14CzwTA2s_13generic_arrayINtB5_12ArrayBuilderhINtNtCsdOIG378uWuC_7typenum4uint4UIntIBU_IBU_IBU_IBU_IBU_IBU_NtBW_5UTermNtNtBY_3bit2B1ENtB25_2B0EB2i_EB2i_EB2i_EB2i_EB2i_EE13iter_positionCs7KSaGTpB2VC_13ed25519_dalek
FN:222,_RNvMs9_Csek14CzwTA2s_13generic_arrayINtB5_12ArrayBuilderhINtNtCsdOIG378uWuC_7typenum4uint4UIntIBU_IBU_IBU_IBU_IBU_IBU_NtBW_5UTermNtNtBY_3bit2B1ENtB25_2B0EB2i_EB2i_EB2i_EB2i_EB2i_EE3newCs7KSaGTpB2VC_13ed25519_dalek
FN:533,_RNvMsj_Csek14CzwTA2s_13generic_arrayINtB5_12GenericArrayhINtNtCsdOIG378uWuC_7typenum4uint4UIntIBU_IBU_IBU_IBU_IBU_IBU_NtBW_5UTermNtNtBY_3bit2B1ENtB25_2B0EB2i_EB2i_EB2i_EB2i_EB2i_EE8as_sliceCs7KSaGTpB2VC_13ed25519_dalek
FN:193,_RNvXs7_Csek14CzwTA2s_13generic_arrayINtB5_12GenericArrayhINtNtCsdOIG378uWuC_7typenum4uint4UIntIBU_IBU_IBU_IBU_IBU_IBU_NtBW_5UTermNtNtBY_3bit2B1ENtB25_2B0EB2i_EB2i_EB2i_EB2i_EB2i_EENtNtNtCskumHb0IaX0X_4core3ops5deref5Deref5derefCs7KSaGTpB2VC_13ed25519_dalek
FN:203,_RNvXs8_Csek14CzwTA2s_13generic_arrayINtB5_12GenericArrayhINtNtCsdOIG378uWuC_7typenum4uint4UIntIBU_IBU_IBU_IBU_IBU_IBU_IBU_NtBW_5UTermNtNtBY_3bit2B1ENtB29_2B0EB2m_EB2m_EB2m_EB2m_EB2m_EB2m_EENtNtNtCskumHb0IaX0X_4core3ops5deref8DerefMut9deref_mutCs7KSaGTpB2VC_13ed25519_dalek
FN:203,_RNvXs8_Csek14CzwTA2s_13generic_arrayINtB5_12GenericArrayhINtNtCsdOIG378uWuC_7typenum4uint4UIntIBU_IBU_IBU_IBU_IBU_IBU_NtBW_5UTermNtNtBY_3bit2B1ENtB25_2B0EB2i_EB2i_EB2i_EB2i_EB2i_EENtNtNtCskumHb0IaX0X_4core3ops5deref8DerefMut9deref_mutCs7KSaGTpB2VC_13ed25519_dalek
FN:253,_RNvXsa_Csek14CzwTA2s_13generic_arrayINtB5_12ArrayBuilderhINtNtCsdOIG378uWuC_7typenum4uint4UIntIBU_IBU_IBU_IBU_IBU_IBU_IBU_NtBW_5UTermNtNtBY_3bit2B1ENtB29_2B0EB2m_EB2m_EB2m_EB2m_EB2m_EB2m_EENtNtNtCskumHb0IaX0X_4core3ops4drop4Drop4dropCs7KSaGTpB2VC_13ed25519_dalek
FN:253,_RNvXsa_Csek14CzwTA2s_13generic_arrayINtB5_12ArrayBuilderhINtNtCsdOIG378uWuC_7typenum4uint4UIntIBU_IBU_IBU_IBU_IBU_IBU_NtBW_5UTermNtNtBY_3bit2B1ENtB25_2B0EB2i_EB2i_EB2i_EB2i_EB2i_EENtNtNtCskumHb0IaX0X_4core3ops4drop4Drop4dropCs7KSaGTpB2VC_13ed25519_dalek
FN:365,_RNvCsek14CzwTA2s_13generic_array21from_iter_length_fail
FN:653,_RINvCsek14CzwTA2s_13generic_array9transmuteppEB2_
FN:615,_RINvMsn_Csek14CzwTA2s_13generic_arrayINtB6_12GenericArrayppE15from_exact_iterpEB6_
FN:335,_RINvXINICsek14CzwTA2s_13generic_arraysf_0ppEINtB6_12GenericArrayppEINtNtNtNtCskumHb0IaX0X_4core4iter6traits7collect12FromIteratorpE9from_iterpEB6_
FN:402,_RINvXINICsek14CzwTA2s_13generic_arraysg_0ppEINtB6_12GenericArrayppEINtNtB6_8sequence15GenericSequencepE12inverted_zippppEB6_
FN:434,_RINvXINICsek14CzwTA2s_13generic_arraysg_0ppEINtB6_12GenericArrayppEINtNtB6_8sequence15GenericSequencepE13inverted_zip2ppppEB6_
FN:380,_RINvXINICsek14CzwTA2s_13generic_arraysg_0ppEINtB6_12GenericArrayppEINtNtB6_8sequence15GenericSequencepE8generatepEB6_
FN:474,_RINvXINICsek14CzwTA2s_13generic_arraysi_0ppEINtB6_12GenericArrayppEINtNtB6_10functional18FunctionalSequencepE3mapppEB6_
FN:496,_RINvXINICsek14CzwTA2s_13generic_arraysi_0ppEINtB6_12GenericArrayppEINtNtB6_10functional18FunctionalSequencepE3zipppppEB6_
FN:507,_RINvXINICsek14CzwTA2s_13generic_arraysi_0ppEINtB6_12GenericArrayppEINtNtB6_10functional18FunctionalSequencepE4foldppEB6_
FN:627,_RNCINvMsn_Csek14CzwTA2s_13generic_arrayINtB8_12GenericArrayppE15from_exact_iterpE0B8_
FN:347,_RNCINvXINICsek14CzwTA2s_13generic_arraysf_0ppEINtB8_12GenericArrayppEINtNtNtNtCskumHb0IaX0X_4core4iter6traits7collect12FromIteratorpE9from_iterpE0B8_
FN:421,_RNCINvXINICsek14CzwTA2s_13generic_arraysg_0ppEINtB8_12GenericArrayppEINtNtB8_8sequence15GenericSequencepE12inverted_zippppE0B8_
FN:449,_RNCINvXINICsek14CzwTA2s_13generic_arraysg_0ppEINtB8_12GenericArrayppEINtNtB8_8sequence15GenericSequencepE13inverted_zip2ppppE0B8_
FN:390,_RNCINvXINICsek14CzwTA2s_13generic_arraysg_0ppEINtB8_12GenericArrayppEINtNtB8_8sequence15GenericSequencepE8generatepE0B8_
FN:485,_RNCINvXINICsek14CzwTA2s_13generic_arraysi_0ppEINtB8_12GenericArrayppEINtNtB8_10functional18FunctionalSequencepE3mapppE0B8_
FN:516,_RNCINvXINICsek14CzwTA2s_13generic_arraysi_0ppEINtB8_12GenericArrayppEINtNtB8_10functional18FunctionalSequencepE4foldppE0B8_
FN:243,_RNvMs9_Csek14CzwTA2s_13generic_arrayINtB5_12ArrayBuilderppE10into_innerB5_
FN:235,_RNvMs9_Csek14CzwTA2s_13generic_arrayINtB5_12ArrayBuilderppE13iter_positionB5_
FN:222,_RNvMs9_Csek14CzwTA2s_13generic_arrayINtB5_12ArrayBuilderppE3newB5_
FN:290,_RNvMsb_Csek14CzwTA2s_13generic_arrayINtB5_13ArrayConsumerppE13iter_positionB5_
FN:277,_RNvMsb_Csek14CzwTA2s_13generic_arrayINtB5_13ArrayConsumerppE3newB5_
FN:549,_RNvMsj_Csek14CzwTA2s_13generic_arrayINtB5_12GenericArrayppE10from_sliceB5_
FN:539,_RNvMsj_Csek14CzwTA2s_13generic_arrayINtB5_12GenericArrayppE12as_mut_sliceB5_
FN:559,_RNvMsj_Csek14CzwTA2s_13generic_arrayINtB5_12GenericArrayppE14from_mut_sliceB5_
FN:533,_RNvMsj_Csek14CzwTA2s_13generic_arrayINtB5_12GenericArrayppE8as_sliceB5_
FN:602,_RNvMsm_Csek14CzwTA2s_13generic_arrayINtB5_12GenericArrayppE16clone_from_sliceB5_
FN:155,_RNvXINICsek14CzwTA2s_13generic_arrays1_0ppEINtB5_19GenericArrayImplOddppENtNtCskumHb0IaX0X_4core5clone5Clone5cloneB5_
FN:193,_RNvXINICsek14CzwTA2s_13generic_arrays7_0ppEINtB5_12GenericArrayppENtNtNtCskumHb0IaX0X_4core3ops5deref5Deref5derefB5_
FN:203,_RNvXINICsek14CzwTA2s_13generic_arrays8_0ppEINtB5_12GenericArrayppENtNtNtCskumHb0IaX0X_4core3ops5deref8DerefMut9deref_mutB5_
FN:133,_RNvXINICsek14CzwTA2s_13generic_arrays_0ppEINtB5_20GenericArrayImplEvenppENtNtCskumHb0IaX0X_4core5clone5Clone5cloneB5_
FN:253,_RNvXINICsek14CzwTA2s_13generic_arraysa_0ppEINtB5_12ArrayBuilderppENtNtNtCskumHb0IaX0X_4core3ops4drop4Drop4dropB5_
FN:296,_RNvXINICsek14CzwTA2s_13generic_arraysc_0ppEINtB5_13ArrayConsumerppENtNtNtCskumHb0IaX0X_4core3ops4drop4Drop4dropB5_
FN:314,_RNvXINICsek14CzwTA2s_13generic_arraysd_0ppERINtB5_12GenericArrayppENtNtNtNtCskumHb0IaX0X_4core4iter6traits7collect12IntoIterator9into_iterB5_
FN:326,_RNvXINICsek14CzwTA2s_13generic_arrayse_0ppEQINtB5_12GenericArrayppENtNtNtNtCskumHb0IaX0X_4core4iter6traits7collect12IntoIterator9into_iterB5_
FN:571,_RNvXINICsek14CzwTA2s_13generic_arraysk_0ppERINtB5_12GenericArrayppEINtNtCskumHb0IaX0X_4core7convert4FromRSpE4fromB5_
FN:585,_RNvXINICsek14CzwTA2s_13generic_arraysl_0ppEQINtB5_12GenericArrayppEINtNtCskumHb0IaX0X_4core7convert4FromQSpE4fromB5_
FNDA:0,_RINvCsek14CzwTA2s_13generic_array9transmuteRINtB2_12GenericArrayhINtNtCsdOIG378uWuC_7typenum4uint4UIntIB12_IB12_IB12_IB12_IB12_IB12_NtB14_5UTermNtNtB16_3bit2B1ENtB2k_2B0EB2y_EB2y_EB2y_EB2y_EB2y_EERAhj40_ECs7KSaGTpB2VC_13ed25519_dalek
FNDA:0,_RINvXsg_Csek14CzwTA2s_13generic_arrayINtB6_12GenericArrayhINtNtCsdOIG378uWuC_7typenum4uint4UIntIBV_IBV_IBV_IBV_IBV_IBV_IBV_NtBX_5UTermNtNtBZ_3bit2B1ENtB2a_2B0EB2n_EB2n_EB2n_EB2n_EB2n_EB2n_EEINtNtB6_8sequence15GenericSequencehE8generateNCNvXNtB6_5implsBz_NtNtCskumHb0IaX0X_4core7default7Default7default0ECs7KSaGTpB2VC_13ed25519_dalek
FNDA:0,_RINvXsg_Csek14CzwTA2s_13generic_arrayINtB6_12GenericArrayhINtNtCsdOIG378uWuC_7typenum4uint4UIntIBV_IBV_IBV_IBV_IBV_IBV_NtBX_5UTermNtNtBZ_3bit2B1ENtB26_2B0EB2j_EB2j_EB2j_EB2j_EB2j_EEINtNtB6_8sequence15GenericSequencehE8generateNCNvXNtB6_5implsBz_NtNtCskumHb0IaX0X_4core7default7Default7default0ECs7KSaGTpB2VC_13ed25519_dalek
FNDA:0,_RNCINvXsg_Csek14CzwTA2s_13generic_arrayINtB8_12GenericArrayhINtNtCsdOIG378uWuC_7typenum4uint4UIntIBX_IBX_IBX_IBX_IBX_IBX_IBX_NtBZ_5UTermNtNtB11_3bit2B1ENtB2c_2B0EB2q_EB2q_EB2q_EB2q_EB2q_EB2q_EEINtNtB8_8sequence15GenericSequencehE8generateNCNvXNtB8_5implsBB_NtNtCskumHb0IaX0X_4core7default7Default7default0E0Cs7KSaGTpB2VC_13ed25519_dalek
FNDA:0,_RNCINvXsg_Csek14CzwTA2s_13generic_arrayINtB8_12GenericArrayhINtNtCsdOIG378uWuC_7typenum4uint4UIntIBX_IBX_IBX_IBX_IBX_IBX_NtBZ_5UTermNtNtB11_3bit2B1ENtB28_2B0EB2m_EB2m_EB2m_EB2m_EB2m_EEINtNtB8_8sequence15GenericSequencehE8generateNCNvXNtB8_5implsBB_NtNtCskumHb0IaX0X_4core7default7Default7default0E0Cs7KSaGTpB2VC_13ed25519_dalek
FNDA:0,_RNvMs9_Csek14CzwTA2s_13generic_arrayINtB5_12ArrayBuilderhINtNtCsdOIG378uWuC_7typenum4uint4UIntIBU_IBU_IBU_IBU_IBU_IBU_IBU_NtBW_5UTermNtNtBY_3bit2B1ENtB29_2B0EB2m_EB2m_EB2m_EB2m_EB2m_EB2m_EE10into_innerCs7KSaGTpB2VC_13ed25519_dalek
FNDA:0,_RNvMs9_Csek14CzwTA2s_13generic_arrayINtB5_12ArrayBuilderhINtNtCsdOIG378uWuC_7typenum4uint4UIntIBU_IBU_IBU_IBU_IBU_IBU_IBU_NtBW_5UTermNtNtBY_3bit2B1ENtB29_2B0EB2m_EB2m_EB2m_EB2m_EB2m_EB2m_EE13iter_positionCs7KSaGTpB2VC_13ed25519_dalek
FNDA:0,_RNvMs9_Csek14CzwTA2s_13generic_arrayINtB5_12ArrayBuilderhINtNtCsdOIG378uWuC_7typenum4uint4UIntIBU_IBU_IBU_IBU_IBU_IBU_IBU_NtBW_5UTermNtNtBY_3bit2B1ENtB29_2B0EB2m_EB2m_EB2m_EB2m_EB2m_EB2m_EE3newCs7KSaGTpB2VC_13ed25519_dalek
FNDA:0,_RNvMs9_Csek14CzwTA2s_13generic_arrayINtB5_12ArrayBuilderhINtNtCsdOIG378uWuC_7typenum4uint4UIntIBU_IBU_IBU_IBU_IBU_IBU_NtBW_5UTermNtNtBY_3bit2B1ENtB25_2B0EB2i_EB2i_EB2i_EB2i_EB2i_EE10into_innerCs7KSaGTpB2VC_13ed25519_dalek
FNDA:0,_RNvMs9_Csek14CzwTA2s_13generic_arrayINtB5_12ArrayBuilderhINtNtCsdOIG378uWuC_7typenum4uint4UIntIBU_IBU_IBU_IBU_IBU_IBU_NtBW_5UTermNtNtBY_3bit2B1ENtB25_2B0EB2i_EB2i_EB2i_EB2i_EB2i_EE13iter_positionCs7KSaGTpB2VC_13ed25519_dalek
FNDA:0,_RNvMs9_Csek14CzwTA2s_13generic_arrayINtB5_12ArrayBuilderhINtNtCsdOIG378uWuC_7typenum4uint4UIntIBU_IBU_IBU_IBU_IBU_IBU_NtBW_5UTermNtNtBY_3bit2B1ENtB25_2B0EB2i_EB2i_EB2i_EB2i_EB2i_EE3newCs7KSaGTpB2VC_13ed25519_dalek
FNDA:0,_RNvMsj_Csek14CzwTA2s_13generic_arrayINtB5_12GenericArrayhINtNtCsdOIG378uWuC_7typenum4uint4UIntIBU_IBU_IBU_IBU_IBU_IBU_NtBW_5UTermNtNtBY_3bit2B1ENtB25_2B0EB2i_EB2i_EB2i_EB2i_EB2i_EE8as_sliceCs7KSaGTpB2VC_13ed25519_dalek
FNDA:0,_RNvXs7_Csek14CzwTA2s_13generic_arrayINtB5_12GenericArrayhINtNtCsdOIG378uWuC_7typenum4uint4UIntIBU_IBU_IBU_IBU_IBU_IBU_NtBW_5UTermNtNtBY_3bit2B1ENtB25_2B0EB2i_EB2i_EB2i_EB2i_EB2i_EENtNtNtCskumHb0IaX0X_4core3ops5deref5Deref5derefCs7KSaGTpB2VC_13ed25519_dalek
FNDA:0,_RNvXs8_Csek14CzwTA2s_13generic_arrayINtB5_12GenericArrayhINtNtCsdOIG378uWuC_7typenum4uint4UIntIBU_IBU_IBU_IBU_IBU_IBU_IBU_NtBW_5UTermNtNtBY_3bit2B1ENtB29_2B0EB2m_EB2m_EB2m_EB2m_EB2m_EB2m_EENtNtNtCskumHb0IaX0X_4core3ops5deref8DerefMut9deref_mutCs7KSaGTpB2VC_13ed25519_dalek
FNDA:0,_RNvXs8_Csek14CzwTA2s_13generic_arrayINtB5_12GenericArrayhINtNtCsdOIG378uWuC_7typenum4uint4UIntIBU_IBU_IBU_IBU_IBU_IBU_NtBW_5UTermNtNtBY_3bit2B1ENtB25_2B0EB2i_EB2i_EB2i_EB2i_EB2i_EENtNtNtCskumHb0IaX0X_4core3ops5deref8DerefMut9deref_mutCs7KSaGTpB2VC_13ed25519_dalek
FNDA:0,_RNvXsa_Csek14CzwTA2s_13generic_arrayINtB5_12ArrayBuilderhINtNtCsdOIG378uWuC_7typenum4uint4UIntIBU_IBU_IBU_IBU_IBU_IBU_IBU_NtBW_5UTermNtNtBY_3bit2B1ENtB29_2B0EB2m_EB2m_EB2m_EB2m_EB2m_EB2m_EENtNtNtCskumHb0IaX0X_4core3ops4drop4Drop4dropCs7KSaGTpB2VC_13ed25519_dalek
FNDA:0,_RNvXsa_Csek14CzwTA2s_13generic_arrayINtB5_12ArrayBuilderhINtNtCsdOIG378uWuC_7typenum4uint4UIntIBU_IBU_IBU_IBU_IBU_IBU_NtBW_5UTermNtNtBY_3bit2B1ENtB25_2B0EB2i_EB2i_EB2i_EB2i_EB2i_EENtNtNtCskumHb0IaX0X_4core3ops4drop4Drop4dropCs7KSaGTpB2VC_13ed25519_dalek
FNDA:0,_RNvCsek14CzwTA2s_13generic_array21from_iter_length_fail
FNDA:0,_RINvCsek14CzwTA2s_13generic_array9transmuteppEB2_
FNDA:0,_RINvMsn_Csek14CzwTA2s_13generic_arrayINtB6_12GenericArrayppE15from_exact_iterpEB6_
FNDA:0,_RINvXINICsek14CzwTA2s_13generic_arraysf_0ppEINtB6_12GenericArrayppEINtNtNtNtCskumHb0IaX0X_4core4iter6traits7collect12FromIteratorpE9from_iterpEB6_
FNDA:0,_RINvXINICsek14CzwTA2s_13generic_arraysg_0ppEINtB6_12GenericArrayppEINtNtB6_8sequence15GenericSequencepE12inverted_zippppEB6_
FNDA:0,_RINvXINICsek14CzwTA2s_13generic_arraysg_0ppEINtB6_12GenericArrayppEINtNtB6_8sequence15GenericSequencepE13inverted_zip2ppppEB6_
FNDA:0,_RINvXINICsek14CzwTA2s_13generic_arraysg_0ppEINtB6_12GenericArrayppEINtNtB6_8sequence15GenericSequencepE8generatepEB6_
FNDA:0,_RINvXINICsek14CzwTA2s_13generic_arraysi_0ppEINtB6_12GenericArrayppEINtNtB6_10functional18FunctionalSequencepE3mapppEB6_
FNDA:0,_RINvXINICsek14CzwTA2s_13generic_arraysi_0ppEINtB6_12GenericArrayppEINtNtB6_10functional18FunctionalSequencepE3zipppppEB6_
FNDA:0,_RINvXINICsek14CzwTA2s_13generic_arraysi_0ppEINtB6_12GenericArrayppEINtNtB6_10functional18FunctionalSequencepE4foldppEB6_
FNDA:0,_RNCINvMsn_Csek14CzwTA2s_13generic_arrayINtB8_12GenericArrayppE15from_exact_iterpE0B8_
FNDA:0,_RNCINvXINICsek14CzwTA2s_13generic_arraysf_0ppEINtB8_12GenericArrayppEINtNtNtNtCskumHb0IaX0X_4core4iter6traits7collect12FromIteratorpE9from_iterpE0B8_
FNDA:0,_RNCINvXINICsek14CzwTA2s_13generic_arraysg_0ppEINtB8_12GenericArrayppEINtNtB8_8sequence15GenericSequencepE12inverted_zippppE0B8_
FNDA:0,_RNCINvXINICsek14CzwTA2s_13generic_arraysg_0ppEINtB8_12GenericArrayppEINtNtB8_8sequence15GenericSequencepE13inverted_zip2ppppE0B8_
FNDA:0,_RNCINvXINICsek14CzwTA2s_13generic_arraysg_0ppEINtB8_12GenericArrayppEINtNtB8_8sequence15GenericSequencepE8generatepE0B8_
FNDA:0,_RNCINvXINICsek14CzwTA2s_13generic_arraysi_0ppEINtB8_12GenericArrayppEINtNtB8_10functional18FunctionalSequencepE3mapppE0B8_
FNDA:0,_RNCINvXINICsek14CzwTA2s_13generic_arraysi_0ppEINtB8_12GenericArrayppEINtNtB8_10functional18FunctionalSequencepE4foldppE0B8_
FNDA:0,_RNvMs9_Csek14CzwTA2s_13generic_arrayINtB5_12ArrayBuilderppE10into_innerB5_
FNDA:0,_RNvMs9_Csek14CzwTA2s_13generic_arrayINtB5_12ArrayBuilderppE13iter_positionB5_
FNDA:0,_RNvMs9_Csek14CzwTA2s_13generic_arrayINtB5_12ArrayBuilderppE3newB5_
FNDA:0,_RNvMsb_Csek14CzwTA2s_13generic_arrayINtB5_13ArrayConsumerppE13iter_positionB5_
FNDA:0,_RNvMsb_Csek14CzwTA2s_13generic_arrayINtB5_13ArrayConsumerppE3newB5_
FNDA:0,_RNvMsj_Csek14CzwTA2s_13generic_arrayINtB5_12GenericArrayppE10from_sliceB5_
FNDA:0,_RNvMsj_Csek14CzwTA2s_13generic_arrayINtB5_12GenericArrayppE12as_mut_sliceB5_
FNDA:0,_RNvMsj_Csek14CzwTA2s_13generic_arrayINtB5_12GenericArrayppE14from_mut_sliceB5_
FNDA:0,_RNvMsj_Csek14CzwTA2s_13generic_arrayINtB5_12GenericArrayppE8as_sliceB5_
FNDA:0,_RNvMsm_Csek14CzwTA2s_13generic_arrayINtB5_12GenericArrayppE16clone_from_sliceB5_
FNDA:0,_RNvXINICsek14CzwTA2s_13generic_arrays1_0ppEINtB5_19GenericArrayImplOddppENtNtCskumHb0IaX0X_4core5clone5Clone5cloneB5_
FNDA:0,_RNvXINICsek14CzwTA2s_13generic_arrays7_0ppEINtB5_12GenericArrayppENtNtNtCskumHb0IaX0X_4core3ops5deref5Deref5derefB5_
FNDA:0,_RNvXINICsek14CzwTA2s_13generic_arrays8_0ppEINtB5_12GenericArrayppENtNtNtCskumHb0IaX0X_4core3ops5deref8DerefMut9deref_mutB5_
FNDA:0,_RNvXINICsek14CzwTA2s_13generic_arrays_0ppEINtB5_20GenericArrayImplEvenppENtNtCskumHb0IaX0X_4core5clone5Clone5cloneB5_
FNDA:0,_RNvXINICsek14CzwTA2s_13generic_arraysa_0ppEINtB5_12ArrayBuilderppENtNtNtCskumHb0IaX0X_4core3ops4drop4Drop4dropB5_
FNDA:0,_RNvXINICsek14CzwTA2s_13generic_arraysc_0ppEINtB5_13ArrayConsumerppENtNtNtCskumHb0IaX0X_4core3ops4drop4Drop4dropB5_
FNDA:0,_RNvXINICsek14CzwTA2s_13generic_arraysd_0ppERINtB5_12GenericArrayppENtNtNtNtCskumHb0IaX0X_4core4iter6traits7collect12IntoIterator9into_iterB5_
FNDA:0,_RNvXINICsek14CzwTA2s_13generic_arrayse_0ppEQINtB5_12GenericArrayppENtNtNtNtCskumHb0IaX0X_4core4iter6traits7collect12IntoIterator9into_iterB5_
FNDA:0,_RNvXINICsek14CzwTA2s_13generic_arraysk_0ppERINtB5_12GenericArrayppEINtNtCskumHb0IaX0X_4core7convert4FromRSpE4fromB5_
FNDA:0,_RNvXINICsek14CzwTA2s_13generic_arraysl_0ppEQINtB5_12GenericArrayppEINtNtCskumHb0IaX0X_4core7convert4FromQSpE4fromB5_
FNF:37
FNH:0
DA:133,0
DA:134,0
DA:135,0
DA:136,0
DA:137,0
DA:138,0
DA:139,0
DA:155,0
DA:156,0
DA:157,0
DA:158,0
DA:159,0
DA:160,0
DA:161,0
DA:193,0
DA:194,0
DA:195,0
DA:203,0
DA:204,0
DA:205,0
DA:222,0
DA:223,0
DA:224,0
DA:225,0
DA:226,0
DA:227,0
DA:235,0
DA:236,0
DA:237,0
DA:243,0
DA:244,0
DA:246,0
DA:248,0
DA:249,0
DA:253,0
DA:254,0
DA:256,0
DA:257,0
DA:258,0
DA:260,0
DA:261,0
DA:277,0
DA:278,0
DA:279,0
DA:280,0
DA:281,0
DA:282,0
DA:290,0
DA:291,0
DA:292,0
DA:296,0
DA:297,0
DA:298,0
DA:299,0
DA:300,0
DA:301,0
DA:303,0
DA:304,0
DA:314,0
DA:315,0
DA:316,0
DA:326,0
DA:327,0
DA:328,0
DA:335,0
DA:336,0
DA:337,0
DA:340,0
DA:343,0
DA:345,0
DA:346,0
DA:347,0
DA:348,0
DA:350,0
DA:351,0
DA:354,0
DA:355,0
DA:356,0
DA:358,0
DA:360,0
DA:365,0
DA:366,0
DA:380,0
DA:381,0
DA:382,0
DA:385,0
DA:388,0
DA:390,0
DA:391,0
DA:393,0
DA:394,0
DA:397,0
DA:399,0
DA:402,0
DA:403,0
DA:404,0
DA:405,0
DA:406,0
DA:407,0
DA:408,0
DA:409,0
DA:410,0
DA:411,0
DA:412,0
DA:415,0
DA:416,0
DA:418,0
DA:419,0
DA:421,0
DA:422,0
DA:423,0
DA:425,0
DA:426,0
DA:428,0
DA:429,0
DA:431,0
DA:434,0
DA:435,0
DA:436,0
DA:437,0
DA:438,0
DA:439,0
DA:442,0
DA:444,0
DA:446,0
DA:447,0
DA:448,0
DA:449,0
DA:450,0
DA:452,0
DA:454,0
DA:455,0
DA:458,0
DA:474,0
DA:475,0
DA:476,0
DA:477,0
DA:478,0
DA:481,0
DA:483,0
DA:485,0
DA:486,0
DA:488,0
DA:490,0
DA:491,0
DA:493,0
DA:496,0
DA:497,0
DA:498,0
DA:499,0
DA:500,0
DA:501,0
DA:502,0
DA:504,0
DA:505,0
DA:507,0
DA:508,0
DA:509,0
DA:512,0
DA:514,0
DA:516,0
DA:517,0
DA:519,0
DA:521,0
DA:522,0
DA:524,0
DA:533,0
DA:534,0
DA:535,0
DA:539,0
DA:540,0
DA:541,0
DA:549,0
DA:550,0
DA:551,0
DA:559,0
DA:560,0
DA:561,0
DA:571,0
DA:572,0
DA:574,0
DA:575,0
DA:585,0
DA:586,0
DA:588,0
DA:589,0
DA:602,0
DA:603,0
DA:604,0
DA:605,0
DA:615,0
DA:616,0
DA:617,0
DA:619,0
DA:622,0
DA:625,0
DA:627,0
DA:628,0
DA:630,0
DA:631,0
DA:634,0
DA:635,0
DA:636,0
DA:639,0
DA:640,0
DA:641,0
DA:644,0
DA:646,0
DA:653,0
DA:654,0
DA:655,0
DA:656,0
BRF:0
BRH:0
LF:219
LH:0
end_of_record
SF:/Users/kuangtalin/.cargo/registry/src/index.crates.io-1949cf8c6b5b557f/generic-array-0.14.7/src/sequence.rs
FN:83,_RINvXININtCsek14CzwTA2s_13generic_array8sequence0ppERpINtB6_15GenericSequencepE8generatepEB8_
FN:99,_RINvXININtCsek14CzwTA2s_13generic_array8sequences_0ppEQpINtB6_15GenericSequencepE8generatepEB8_
FN:28,_RINvYpINtNtCsek14CzwTA2s_13generic_array8sequence15GenericSequencepE12inverted_zippppEB9_
FN:58,_RINvYpINtNtCsek14CzwTA2s_13generic_array8sequence15GenericSequencepE13inverted_zip2ppppEB9_
FN:46,_RNCINvYpINtNtCsek14CzwTA2s_13generic_array8sequence15GenericSequencepE12inverted_zippppE0Bb_
FN:65,_RNCINvYpINtNtCsek14CzwTA2s_13generic_array8sequence15GenericSequencepE13inverted_zip2ppppE0Bb_
FN:199,_RNvXININtCsek14CzwTA2s_13generic_array8sequences0_0ppEINtB7_12GenericArrayppEINtB5_8LengthenpE6appendB7_
FN:215,_RNvXININtCsek14CzwTA2s_13generic_array8sequences0_0ppEINtB7_12GenericArrayppEINtB5_8LengthenpE7prependB7_
FN:241,_RNvXININtCsek14CzwTA2s_13generic_array8sequences1_0ppEINtB7_12GenericArrayppEINtB5_7ShortenpE8pop_backB7_
FN:252,_RNvXININtCsek14CzwTA2s_13generic_array8sequences1_0ppEINtB7_12GenericArrayppEINtB5_7ShortenpE9pop_frontB7_
FN:289,_RNvXININtCsek14CzwTA2s_13generic_array8sequences2_0pppEINtB7_12GenericArrayppEINtB5_5SplitppE5splitB7_
FN:312,_RNvXININtCsek14CzwTA2s_13generic_array8sequences3_0pppERINtB7_12GenericArrayppEINtB5_5SplitppE5splitB7_
FN:332,_RNvXININtCsek14CzwTA2s_13generic_array8sequences4_0pppEQINtB7_12GenericArrayppEINtB5_5SplitppE5splitB7_
FN:366,_RNvXININtCsek14CzwTA2s_13generic_array8sequences5_0pppEINtB7_12GenericArrayppEINtB5_6ConcatppE6concatB7_
FNDA:0,_RINvXININtCsek14CzwTA2s_13generic_array8sequence0ppERpINtB6_15GenericSequencepE8generatepEB8_
FNDA:0,_RINvXININtCsek14CzwTA2s_13generic_array8sequences_0ppEQpINtB6_15GenericSequencepE8generatepEB8_
FNDA:0,_RINvYpINtNtCsek14CzwTA2s_13generic_array8sequence15GenericSequencepE12inverted_zippppEB9_
FNDA:0,_RINvYpINtNtCsek14CzwTA2s_13generic_array8sequence15GenericSequencepE13inverted_zip2ppppEB9_
FNDA:0,_RNCINvYpINtNtCsek14CzwTA2s_13generic_array8sequence15GenericSequencepE12inverted_zippppE0Bb_
FNDA:0,_RNCINvYpINtNtCsek14CzwTA2s_13generic_array8sequence15GenericSequencepE13inverted_zip2ppppE0Bb_
FNDA:0,_RNvXININtCsek14CzwTA2s_13generic_array8sequences0_0ppEINtB7_12GenericArrayppEINtB5_8LengthenpE6appendB7_
FNDA:0,_RNvXININtCsek14CzwTA2s_13generic_array8sequences0_0ppEINtB7_12GenericArrayppEINtB5_8LengthenpE7prependB7_
FNDA:0,_RNvXININtCsek14CzwTA2s_13generic_array8sequences1_0ppEINtB7_12GenericArrayppEINtB5_7ShortenpE8pop_backB7_
FNDA:0,_RNvXININtCsek14CzwTA2s_13generic_array8sequences1_0ppEINtB7_12GenericArrayppEINtB5_7ShortenpE9pop_frontB7_
FNDA:0,_RNvXININtCsek14CzwTA2s_13generic_array8sequences2_0pppEINtB7_12GenericArrayppEINtB5_5SplitppE5splitB7_
FNDA:0,_RNvXININtCsek14CzwTA2s_13generic_array8sequences3_0pppERINtB7_12GenericArrayppEINtB5_5SplitppE5splitB7_
FNDA:0,_RNvXININtCsek14CzwTA2s_13generic_array8sequences4_0pppEQINtB7_12GenericArrayppEINtB5_5SplitppE5splitB7_
FNDA:0,_RNvXININtCsek14CzwTA2s_13generic_array8sequences5_0pppEINtB7_12GenericArrayppEINtB5_6ConcatppE6concatB7_
FNF:14
FNH:0
DA:28,0
DA:29,0
DA:30,0
DA:31,0
DA:32,0
DA:33,0
DA:34,0
DA:35,0
DA:36,0
DA:37,0
DA:38,0
DA:41,0
DA:43,0
DA:45,0
DA:46,0
DA:47,0
DA:49,0
DA:51,0
DA:52,0
DA:55,0
DA:58,0
DA:59,0
DA:60,0
DA:61,0
DA:62,0
DA:63,0
DA:65,0
DA:66,0
DA:83,0
DA:84,0
DA:85,0
DA:87,0
DA:88,0
DA:99,0
DA:100,0
DA:101,0
DA:103,0
DA:104,0
DA:199,0
DA:200,0
DA:203,0
DA:207,0
DA:209,0
DA:211,0
DA:213,0
DA:215,0
DA:216,0
DA:219,0
DA:223,0
DA:225,0
DA:227,0
DA:229,0
DA:241,0
DA:242,0
DA:245,0
DA:246,0
DA:248,0
DA:250,0
DA:252,0
DA:254,0
DA:257,0
DA:258,0
DA:260,0
DA:262,0
DA:289,0
DA:292,0
DA:294,0
DA:295,0
DA:297,0
DA:299,0
DA:312,0
DA:314,0
DA:315,0
DA:316,0
DA:317,0
DA:319,0
DA:332,0
DA:334,0
DA:335,0
DA:336,0
DA:337,0
DA:339,0
DA:366,0
DA:367,0
DA:369,0
DA:373,0
DA:375,0
DA:377,0
DA:379,0
BRF:0
BRH:0
LF:90
LH:0
end_of_record
SF:/Users/kuangtalin/.cargo/registry/src/index.crates.io-1949cf8c6b5b557f/getrandom-0.2.17/src/error.rs
FN:109,_RNCNvNtCskKXRD5d48BC_9getrandom5error6os_err0B5_
FN:74,_RNvMNtCskKXRD5d48BC_9getrandom5errorNtB2_5Error12raw_os_errorB4_
FN:160,_RNvNtCskKXRD5d48BC_9getrandom5error13internal_desc
FN:20,_RNvNtCskKXRD5d48BC_9getrandom5error14internal_error
FN:101,_RNvNtCskKXRD5d48BC_9getrandom5error6os_err
FN:139,_RNvXs0_NtCskKXRD5d48BC_9getrandom5errorNtB5_5ErrorNtNtCskumHb0IaX0X_4core3fmt7Display3fmt
FN:155,_RNvXs1_NtCskKXRD5d48BC_9getrandom5errorNtB5_5ErrorINtNtCskumHb0IaX0X_4core7convert4FromINtNtNtBR_3num7nonzero7NonZeromEE4from
FN:120,_RNvXs_NtCskKXRD5d48BC_9getrandom5errorNtB4_5ErrorNtNtCskumHb0IaX0X_4core3fmt5Debug3fmt
FN:94,_RNvMNtCskKXRD5d48BC_9getrandom5errorNtB2_5Error4codeB4_
FNDA:0,_RNCNvNtCskKXRD5d48BC_9getrandom5error6os_err0B5_
FNDA:0,_RNvMNtCskKXRD5d48BC_9getrandom5errorNtB2_5Error12raw_os_errorB4_
FNDA:0,_RNvNtCskKXRD5d48BC_9getrandom5error13internal_desc
FNDA:0,_RNvNtCskKXRD5d48BC_9getrandom5error14internal_error
FNDA:0,_RNvNtCskKXRD5d48BC_9getrandom5error6os_err
FNDA:0,_RNvXs0_NtCskKXRD5d48BC_9getrandom5errorNtB5_5ErrorNtNtCskumHb0IaX0X_4core3fmt7Display3fmt
FNDA:0,_RNvXs1_NtCskKXRD5d48BC_9getrandom5errorNtB5_5ErrorINtNtCskumHb0IaX0X_4core7convert4FromINtNtNtBR_3num7nonzero7NonZeromEE4from
FNDA:0,_RNvXs_NtCskKXRD5d48BC_9getrandom5errorNtB4_5ErrorNtNtCskumHb0IaX0X_4core3fmt5Debug3fmt
FNDA:0,_RNvMNtCskKXRD5d48BC_9getrandom5errorNtB2_5Error4codeB4_
FNF:9
FNH:0
DA:20,0
DA:22,0
DA:23,0
DA:24,0
DA:74,0
DA:75,0
DA:76,0
DA:82,0
DA:85,0
DA:87,0
DA:94,0
DA:95,0
DA:96,0
DA:101,0
DA:102,0
DA:103,0
DA:104,0
DA:105,0
DA:108,0
DA:109,0
DA:110,0
DA:111,0
DA:120,0
DA:121,0
DA:122,0
DA:123,0
DA:124,0
DA:125,0
DA:126,0
DA:127,0
DA:128,0
DA:129,0
DA:130,0
DA:131,0
DA:132,0
DA:133,0
DA:134,0
DA:135,0
DA:139,0
DA:140,0
DA:141,0
DA:142,0
DA:143,0
DA:144,0
DA:146,0
DA:147,0
DA:149,0
DA:151,0
DA:155,0
DA:156,0
DA:157,0
DA:160,0
DA:161,0
DA:162,0
DA:163,0
DA:164,0
DA:165,0
DA:166,0
DA:167,0
DA:168,0
DA:169,0
DA:170,0
DA:171,0
DA:172,0
DA:173,0
DA:174,0
DA:175,0
DA:177,0
BRF:0
BRH:0
LF:69
LH:0
end_of_record
SF:/Users/kuangtalin/.cargo/registry/src/index.crates.io-1949cf8c6b5b557f/getrandom-0.2.17/src/error_impls.rs
FN:7,_RNvXNtCskKXRD5d48BC_9getrandom11error_implsNtNtNtCsfiKLhsWjRsE_3std2io5error5ErrorINtNtCskumHb0IaX0X_4core7convert4FromNtNtB4_5error5ErrorE4from
FNDA:0,_RNvXNtCskKXRD5d48BC_9getrandom11error_implsNtNtNtCsfiKLhsWjRsE_3std2io5error5ErrorINtNtCskumHb0IaX0X_4core7convert4FromNtNtB4_5error5ErrorE4from
FNF:1
FNH:0
DA:7,0
DA:8,0
DA:9,0
DA:10,0
DA:12,0
BRF:0
BRH:0
LF:5
LH:0
end_of_record
SF:/Users/kuangtalin/.cargo/registry/src/index.crates.io-1949cf8c6b5b557f/getrandom-0.2.17/src/getentropy.rs
FN:13,_RNvNtCskKXRD5d48BC_9getrandom3imp15getrandom_inner
FNDA:0,_RNvNtCskKXRD5d48BC_9getrandom3imp15getrandom_inner
FNF:1
FNH:0
DA:13,0
DA:14,0
DA:15,0
DA:16,0
DA:17,0
DA:18,0
DA:20,0
DA:21,0
BRF:0
BRH:0
LF:8
LH:0
end_of_record
SF:/Users/kuangtalin/.cargo/registry/src/index.crates.io-1949cf8c6b5b557f/getrandom-0.2.17/src/lib.rs
FN:400,_RNvCskKXRD5d48BC_9getrandom16getrandom_uninitCsgaIhVA4beSB_9rand_core
FN:370,_RNvCskKXRD5d48BC_9getrandom9getrandomCsgaIhVA4beSB_9rand_core
FN:400,_RNvCskKXRD5d48BC_9getrandom16getrandom_uninitB1_
FN:370,_RNvCskKXRD5d48BC_9getrandom9getrandomB1_
FNDA:0,_RNvCskKXRD5d48BC_9getrandom16getrandom_uninitCsgaIhVA4beSB_9rand_core
FNDA:0,_RNvCskKXRD5d48BC_9getrandom9getrandomCsgaIhVA4beSB_9rand_core
FNDA:0,_RNvCskKXRD5d48BC_9getrandom16getrandom_uninitB1_
FNDA:0,_RNvCskKXRD5d48BC_9getrandom9getrandomB1_
FNF:2
FNH:0
DA:370,0
DA:374,0
DA:375,0
DA:376,0
DA:400,0
DA:401,0
DA:402,0
DA:403,0
DA:406,0
DA:407,0
BRF:0
BRH:0
LF:10
LH:0
end_of_record
SF:/Users/kuangtalin/.cargo/registry/src/index.crates.io-1949cf8c6b5b557f/getrandom-0.2.17/src/util.rs
FN:32,_RINvNtCskKXRD5d48BC_9getrandom4util19slice_as_uninit_muthECsgaIhVA4beSB_9rand_core
FN:8,_RINvNtCskKXRD5d48BC_9getrandom4util21slice_assume_init_muthECsgaIhVA4beSB_9rand_core
FN:20,_RINvNtCskKXRD5d48BC_9getrandom4util15slice_as_uninitpEB4_
FN:32,_RINvNtCskKXRD5d48BC_9getrandom4util19slice_as_uninit_mutpEB4_
FN:8,_RINvNtCskKXRD5d48BC_9getrandom4util21slice_assume_init_mutpEB4_
FN:14,_RNvNtCskKXRD5d48BC_9getrandom4util22uninit_slice_fill_zeroB3_
FNDA:0,_RINvNtCskKXRD5d48BC_9getrandom4util19slice_as_uninit_muthECsgaIhVA4beSB_9rand_core
FNDA:0,_RINvNtCskKXRD5d48BC_9getrandom4util21slice_assume_init_muthECsgaIhVA4beSB_9rand_core
FNDA:0,_RINvNtCskKXRD5d48BC_9getrandom4util15slice_as_uninitpEB4_
FNDA:0,_RINvNtCskKXRD5d48BC_9getrandom4util19slice_as_uninit_mutpEB4_
FNDA:0,_RINvNtCskKXRD5d48BC_9getrandom4util21slice_assume_init_mutpEB4_
FNDA:0,_RNvNtCskKXRD5d48BC_9getrandom4util22uninit_slice_fill_zeroB3_
FNF:4
FNH:0
DA:8,0
DA:10,0
DA:11,0
DA:14,0
DA:15,0
DA:16,0
DA:17,0
DA:20,0
DA:24,0
DA:25,0
DA:32,0
DA:34,0
DA:35,0
BRF:0
BRH:0
LF:13
LH:0
end_of_record
SF:/Users/kuangtalin/.cargo/registry/src/index.crates.io-1949cf8c6b5b557f/getrandom-0.2.17/src/util_libc.rs
FN:43,_RNvNtCskKXRD5d48BC_9getrandom9util_libc13last_os_error
FN:39,_RNvNtCskKXRD5d48BC_9getrandom9util_libc9get_errno
FN:55,_RINvNtCskKXRD5d48BC_9getrandom9util_libc14sys_fill_exactpEB4_
FN:100,_RNvMNtCskKXRD5d48BC_9getrandom9util_libcNtB2_4Weak3new
FN:111,_RNvMNtCskKXRD5d48BC_9getrandom9util_libcNtB2_4Weak3ptr
FN:136,_RNvNtCskKXRD5d48BC_9getrandom9util_libc13open_readonly
FNDA:0,_RNvNtCskKXRD5d48BC_9getrandom9util_libc13last_os_error
FNDA:0,_RNvNtCskKXRD5d48BC_9getrandom9util_libc9get_errno
FNDA:0,_RINvNtCskKXRD5d48BC_9getrandom9util_libc14sys_fill_exactpEB4_
FNDA:0,_RNvMNtCskKXRD5d48BC_9getrandom9util_libcNtB2_4Weak3new
FNDA:0,_RNvMNtCskKXRD5d48BC_9getrandom9util_libcNtB2_4Weak3ptr
FNDA:0,_RNvNtCskKXRD5d48BC_9getrandom9util_libc13open_readonly
FNF:6
FNH:0
DA:39,0
DA:43,0
DA:44,0
DA:45,0
DA:46,0
DA:48,0
DA:50,0
DA:55,0
DA:56,0
DA:57,0
DA:58,0
DA:59,0
DA:60,0
DA:61,0
DA:62,0
DA:64,0
DA:66,0
DA:67,0
DA:68,0
DA:73,0
DA:76,0
DA:77,0
DA:100,0
DA:101,0
DA:102,0
DA:103,0
DA:104,0
DA:105,0
DA:111,0
DA:118,0
DA:119,0
DA:120,0
DA:121,0
DA:123,0
DA:124,0
DA:126,0
DA:127,0
DA:128,0
DA:129,0
DA:132,0
DA:136,0
DA:137,0
DA:139,0
DA:140,0
DA:141,0
DA:142,0
DA:143,0
DA:145,0
DA:146,0
DA:147,0
DA:149,0
BRF:0
BRH:0
LF:51
LH:0
end_of_record
SF:/Users/kuangtalin/.cargo/registry/src/index.crates.io-1949cf8c6b5b557f/getrandom-0.3.4/src/backends/../util_libc.rs
FN:36,_RNvNtNtNtCs5XmxUzDHqcG_9getrandom8backends10getentropy9util_libc13last_os_error
FN:32,_RNvNtNtNtCs5XmxUzDHqcG_9getrandom8backends10getentropy9util_libc9get_errno
FN:56,_RINvNtNtNtCs5XmxUzDHqcG_9getrandom8backends10getentropy9util_libc14sys_fill_exactpEB8_
FNDA:0,_RNvNtNtNtCs5XmxUzDHqcG_9getrandom8backends10getentropy9util_libc13last_os_error
FNDA:0,_RNvNtNtNtCs5XmxUzDHqcG_9getrandom8backends10getentropy9util_libc9get_errno
FNDA:0,_RINvNtNtNtCs5XmxUzDHqcG_9getrandom8backends10getentropy9util_libc14sys_fill_exactpEB8_
FNF:3
FNH:0
DA:32,0
DA:36,0
DA:38,0
DA:40,0
DA:41,0
DA:42,0
DA:43,0
DA:44,0
DA:46,0
DA:48,0
DA:56,0
DA:57,0
DA:58,0
DA:59,0
DA:60,0
DA:61,0
DA:62,0
DA:63,0
DA:64,0
DA:65,0
DA:68,0
DA:70,0
DA:71,0
DA:72,0
DA:77,0
DA:80,0
DA:81,0
BRF:0
BRH:0
LF:27
LH:0
end_of_record
SF:/Users/kuangtalin/.cargo/registry/src/index.crates.io-1949cf8c6b5b557f/getrandom-0.3.4/src/backends/getentropy.rs
FN:19,_RNvNtNtCs5XmxUzDHqcG_9getrandom8backends10getentropy10fill_innerCselVtgDpzSu1_4cdDB
FN:19,_RNvNtNtCs5XmxUzDHqcG_9getrandom8backends10getentropy10fill_innerB5_
FNDA:0,_RNvNtNtCs5XmxUzDHqcG_9getrandom8backends10getentropy10fill_innerCselVtgDpzSu1_4cdDB
FNDA:0,_RNvNtNtCs5XmxUzDHqcG_9getrandom8backends10getentropy10fill_innerB5_
FNF:1
FNH:0
DA:19,0
DA:20,0
DA:21,0
DA:22,0
DA:23,0
DA:24,0
DA:26,0
DA:27,0
BRF:0
BRH:0
LF:8
LH:0
end_of_record
SF:/Users/kuangtalin/.cargo/registry/src/index.crates.io-1949cf8c6b5b557f/getrandom-0.3.4/src/error.rs
FN:126,_RNvMNtCs5XmxUzDHqcG_9getrandom5errorNtB2_5Error10new_custom
FN:133,_RNvMNtCs5XmxUzDHqcG_9getrandom5errorNtB2_5Error12new_internal
FN:88,_RNvMNtCs5XmxUzDHqcG_9getrandom5errorNtB2_5Error12raw_os_errorB4_
FN:139,_RNvMNtCs5XmxUzDHqcG_9getrandom5errorNtB2_5Error13internal_desc
FN:54,_RNvMNtCs5XmxUzDHqcG_9getrandom5errorNtB2_5Error19from_neg_error_code
FN:197,_RNvXs0_NtCs5XmxUzDHqcG_9getrandom5errorNtB5_5ErrorNtNtCskumHb0IaX0X_4core3fmt7Display3fmt
FN:180,_RNvXs_NtCs5XmxUzDHqcG_9getrandom5errorNtB4_5ErrorNtNtCskumHb0IaX0X_4core3fmt5Debug3fmt
FNDA:0,_RNvMNtCs5XmxUzDHqcG_9getrandom5errorNtB2_5Error10new_custom
FNDA:0,_RNvMNtCs5XmxUzDHqcG_9getrandom5errorNtB2_5Error12new_internal
FNDA:0,_RNvMNtCs5XmxUzDHqcG_9getrandom5errorNtB2_5Error12raw_os_errorB4_
FNDA:0,_RNvMNtCs5XmxUzDHqcG_9getrandom5errorNtB2_5Error13internal_desc
FNDA:0,_RNvMNtCs5XmxUzDHqcG_9getrandom5errorNtB2_5Error19from_neg_error_code
FNDA:0,_RNvXs0_NtCs5XmxUzDHqcG_9getrandom5errorNtB5_5ErrorNtNtCskumHb0IaX0X_4core3fmt7Display3fmt
FNDA:0,_RNvXs_NtCs5XmxUzDHqcG_9getrandom5errorNtB4_5ErrorNtNtCskumHb0IaX0X_4core3fmt5Debug3fmt
FNF:7
FNH:0
DA:54,0
DA:55,0
DA:56,0
DA:57,0
DA:59,0
DA:61,0
DA:88,0
DA:89,0
DA:115,0
DA:116,0
DA:117,0
DA:118,0
DA:120,0
DA:123,0
DA:126,0
DA:128,0
DA:129,0
DA:130,0
DA:133,0
DA:135,0
DA:136,0
DA:137,0
DA:139,0
DA:140,0
DA:141,0
DA:142,0
DA:143,0
DA:173,0
DA:175,0
DA:176,0
DA:180,0
DA:181,0
DA:182,0
DA:183,0
DA:184,0
DA:185,0
DA:186,0
DA:187,0
DA:188,0
DA:189,0
DA:190,0
DA:191,0
DA:192,0
DA:193,0
DA:197,0
DA:198,0
DA:203,0
DA:206,0
DA:207,0
DA:209,0
DA:211,0
BRF:0
BRH:0
LF:51
LH:0
end_of_record
SF:/Users/kuangtalin/.cargo/registry/src/index.crates.io-1949cf8c6b5b557f/getrandom-0.3.4/src/lib.rs
FN:97,_RNvCs5XmxUzDHqcG_9getrandom11fill_uninitCselVtgDpzSu1_4cdDB
FN:66,_RNvCs5XmxUzDHqcG_9getrandom4fillCselVtgDpzSu1_4cdDB
FN:97,_RNvCs5XmxUzDHqcG_9getrandom11fill_uninitB1_
FN:122,_RNvCs5XmxUzDHqcG_9getrandom3u32B1_
FN:136,_RNvCs5XmxUzDHqcG_9getrandom3u64B1_
FN:66,_RNvCs5XmxUzDHqcG_9getrandom4fillB1_
FNDA:0,_RNvCs5XmxUzDHqcG_9getrandom11fill_uninitCselVtgDpzSu1_4cdDB
FNDA:0,_RNvCs5XmxUzDHqcG_9getrandom4fillCselVtgDpzSu1_4cdDB
FNDA:0,_RNvCs5XmxUzDHqcG_9getrandom11fill_uninitB1_
FNDA:0,_RNvCs5XmxUzDHqcG_9getrandom3u32B1_
FNDA:0,_RNvCs5XmxUzDHqcG_9getrandom3u64B1_
FNDA:0,_RNvCs5XmxUzDHqcG_9getrandom4fillB1_
FNF:4
FNH:0
DA:66,0
DA:70,0
DA:71,0
DA:72,0
DA:97,0
DA:98,0
DA:99,0
DA:100,0
DA:109,0
DA:110,0
DA:122,0
DA:123,0
DA:124,0
DA:136,0
DA:137,0
DA:138,0
BRF:0
BRH:0
LF:16
LH:0
end_of_record
SF:/Users/kuangtalin/.cargo/registry/src/index.crates.io-1949cf8c6b5b557f/getrandom-0.3.4/src/util.rs
FN:35,_RINvNtCs5XmxUzDHqcG_9getrandom4util19slice_as_uninit_muthECselVtgDpzSu1_4cdDB
FN:10,_RINvNtCs5XmxUzDHqcG_9getrandom4util21slice_assume_init_muthECselVtgDpzSu1_4cdDB
FN:42,_RINvNtCs5XmxUzDHqcG_9getrandom4util12ptr_from_mutSINtNtNtCskumHb0IaX0X_4core3mem12maybe_uninit11MaybeUninithEECselVtgDpzSu1_4cdDB
FN:42,_RINvNtCs5XmxUzDHqcG_9getrandom4util12ptr_from_mutShECselVtgDpzSu1_4cdDB
FN:42,_RINvNtCs5XmxUzDHqcG_9getrandom4util12ptr_from_mutpEB4_
FN:47,_RINvNtCs5XmxUzDHqcG_9getrandom4util12ptr_from_refpEB4_
FN:23,_RINvNtCs5XmxUzDHqcG_9getrandom4util15slice_as_uninitpEB4_
FN:35,_RINvNtCs5XmxUzDHqcG_9getrandom4util19slice_as_uninit_mutpEB4_
FN:10,_RINvNtCs5XmxUzDHqcG_9getrandom4util21slice_assume_init_mutpEB4_
FN:17,_RNvNtCs5XmxUzDHqcG_9getrandom4util22uninit_slice_fill_zeroB3_
FN:82,_RNvNtCs5XmxUzDHqcG_9getrandom4util8truncate
FN:53,_RNvNtCs5XmxUzDHqcG_9getrandom4util9inner_u32B3_
FN:68,_RNvNtCs5XmxUzDHqcG_9getrandom4util9inner_u64B3_
FNDA:0,_RINvNtCs5XmxUzDHqcG_9getrandom4util19slice_as_uninit_muthECselVtgDpzSu1_4cdDB
FNDA:0,_RINvNtCs5XmxUzDHqcG_9getrandom4util21slice_assume_init_muthECselVtgDpzSu1_4cdDB
FNDA:0,_RINvNtCs5XmxUzDHqcG_9getrandom4util12ptr_from_mutSINtNtNtCskumHb0IaX0X_4core3mem12maybe_uninit11MaybeUninithEECselVtgDpzSu1_4cdDB
FNDA:0,_RINvNtCs5XmxUzDHqcG_9getrandom4util12ptr_from_mutShECselVtgDpzSu1_4cdDB
FNDA:0,_RINvNtCs5XmxUzDHqcG_9getrandom4util12ptr_from_mutpEB4_
FNDA:0,_RINvNtCs5XmxUzDHqcG_9getrandom4util12ptr_from_refpEB4_
FNDA:0,_RINvNtCs5XmxUzDHqcG_9getrandom4util15slice_as_uninitpEB4_
FNDA:0,_RINvNtCs5XmxUzDHqcG_9getrandom4util19slice_as_uninit_mutpEB4_
FNDA:0,_RINvNtCs5XmxUzDHqcG_9getrandom4util21slice_assume_init_mutpEB4_
FNDA:0,_RNvNtCs5XmxUzDHqcG_9getrandom4util22uninit_slice_fill_zeroB3_
FNDA:0,_RNvNtCs5XmxUzDHqcG_9getrandom4util8truncate
FNDA:0,_RNvNtCs5XmxUzDHqcG_9getrandom4util9inner_u32B3_
FNDA:0,_RNvNtCs5XmxUzDHqcG_9getrandom4util9inner_u64B3_
FNF:9
FNH:0
DA:10,0
DA:11,0
DA:13,0
DA:14,0
DA:17,0
DA:18,0
DA:19,0
DA:20,0
DA:23,0
DA:24,0
DA:26,0
DA:27,0
DA:35,0
DA:36,0
DA:38,0
DA:39,0
DA:42,0
DA:43,0
DA:44,0
